ARM GAS  C:\Users\jagumiel\AppData\Local\Temp\ccg6Yelo.s 			page 1


   1              		.syntax unified
   2              		.cpu cortex-m0
   3              		.fpu softvfp
   4              		.eabi_attribute 20, 1
   5              		.eabi_attribute 21, 1
   6              		.eabi_attribute 23, 3
   7              		.eabi_attribute 24, 1
   8              		.eabi_attribute 25, 1
   9              		.eabi_attribute 26, 1
  10              		.eabi_attribute 30, 1
  11              		.eabi_attribute 34, 0
  12              		.eabi_attribute 18, 4
  13              		.thumb
  14              		.syntax unified
  15              		.file	"main.c"
  16              		.text
  17              	.Ltext0:
  18              		.cfi_sections	.debug_frame
  19              		.section	.text.Counter_Int_Handler,"ax",%progbits
  20              		.align	2
  21              		.global	Counter_Int_Handler
  22              		.code	16
  23              		.thumb_func
  24              		.type	Counter_Int_Handler, %function
  25              	Counter_Int_Handler:
  26              	.LFB32:
  27              		.file 1 "main.c"
   1:main.c        **** /* ========================================
   2:main.c        ****  *
   3:main.c        ****  * Copyright YOUR COMPANY, THE YEAR
   4:main.c        ****  * All Rights Reserved
   5:main.c        ****  * UNPUBLISHED, LICENSED SOFTWARE.
   6:main.c        ****  *
   7:main.c        ****  * CONFIDENTIAL AND PROPRIETARY INFORMATION
   8:main.c        ****  * WHICH IS THE PROPERTY OF your company.
   9:main.c        ****  *
  10:main.c        ****  * ========================================
  11:main.c        **** */
  12:main.c        **** #include "project.h"
  13:main.c        **** 
  14:main.c        **** CY_ISR(Counter_Int_Handler){
  28              		.loc 1 14 0
  29              		.cfi_startproc
  30              		@ args = 0, pretend = 0, frame = 0
  31              		@ frame_needed = 0, uses_anonymous_args = 0
  32 0000 10B5     		push	{r4, lr}
  33              		.cfi_def_cfa_offset 8
  34              		.cfi_offset 4, -8
  35              		.cfi_offset 14, -4
  15:main.c        ****     Pin_Green_Write(~Pin_Green_Read());   
  36              		.loc 1 15 0
  37 0002 FFF7FEFF 		bl	Pin_Green_Read
  38              	.LVL0:
  39 0006 C043     		mvns	r0, r0
  40 0008 C0B2     		uxtb	r0, r0
  41 000a FFF7FEFF 		bl	Pin_Green_Write
  42              	.LVL1:
ARM GAS  C:\Users\jagumiel\AppData\Local\Temp\ccg6Yelo.s 			page 2


  16:main.c        ****     Counter_ClearInterrupt(Counter_INTR_MASK_TC);
  43              		.loc 1 16 0
  44 000e 0120     		movs	r0, #1
  45 0010 FFF7FEFF 		bl	Counter_ClearInterrupt
  46              	.LVL2:
  17:main.c        **** }
  47              		.loc 1 17 0
  48              		@ sp needed
  49 0014 10BD     		pop	{r4, pc}
  50              		.cfi_endproc
  51              	.LFE32:
  52              		.size	Counter_Int_Handler, .-Counter_Int_Handler
  53 0016 C046     		.section	.text.main,"ax",%progbits
  54              		.align	2
  55              		.global	main
  56              		.code	16
  57              		.thumb_func
  58              		.type	main, %function
  59              	main:
  60              	.LFB33:
  18:main.c        **** 
  19:main.c        **** int main(void)
  20:main.c        **** {
  61              		.loc 1 20 0
  62              		.cfi_startproc
  63              		@ Volatile: function does not return.
  64              		@ args = 0, pretend = 0, frame = 0
  65              		@ frame_needed = 0, uses_anonymous_args = 0
  66 0000 10B5     		push	{r4, lr}
  67              		.cfi_def_cfa_offset 8
  68              		.cfi_offset 4, -8
  69              		.cfi_offset 14, -4
  21:main.c        ****     CyGlobalIntEnable; /* Enable global interrupts. */
  70              		.loc 1 21 0
  71              		.syntax divided
  72              	@ 21 "main.c" 1
  73 0002 62B6     		CPSIE   i
  74              	@ 0 "" 2
  22:main.c        ****     
  23:main.c        ****     Counter_Start();
  75              		.loc 1 23 0
  76              		.thumb
  77              		.syntax unified
  78 0004 FFF7FEFF 		bl	Counter_Start
  79              	.LVL3:
  24:main.c        ****     Counter_Int_StartEx(Counter_Int_Handler);
  80              		.loc 1 24 0
  81 0008 0148     		ldr	r0, .L4
  82 000a FFF7FEFF 		bl	Counter_Int_StartEx
  83              	.LVL4:
  84              	.L3:
  85 000e FEE7     		b	.L3
  86              	.L5:
  87              		.align	2
  88              	.L4:
  89 0010 00000000 		.word	Counter_Int_Handler
  90              		.cfi_endproc
ARM GAS  C:\Users\jagumiel\AppData\Local\Temp\ccg6Yelo.s 			page 3


  91              	.LFE33:
  92              		.size	main, .-main
  93              		.text
  94              	.Letext0:
  95              		.file 2 "Generated_Source\\PSoC4/Pin_Green.h"
  96              		.file 3 "Generated_Source\\PSoC4/Counter.h"
  97              		.file 4 "Generated_Source\\PSoC4/Counter_Int.h"
  98              		.file 5 "Generated_Source\\PSoC4/cytypes.h"