ARM GAS  C:\Users\jagumiel\AppData\Local\Temp\ccH5wPnt.s 			page 1


   1              		.syntax unified
   2              		.cpu cortex-m0
   3              		.fpu softvfp
   4              		.eabi_attribute 20, 1
   5              		.eabi_attribute 21, 1
   6              		.eabi_attribute 23, 3
   7              		.eabi_attribute 24, 1
   8              		.eabi_attribute 25, 1
   9              		.eabi_attribute 26, 1
  10              		.eabi_attribute 30, 1
  11              		.eabi_attribute 34, 0
  12              		.eabi_attribute 18, 4
  13              		.thumb
  14              		.syntax unified
  15              		.file	"cyfitter_cfg.c"
  16              		.text
  17              	.Ltext0:
  18              		.cfi_sections	.debug_frame
  19              		.section	.text.cfg_write_bytes32,"ax",%progbits
  20              		.align	2
  21              		.code	16
  22              		.thumb_func
  23              		.type	cfg_write_bytes32, %function
  24              	cfg_write_bytes32:
  25              	.LFB3:
  26              		.file 1 "Generated_Source\\PSoC4\\cyfitter_cfg.c"
   1:Generated_Source\PSoC4/cyfitter_cfg.c **** 
   2:Generated_Source\PSoC4/cyfitter_cfg.c **** /*******************************************************************************
   3:Generated_Source\PSoC4/cyfitter_cfg.c **** * File Name: cyfitter_cfg.c
   4:Generated_Source\PSoC4/cyfitter_cfg.c **** * 
   5:Generated_Source\PSoC4/cyfitter_cfg.c **** * PSoC Creator  4.2
   6:Generated_Source\PSoC4/cyfitter_cfg.c **** *
   7:Generated_Source\PSoC4/cyfitter_cfg.c **** * Description:
   8:Generated_Source\PSoC4/cyfitter_cfg.c **** * This file contains device initialization code.
   9:Generated_Source\PSoC4/cyfitter_cfg.c **** * Except for the user defined sections in CyClockStartupError(), this file should not be modified.
  10:Generated_Source\PSoC4/cyfitter_cfg.c **** * This file is automatically generated by PSoC Creator.
  11:Generated_Source\PSoC4/cyfitter_cfg.c **** *
  12:Generated_Source\PSoC4/cyfitter_cfg.c **** ********************************************************************************
  13:Generated_Source\PSoC4/cyfitter_cfg.c **** * Copyright (c) 2007-2018 Cypress Semiconductor.  All rights reserved.
  14:Generated_Source\PSoC4/cyfitter_cfg.c **** * You may use this file only in accordance with the license, terms, conditions, 
  15:Generated_Source\PSoC4/cyfitter_cfg.c **** * disclaimers, and limitations in the end user license agreement accompanying 
  16:Generated_Source\PSoC4/cyfitter_cfg.c **** * the software package with which this file was provided.
  17:Generated_Source\PSoC4/cyfitter_cfg.c **** ********************************************************************************/
  18:Generated_Source\PSoC4/cyfitter_cfg.c **** 
  19:Generated_Source\PSoC4/cyfitter_cfg.c **** #include <string.h>
  20:Generated_Source\PSoC4/cyfitter_cfg.c **** #include "cytypes.h"
  21:Generated_Source\PSoC4/cyfitter_cfg.c **** #include "cydevice_trm.h"
  22:Generated_Source\PSoC4/cyfitter_cfg.c **** #include "cyfitter.h"
  23:Generated_Source\PSoC4/cyfitter_cfg.c **** #include "CyLib.h"
  24:Generated_Source\PSoC4/cyfitter_cfg.c **** #include "CyLFClk.h"
  25:Generated_Source\PSoC4/cyfitter_cfg.c **** #include "cyfitter_cfg.h"
  26:Generated_Source\PSoC4/cyfitter_cfg.c **** #include "cyapicallbacks.h"
  27:Generated_Source\PSoC4/cyfitter_cfg.c **** 
  28:Generated_Source\PSoC4/cyfitter_cfg.c **** 
  29:Generated_Source\PSoC4/cyfitter_cfg.c **** #if defined(__GNUC__) || defined(__ARMCC_VERSION)
  30:Generated_Source\PSoC4/cyfitter_cfg.c ****     #define CYPACKED 
  31:Generated_Source\PSoC4/cyfitter_cfg.c ****     #define CYPACKED_ATTR __attribute__ ((packed))
ARM GAS  C:\Users\jagumiel\AppData\Local\Temp\ccH5wPnt.s 			page 2


  32:Generated_Source\PSoC4/cyfitter_cfg.c ****     #define CYALIGNED __attribute__ ((aligned))
  33:Generated_Source\PSoC4/cyfitter_cfg.c ****     #define CY_CFG_UNUSED __attribute__ ((unused))
  34:Generated_Source\PSoC4/cyfitter_cfg.c ****     #ifndef CY_CFG_SECTION
  35:Generated_Source\PSoC4/cyfitter_cfg.c ****         #define CY_CFG_SECTION __attribute__ ((section(".psocinit")))
  36:Generated_Source\PSoC4/cyfitter_cfg.c ****     #endif
  37:Generated_Source\PSoC4/cyfitter_cfg.c ****     
  38:Generated_Source\PSoC4/cyfitter_cfg.c ****     #if defined(__ARMCC_VERSION)
  39:Generated_Source\PSoC4/cyfitter_cfg.c ****         #define CY_CFG_MEMORY_BARRIER() __memory_changed()
  40:Generated_Source\PSoC4/cyfitter_cfg.c ****     #else
  41:Generated_Source\PSoC4/cyfitter_cfg.c ****         #define CY_CFG_MEMORY_BARRIER() __sync_synchronize()
  42:Generated_Source\PSoC4/cyfitter_cfg.c ****     #endif
  43:Generated_Source\PSoC4/cyfitter_cfg.c ****     
  44:Generated_Source\PSoC4/cyfitter_cfg.c **** #elif defined(__ICCARM__)
  45:Generated_Source\PSoC4/cyfitter_cfg.c ****     #include <intrinsics.h>
  46:Generated_Source\PSoC4/cyfitter_cfg.c **** 
  47:Generated_Source\PSoC4/cyfitter_cfg.c ****     #define CYPACKED __packed
  48:Generated_Source\PSoC4/cyfitter_cfg.c ****     #define CYPACKED_ATTR 
  49:Generated_Source\PSoC4/cyfitter_cfg.c ****     #define CYALIGNED _Pragma("data_alignment=4")
  50:Generated_Source\PSoC4/cyfitter_cfg.c ****     #define CY_CFG_UNUSED _Pragma("diag_suppress=Pe177")
  51:Generated_Source\PSoC4/cyfitter_cfg.c ****     #define CY_CFG_SECTION _Pragma("location=\".psocinit\"")
  52:Generated_Source\PSoC4/cyfitter_cfg.c ****     
  53:Generated_Source\PSoC4/cyfitter_cfg.c ****     #define CY_CFG_MEMORY_BARRIER() __DMB()
  54:Generated_Source\PSoC4/cyfitter_cfg.c ****     
  55:Generated_Source\PSoC4/cyfitter_cfg.c **** #else
  56:Generated_Source\PSoC4/cyfitter_cfg.c ****     #error Unsupported toolchain
  57:Generated_Source\PSoC4/cyfitter_cfg.c **** #endif
  58:Generated_Source\PSoC4/cyfitter_cfg.c **** 
  59:Generated_Source\PSoC4/cyfitter_cfg.c **** #ifndef CYCODE
  60:Generated_Source\PSoC4/cyfitter_cfg.c ****     #define CYCODE
  61:Generated_Source\PSoC4/cyfitter_cfg.c **** #endif
  62:Generated_Source\PSoC4/cyfitter_cfg.c **** #ifndef CYDATA
  63:Generated_Source\PSoC4/cyfitter_cfg.c ****     #define CYDATA
  64:Generated_Source\PSoC4/cyfitter_cfg.c **** #endif
  65:Generated_Source\PSoC4/cyfitter_cfg.c **** #ifndef CYFAR
  66:Generated_Source\PSoC4/cyfitter_cfg.c ****     #define CYFAR
  67:Generated_Source\PSoC4/cyfitter_cfg.c **** #endif
  68:Generated_Source\PSoC4/cyfitter_cfg.c **** #ifndef CYXDATA
  69:Generated_Source\PSoC4/cyfitter_cfg.c ****     #define CYXDATA
  70:Generated_Source\PSoC4/cyfitter_cfg.c **** #endif
  71:Generated_Source\PSoC4/cyfitter_cfg.c **** 
  72:Generated_Source\PSoC4/cyfitter_cfg.c **** 
  73:Generated_Source\PSoC4/cyfitter_cfg.c **** CY_CFG_UNUSED
  74:Generated_Source\PSoC4/cyfitter_cfg.c **** static void CYMEMZERO(void *s, size_t n);
  75:Generated_Source\PSoC4/cyfitter_cfg.c **** CY_CFG_UNUSED
  76:Generated_Source\PSoC4/cyfitter_cfg.c **** static void CYMEMZERO(void *s, size_t n)
  77:Generated_Source\PSoC4/cyfitter_cfg.c **** {
  78:Generated_Source\PSoC4/cyfitter_cfg.c **** 	(void)memset(s, 0, n);
  79:Generated_Source\PSoC4/cyfitter_cfg.c **** }
  80:Generated_Source\PSoC4/cyfitter_cfg.c **** CY_CFG_UNUSED
  81:Generated_Source\PSoC4/cyfitter_cfg.c **** static void CYCONFIGCPY(void *dest, const void *src, size_t n);
  82:Generated_Source\PSoC4/cyfitter_cfg.c **** CY_CFG_UNUSED
  83:Generated_Source\PSoC4/cyfitter_cfg.c **** static void CYCONFIGCPY(void *dest, const void *src, size_t n)
  84:Generated_Source\PSoC4/cyfitter_cfg.c **** {
  85:Generated_Source\PSoC4/cyfitter_cfg.c **** 	(void)memcpy(dest, src, n);
  86:Generated_Source\PSoC4/cyfitter_cfg.c **** }
  87:Generated_Source\PSoC4/cyfitter_cfg.c **** CY_CFG_UNUSED
  88:Generated_Source\PSoC4/cyfitter_cfg.c **** static void CYCONFIGCPYCODE(void *dest, const void *src, size_t n);
ARM GAS  C:\Users\jagumiel\AppData\Local\Temp\ccH5wPnt.s 			page 3


  89:Generated_Source\PSoC4/cyfitter_cfg.c **** CY_CFG_UNUSED
  90:Generated_Source\PSoC4/cyfitter_cfg.c **** static void CYCONFIGCPYCODE(void *dest, const void *src, size_t n)
  91:Generated_Source\PSoC4/cyfitter_cfg.c **** {
  92:Generated_Source\PSoC4/cyfitter_cfg.c **** 	(void)memcpy(dest, src, n);
  93:Generated_Source\PSoC4/cyfitter_cfg.c **** }
  94:Generated_Source\PSoC4/cyfitter_cfg.c **** 
  95:Generated_Source\PSoC4/cyfitter_cfg.c **** 
  96:Generated_Source\PSoC4/cyfitter_cfg.c **** 
  97:Generated_Source\PSoC4/cyfitter_cfg.c **** 
  98:Generated_Source\PSoC4/cyfitter_cfg.c **** /* Clock startup error codes                                                   */
  99:Generated_Source\PSoC4/cyfitter_cfg.c **** #define CYCLOCKSTART_NO_ERROR    0u
 100:Generated_Source\PSoC4/cyfitter_cfg.c **** #define CYCLOCKSTART_XTAL_ERROR  1u
 101:Generated_Source\PSoC4/cyfitter_cfg.c **** #define CYCLOCKSTART_32KHZ_ERROR 2u
 102:Generated_Source\PSoC4/cyfitter_cfg.c **** #define CYCLOCKSTART_PLL_ERROR   3u
 103:Generated_Source\PSoC4/cyfitter_cfg.c **** #define CYCLOCKSTART_FLL_ERROR   4u
 104:Generated_Source\PSoC4/cyfitter_cfg.c **** #define CYCLOCKSTART_WCO_ERROR   5u
 105:Generated_Source\PSoC4/cyfitter_cfg.c **** 
 106:Generated_Source\PSoC4/cyfitter_cfg.c **** 
 107:Generated_Source\PSoC4/cyfitter_cfg.c **** #ifdef CY_NEED_CYCLOCKSTARTUPERROR
 108:Generated_Source\PSoC4/cyfitter_cfg.c **** /*******************************************************************************
 109:Generated_Source\PSoC4/cyfitter_cfg.c **** * Function Name: CyClockStartupError
 110:Generated_Source\PSoC4/cyfitter_cfg.c **** ********************************************************************************
 111:Generated_Source\PSoC4/cyfitter_cfg.c **** * Summary:
 112:Generated_Source\PSoC4/cyfitter_cfg.c **** *  If an error is encountered during clock configuration (crystal startup error,
 113:Generated_Source\PSoC4/cyfitter_cfg.c **** *  PLL lock error, etc.), the system will end up here.  Unless reimplemented by
 114:Generated_Source\PSoC4/cyfitter_cfg.c **** *  the customer, this function will stop in an infinite loop.
 115:Generated_Source\PSoC4/cyfitter_cfg.c **** *
 116:Generated_Source\PSoC4/cyfitter_cfg.c **** * Parameters:
 117:Generated_Source\PSoC4/cyfitter_cfg.c **** *   void
 118:Generated_Source\PSoC4/cyfitter_cfg.c **** *
 119:Generated_Source\PSoC4/cyfitter_cfg.c **** * Return:
 120:Generated_Source\PSoC4/cyfitter_cfg.c **** *   void
 121:Generated_Source\PSoC4/cyfitter_cfg.c **** *
 122:Generated_Source\PSoC4/cyfitter_cfg.c **** *******************************************************************************/
 123:Generated_Source\PSoC4/cyfitter_cfg.c **** CY_CFG_UNUSED
 124:Generated_Source\PSoC4/cyfitter_cfg.c **** static void CyClockStartupError(uint8 errorCode);
 125:Generated_Source\PSoC4/cyfitter_cfg.c **** CY_CFG_UNUSED
 126:Generated_Source\PSoC4/cyfitter_cfg.c **** static void CyClockStartupError(uint8 errorCode)
 127:Generated_Source\PSoC4/cyfitter_cfg.c **** {
 128:Generated_Source\PSoC4/cyfitter_cfg.c ****     /* To remove the compiler warning if errorCode not used.                */
 129:Generated_Source\PSoC4/cyfitter_cfg.c ****     errorCode = errorCode;
 130:Generated_Source\PSoC4/cyfitter_cfg.c **** 
 131:Generated_Source\PSoC4/cyfitter_cfg.c ****     /* If we have a clock startup error (bad MHz crystal, PLL lock, etc.),  */
 132:Generated_Source\PSoC4/cyfitter_cfg.c ****     /* we will end up here to allow the customer to implement something to  */
 133:Generated_Source\PSoC4/cyfitter_cfg.c ****     /* deal with the clock condition.                                       */
 134:Generated_Source\PSoC4/cyfitter_cfg.c **** 
 135:Generated_Source\PSoC4/cyfitter_cfg.c **** #ifdef CY_CFG_CLOCK_STARTUP_ERROR_CALLBACK
 136:Generated_Source\PSoC4/cyfitter_cfg.c ****     CY_CFG_Clock_Startup_ErrorCallback();
 137:Generated_Source\PSoC4/cyfitter_cfg.c **** #else
 138:Generated_Source\PSoC4/cyfitter_cfg.c ****     /*  If not using CY_CFG_CLOCK_STARTUP_ERROR_CALLBACK, place your clock startup code here. */
 139:Generated_Source\PSoC4/cyfitter_cfg.c ****     /* `#START CyClockStartupError` */
 140:Generated_Source\PSoC4/cyfitter_cfg.c **** 
 141:Generated_Source\PSoC4/cyfitter_cfg.c **** 
 142:Generated_Source\PSoC4/cyfitter_cfg.c **** 
 143:Generated_Source\PSoC4/cyfitter_cfg.c ****     /* `#END` */
 144:Generated_Source\PSoC4/cyfitter_cfg.c **** 
 145:Generated_Source\PSoC4/cyfitter_cfg.c ****     while(1) {}
ARM GAS  C:\Users\jagumiel\AppData\Local\Temp\ccH5wPnt.s 			page 4


 146:Generated_Source\PSoC4/cyfitter_cfg.c **** #endif /* CY_CFG_CLOCK_STARTUP_ERROR_CALLBACK */
 147:Generated_Source\PSoC4/cyfitter_cfg.c **** }
 148:Generated_Source\PSoC4/cyfitter_cfg.c **** #endif
 149:Generated_Source\PSoC4/cyfitter_cfg.c **** 
 150:Generated_Source\PSoC4/cyfitter_cfg.c **** #define CY_CFG_BASE_ADDR_COUNT 10u
 151:Generated_Source\PSoC4/cyfitter_cfg.c **** CYPACKED typedef struct
 152:Generated_Source\PSoC4/cyfitter_cfg.c **** {
 153:Generated_Source\PSoC4/cyfitter_cfg.c **** 	uint8 offset;
 154:Generated_Source\PSoC4/cyfitter_cfg.c **** 	uint8 value;
 155:Generated_Source\PSoC4/cyfitter_cfg.c **** } CYPACKED_ATTR cy_cfg_addrvalue_t;
 156:Generated_Source\PSoC4/cyfitter_cfg.c **** 
 157:Generated_Source\PSoC4/cyfitter_cfg.c **** 
 158:Generated_Source\PSoC4/cyfitter_cfg.c **** 
 159:Generated_Source\PSoC4/cyfitter_cfg.c **** /*******************************************************************************
 160:Generated_Source\PSoC4/cyfitter_cfg.c **** * Function Name: cfg_write_bytes32
 161:Generated_Source\PSoC4/cyfitter_cfg.c **** ********************************************************************************
 162:Generated_Source\PSoC4/cyfitter_cfg.c **** * Summary:
 163:Generated_Source\PSoC4/cyfitter_cfg.c **** *  This function is used for setting up the chip configuration areas that
 164:Generated_Source\PSoC4/cyfitter_cfg.c **** *  contain relatively sparse data.
 165:Generated_Source\PSoC4/cyfitter_cfg.c **** *
 166:Generated_Source\PSoC4/cyfitter_cfg.c **** * Parameters:
 167:Generated_Source\PSoC4/cyfitter_cfg.c **** *   void
 168:Generated_Source\PSoC4/cyfitter_cfg.c **** *
 169:Generated_Source\PSoC4/cyfitter_cfg.c **** * Return:
 170:Generated_Source\PSoC4/cyfitter_cfg.c **** *   void
 171:Generated_Source\PSoC4/cyfitter_cfg.c **** *
 172:Generated_Source\PSoC4/cyfitter_cfg.c **** *******************************************************************************/
 173:Generated_Source\PSoC4/cyfitter_cfg.c **** static void cfg_write_bytes32(const uint32 addr_table[], const cy_cfg_addrvalue_t data_table[]);
 174:Generated_Source\PSoC4/cyfitter_cfg.c **** static void cfg_write_bytes32(const uint32 addr_table[], const cy_cfg_addrvalue_t data_table[])
 175:Generated_Source\PSoC4/cyfitter_cfg.c **** {
  27              		.loc 1 175 0
  28              		.cfi_startproc
  29              		@ args = 0, pretend = 0, frame = 0
  30              		@ frame_needed = 0, uses_anonymous_args = 0
  31              	.LVL0:
  32 0000 F0B5     		push	{r4, r5, r6, r7, lr}
  33              		.cfi_def_cfa_offset 20
  34              		.cfi_offset 4, -20
  35              		.cfi_offset 5, -16
  36              		.cfi_offset 6, -12
  37              		.cfi_offset 7, -8
  38              		.cfi_offset 14, -4
  39              	.LVL1:
 176:Generated_Source\PSoC4/cyfitter_cfg.c **** 	/* For 32-bit little-endian architectures */
 177:Generated_Source\PSoC4/cyfitter_cfg.c **** 	uint32 i, j = 0u;
  40              		.loc 1 177 0
  41 0002 0025     		movs	r5, #0
 178:Generated_Source\PSoC4/cyfitter_cfg.c **** 	for (i = 0u; i < CY_CFG_BASE_ADDR_COUNT; i++)
  42              		.loc 1 178 0
  43 0004 0027     		movs	r7, #0
  44 0006 11E0     		b	.L2
  45              	.LVL2:
  46              	.L5:
  47              	.LBB2:
 179:Generated_Source\PSoC4/cyfitter_cfg.c **** 	{
 180:Generated_Source\PSoC4/cyfitter_cfg.c **** 		uint32 baseAddr = addr_table[i];
  48              		.loc 1 180 0
ARM GAS  C:\Users\jagumiel\AppData\Local\Temp\ccH5wPnt.s 			page 5


  49 0008 BB00     		lsls	r3, r7, #2
  50 000a C658     		ldr	r6, [r0, r3]
  51              	.LVL3:
 181:Generated_Source\PSoC4/cyfitter_cfg.c **** 		uint8 count = (uint8)baseAddr;
  52              		.loc 1 181 0
  53 000c F3B2     		uxtb	r3, r6
  54              	.LVL4:
 182:Generated_Source\PSoC4/cyfitter_cfg.c **** 		baseAddr &= 0xFFFFFF00u;
  55              		.loc 1 182 0
  56 000e FF22     		movs	r2, #255
  57 0010 9643     		bics	r6, r2
  58              	.LVL5:
 183:Generated_Source\PSoC4/cyfitter_cfg.c **** 		while (count != 0u)
  59              		.loc 1 183 0
  60 0012 08E0     		b	.L3
  61              	.L4:
 184:Generated_Source\PSoC4/cyfitter_cfg.c **** 		{
 185:Generated_Source\PSoC4/cyfitter_cfg.c **** 			CY_SET_REG8((void *)(baseAddr + data_table[j].offset), data_table[j].value);
  62              		.loc 1 185 0
  63 0014 6A00     		lsls	r2, r5, #1
  64 0016 8A18     		adds	r2, r1, r2
  65 0018 1478     		ldrb	r4, [r2]
  66 001a A419     		adds	r4, r4, r6
  67 001c 5278     		ldrb	r2, [r2, #1]
  68 001e 2270     		strb	r2, [r4]
 186:Generated_Source\PSoC4/cyfitter_cfg.c **** 			j++;
  69              		.loc 1 186 0
  70 0020 0135     		adds	r5, r5, #1
  71              	.LVL6:
 187:Generated_Source\PSoC4/cyfitter_cfg.c **** 			count--;
  72              		.loc 1 187 0
  73 0022 013B     		subs	r3, r3, #1
  74              	.LVL7:
  75 0024 DBB2     		uxtb	r3, r3
  76              	.LVL8:
  77              	.L3:
 183:Generated_Source\PSoC4/cyfitter_cfg.c **** 		{
  78              		.loc 1 183 0
  79 0026 002B     		cmp	r3, #0
  80 0028 F4D1     		bne	.L4
  81              	.LBE2:
 178:Generated_Source\PSoC4/cyfitter_cfg.c **** 	{
  82              		.loc 1 178 0 discriminator 2
  83 002a 0137     		adds	r7, r7, #1
  84              	.LVL9:
  85              	.L2:
 178:Generated_Source\PSoC4/cyfitter_cfg.c **** 	{
  86              		.loc 1 178 0 is_stmt 0 discriminator 1
  87 002c 092F     		cmp	r7, #9
  88 002e EBD9     		bls	.L5
 188:Generated_Source\PSoC4/cyfitter_cfg.c **** 		}
 189:Generated_Source\PSoC4/cyfitter_cfg.c **** 	}
 190:Generated_Source\PSoC4/cyfitter_cfg.c **** }
  89              		.loc 1 190 0 is_stmt 1
  90              		@ sp needed
  91              	.LVL10:
  92              	.LVL11:
ARM GAS  C:\Users\jagumiel\AppData\Local\Temp\ccH5wPnt.s 			page 6


  93 0030 F0BD     		pop	{r4, r5, r6, r7, pc}
  94              		.cfi_endproc
  95              	.LFE3:
  96              		.size	cfg_write_bytes32, .-cfg_write_bytes32
  97 0032 C046     		.section	.text.CYMEMZERO,"ax",%progbits
  98              		.align	2
  99              		.code	16
 100              		.thumb_func
 101              		.type	CYMEMZERO, %function
 102              	CYMEMZERO:
 103              	.LFB0:
  77:Generated_Source\PSoC4/cyfitter_cfg.c **** 	(void)memset(s, 0, n);
 104              		.loc 1 77 0
 105              		.cfi_startproc
 106              		@ args = 0, pretend = 0, frame = 0
 107              		@ frame_needed = 0, uses_anonymous_args = 0
 108              	.LVL12:
 109 0000 10B5     		push	{r4, lr}
 110              		.cfi_def_cfa_offset 8
 111              		.cfi_offset 4, -8
 112              		.cfi_offset 14, -4
 113 0002 0A00     		movs	r2, r1
  78:Generated_Source\PSoC4/cyfitter_cfg.c **** }
 114              		.loc 1 78 0
 115 0004 0021     		movs	r1, #0
 116              	.LVL13:
 117 0006 FFF7FEFF 		bl	memset
 118              	.LVL14:
  79:Generated_Source\PSoC4/cyfitter_cfg.c **** CY_CFG_UNUSED
 119              		.loc 1 79 0
 120              		@ sp needed
 121 000a 10BD     		pop	{r4, pc}
 122              		.cfi_endproc
 123              	.LFE0:
 124              		.size	CYMEMZERO, .-CYMEMZERO
 125              		.section	.psocinit,"ax",%progbits
 126              		.align	2
 127              		.code	16
 128              		.thumb_func
 129              		.type	ClockSetup, %function
 130              	ClockSetup:
 131              	.LFB4:
 191:Generated_Source\PSoC4/cyfitter_cfg.c **** 
 192:Generated_Source\PSoC4/cyfitter_cfg.c **** 
 193:Generated_Source\PSoC4/cyfitter_cfg.c **** /*******************************************************************************
 194:Generated_Source\PSoC4/cyfitter_cfg.c **** * Function Name: ClockSetup
 195:Generated_Source\PSoC4/cyfitter_cfg.c **** ********************************************************************************
 196:Generated_Source\PSoC4/cyfitter_cfg.c **** *
 197:Generated_Source\PSoC4/cyfitter_cfg.c **** * Summary:
 198:Generated_Source\PSoC4/cyfitter_cfg.c **** *   Performs the initialization of all of the clocks in the device based on the
 199:Generated_Source\PSoC4/cyfitter_cfg.c **** *   settings in the Clock tab of the DWR.  This includes enabling the requested
 200:Generated_Source\PSoC4/cyfitter_cfg.c **** *   clocks and setting the necessary dividers to produce the desired frequency. 
 201:Generated_Source\PSoC4/cyfitter_cfg.c **** *
 202:Generated_Source\PSoC4/cyfitter_cfg.c **** * Parameters:
 203:Generated_Source\PSoC4/cyfitter_cfg.c **** *   void
 204:Generated_Source\PSoC4/cyfitter_cfg.c **** *
 205:Generated_Source\PSoC4/cyfitter_cfg.c **** * Return:
ARM GAS  C:\Users\jagumiel\AppData\Local\Temp\ccH5wPnt.s 			page 7


 206:Generated_Source\PSoC4/cyfitter_cfg.c **** *   void
 207:Generated_Source\PSoC4/cyfitter_cfg.c **** *
 208:Generated_Source\PSoC4/cyfitter_cfg.c **** *******************************************************************************/
 209:Generated_Source\PSoC4/cyfitter_cfg.c **** static void ClockSetup(void);
 210:Generated_Source\PSoC4/cyfitter_cfg.c **** CY_CFG_SECTION
 211:Generated_Source\PSoC4/cyfitter_cfg.c **** static void ClockSetup(void)
 212:Generated_Source\PSoC4/cyfitter_cfg.c **** {
 132              		.loc 1 212 0
 133              		.cfi_startproc
 134              		@ args = 0, pretend = 0, frame = 0
 135              		@ frame_needed = 0, uses_anonymous_args = 0
 136 0000 70B5     		push	{r4, r5, r6, lr}
 137              		.cfi_def_cfa_offset 16
 138              		.cfi_offset 4, -16
 139              		.cfi_offset 5, -12
 140              		.cfi_offset 6, -8
 141              		.cfi_offset 14, -4
 213:Generated_Source\PSoC4/cyfitter_cfg.c **** 	/* Enable HALF_EN before trimming for the flash accelerator. */
 214:Generated_Source\PSoC4/cyfitter_cfg.c **** 	CY_SET_REG32((void CYXDATA *)(CYREG_CLK_SELECT), (CY_GET_REG32((void *)CYREG_CLK_SELECT) | 0x00040
 142              		.loc 1 214 0
 143 0002 194C     		ldr	r4, .L8
 144 0004 2368     		ldr	r3, [r4]
 145 0006 8022     		movs	r2, #128
 146 0008 D202     		lsls	r2, r2, #11
 147 000a 1343     		orrs	r3, r2
 148 000c 2360     		str	r3, [r4]
 215:Generated_Source\PSoC4/cyfitter_cfg.c **** 
 216:Generated_Source\PSoC4/cyfitter_cfg.c **** 	/* Setup and trim IMO based on desired frequency. */
 217:Generated_Source\PSoC4/cyfitter_cfg.c **** 	CySysClkWriteImoFreq(24u);
 149              		.loc 1 217 0
 150 000e 1820     		movs	r0, #24
 151 0010 FFF7FEFF 		bl	CySysClkWriteImoFreq
 152              	.LVL15:
 218:Generated_Source\PSoC4/cyfitter_cfg.c **** 
 219:Generated_Source\PSoC4/cyfitter_cfg.c **** 	/* Disable HALF_EN since it is not required at this IMO frequency. */
 220:Generated_Source\PSoC4/cyfitter_cfg.c **** 	CY_SET_REG32((void CYXDATA *)(CYREG_CLK_SELECT), (CY_GET_REG32((void *)CYREG_CLK_SELECT) & 0xFFFBF
 153              		.loc 1 220 0
 154 0014 2268     		ldr	r2, [r4]
 155 0016 154B     		ldr	r3, .L8+4
 156 0018 1340     		ands	r3, r2
 157 001a 2360     		str	r3, [r4]
 221:Generated_Source\PSoC4/cyfitter_cfg.c **** 	/* CYDEV_CLK_ILO_CONFIG Starting address: CYDEV_CLK_ILO_CONFIG */
 222:Generated_Source\PSoC4/cyfitter_cfg.c **** 	CY_SET_REG32((void *)(CYREG_CLK_ILO_CONFIG), 0x80000006u);
 158              		.loc 1 222 0
 159 001c 144A     		ldr	r2, .L8+8
 160 001e 154B     		ldr	r3, .L8+12
 161 0020 1A60     		str	r2, [r3]
 223:Generated_Source\PSoC4/cyfitter_cfg.c **** 
 224:Generated_Source\PSoC4/cyfitter_cfg.c **** 
 225:Generated_Source\PSoC4/cyfitter_cfg.c **** 	/* CYDEV_CLK_SELECT00 Starting address: CYDEV_CLK_SELECT00 */
 226:Generated_Source\PSoC4/cyfitter_cfg.c **** 	CY_SET_REG32((void *)(CYREG_CLK_SELECT05), 0x00000020u);
 162              		.loc 1 226 0
 163 0022 2022     		movs	r2, #32
 164 0024 144B     		ldr	r3, .L8+16
 165 0026 1A60     		str	r2, [r3]
 227:Generated_Source\PSoC4/cyfitter_cfg.c **** 	CY_SET_REG32((void *)(CYREG_CLK_SELECT06), 0x00000010u);
 166              		.loc 1 227 0
ARM GAS  C:\Users\jagumiel\AppData\Local\Temp\ccH5wPnt.s 			page 8


 167 0028 103A     		subs	r2, r2, #16
 168 002a 144B     		ldr	r3, .L8+20
 169 002c 1A60     		str	r2, [r3]
 228:Generated_Source\PSoC4/cyfitter_cfg.c **** 	CY_SET_REG32((void *)(CYREG_CLK_SELECT12), 0x00000030u);
 170              		.loc 1 228 0
 171 002e 2032     		adds	r2, r2, #32
 172 0030 134B     		ldr	r3, .L8+24
 173 0032 1A60     		str	r2, [r3]
 229:Generated_Source\PSoC4/cyfitter_cfg.c **** 
 230:Generated_Source\PSoC4/cyfitter_cfg.c **** 	/* CYDEV_CLK_IMO_CONFIG Starting address: CYDEV_CLK_IMO_CONFIG */
 231:Generated_Source\PSoC4/cyfitter_cfg.c **** 	CY_SET_REG32((void *)(CYREG_CLK_IMO_CONFIG), 0x80000000u);
 174              		.loc 1 231 0
 175 0034 8022     		movs	r2, #128
 176 0036 1206     		lsls	r2, r2, #24
 177 0038 124B     		ldr	r3, .L8+28
 178 003a 1A60     		str	r2, [r3]
 232:Generated_Source\PSoC4/cyfitter_cfg.c **** 
 233:Generated_Source\PSoC4/cyfitter_cfg.c **** 	/* CYDEV_CLK_SELECT Starting address: CYDEV_CLK_SELECT */
 234:Generated_Source\PSoC4/cyfitter_cfg.c **** 	CY_SET_REG32((void *)(CYREG_CLK_SELECT), 0x00000000u);
 179              		.loc 1 234 0
 180 003c 0025     		movs	r5, #0
 181 003e 2560     		str	r5, [r4]
 235:Generated_Source\PSoC4/cyfitter_cfg.c **** 
 236:Generated_Source\PSoC4/cyfitter_cfg.c **** 	/* CYDEV_CLK_DIVIDER_A00 Starting address: CYDEV_CLK_DIVIDER_A00 */
 237:Generated_Source\PSoC4/cyfitter_cfg.c **** 	CY_SET_REG32((void *)(CYREG_CLK_DIVIDER_A00), 0x800000FEu);
 182              		.loc 1 237 0
 183 0040 114A     		ldr	r2, .L8+32
 184 0042 124B     		ldr	r3, .L8+36
 185 0044 1A60     		str	r2, [r3]
 238:Generated_Source\PSoC4/cyfitter_cfg.c **** 
 239:Generated_Source\PSoC4/cyfitter_cfg.c **** 	/* CYDEV_CLK_DIVIDER_B00 Starting address: CYDEV_CLK_DIVIDER_B00 */
 240:Generated_Source\PSoC4/cyfitter_cfg.c **** 	CY_SET_REG32((void *)(CYREG_CLK_DIVIDER_B00), 0xC00000FEu);
 186              		.loc 1 240 0
 187 0046 124A     		ldr	r2, .L8+40
 188 0048 124B     		ldr	r3, .L8+44
 189 004a 1A60     		str	r2, [r3]
 241:Generated_Source\PSoC4/cyfitter_cfg.c **** 
 242:Generated_Source\PSoC4/cyfitter_cfg.c **** 	/* CYDEV_CLK_DIVIDER_C00 Starting address: CYDEV_CLK_DIVIDER_C00 */
 243:Generated_Source\PSoC4/cyfitter_cfg.c **** 	CY_SET_REG32((void *)(CYREG_CLK_DIVIDER_C00), 0x800001DFu);
 190              		.loc 1 243 0
 191 004c 124A     		ldr	r2, .L8+48
 192 004e 134B     		ldr	r3, .L8+52
 193 0050 1A60     		str	r2, [r3]
 244:Generated_Source\PSoC4/cyfitter_cfg.c **** 
 245:Generated_Source\PSoC4/cyfitter_cfg.c **** 	(void)CyIntSetVector(9u, &CySysWdtIsr);
 194              		.loc 1 245 0
 195 0052 1349     		ldr	r1, .L8+56
 196 0054 0920     		movs	r0, #9
 197 0056 FFF7FEFF 		bl	CyIntSetVector
 198              	.LVL16:
 246:Generated_Source\PSoC4/cyfitter_cfg.c **** 	CyIntEnable(9u);
 199              		.loc 1 246 0
 200 005a 0920     		movs	r0, #9
 201 005c FFF7FEFF 		bl	CyIntEnable
 202              	.LVL17:
 247:Generated_Source\PSoC4/cyfitter_cfg.c **** 	CY_SET_REG32((void *)(CYREG_WDT_CONFIG), 0x00000000u);
 203              		.loc 1 247 0
ARM GAS  C:\Users\jagumiel\AppData\Local\Temp\ccH5wPnt.s 			page 9


 204 0060 104B     		ldr	r3, .L8+60
 205 0062 1D60     		str	r5, [r3]
 248:Generated_Source\PSoC4/cyfitter_cfg.c **** }
 206              		.loc 1 248 0
 207              		@ sp needed
 208 0064 70BD     		pop	{r4, r5, r6, pc}
 209              	.L9:
 210 0066 C046     		.align	2
 211              	.L8:
 212 0068 00010B40 		.word	1074462976
 213 006c FFFFFBFF 		.word	-262145
 214 0070 06000080 		.word	-2147483642
 215 0074 04010B40 		.word	1074462980
 216 0078 14020240 		.word	1073873428
 217 007c 18020240 		.word	1073873432
 218 0080 30020240 		.word	1073873456
 219 0084 08010B40 		.word	1074462984
 220 0088 FE000080 		.word	-2147483394
 221 008c 00000240 		.word	1073872896
 222 0090 FE0000C0 		.word	-1073741570
 223 0094 40000240 		.word	1073872960
 224 0098 DF010080 		.word	-2147483169
 225 009c 80000240 		.word	1073873024
 226 00a0 00000000 		.word	CySysWdtIsr
 227 00a4 0C020B40 		.word	1074463244
 228              		.cfi_endproc
 229              	.LFE4:
 230              		.size	ClockSetup, .-ClockSetup
 231              		.section	.text.SetAnalogRoutingPumps,"ax",%progbits
 232              		.align	2
 233              		.global	SetAnalogRoutingPumps
 234              		.code	16
 235              		.thumb_func
 236              		.type	SetAnalogRoutingPumps, %function
 237              	SetAnalogRoutingPumps:
 238              	.LFB6:
 249:Generated_Source\PSoC4/cyfitter_cfg.c **** 
 250:Generated_Source\PSoC4/cyfitter_cfg.c **** 
 251:Generated_Source\PSoC4/cyfitter_cfg.c **** /* Analog API Functions */
 252:Generated_Source\PSoC4/cyfitter_cfg.c **** 
 253:Generated_Source\PSoC4/cyfitter_cfg.c **** 
 254:Generated_Source\PSoC4/cyfitter_cfg.c **** /*******************************************************************************
 255:Generated_Source\PSoC4/cyfitter_cfg.c **** * Function Name: AnalogSetDefault
 256:Generated_Source\PSoC4/cyfitter_cfg.c **** ********************************************************************************
 257:Generated_Source\PSoC4/cyfitter_cfg.c **** *
 258:Generated_Source\PSoC4/cyfitter_cfg.c **** * Summary:
 259:Generated_Source\PSoC4/cyfitter_cfg.c **** *  Sets up the analog portions of the chip to default values based on chip
 260:Generated_Source\PSoC4/cyfitter_cfg.c **** *  configuration options from the project.
 261:Generated_Source\PSoC4/cyfitter_cfg.c **** *
 262:Generated_Source\PSoC4/cyfitter_cfg.c **** * Parameters:
 263:Generated_Source\PSoC4/cyfitter_cfg.c **** *  void
 264:Generated_Source\PSoC4/cyfitter_cfg.c **** *
 265:Generated_Source\PSoC4/cyfitter_cfg.c **** * Return:
 266:Generated_Source\PSoC4/cyfitter_cfg.c **** *  void
 267:Generated_Source\PSoC4/cyfitter_cfg.c **** *
 268:Generated_Source\PSoC4/cyfitter_cfg.c **** *******************************************************************************/
 269:Generated_Source\PSoC4/cyfitter_cfg.c **** static void AnalogSetDefault(void);
ARM GAS  C:\Users\jagumiel\AppData\Local\Temp\ccH5wPnt.s 			page 10


 270:Generated_Source\PSoC4/cyfitter_cfg.c **** static void AnalogSetDefault(void)
 271:Generated_Source\PSoC4/cyfitter_cfg.c **** {
 272:Generated_Source\PSoC4/cyfitter_cfg.c **** 	SetAnalogRoutingPumps(1);
 273:Generated_Source\PSoC4/cyfitter_cfg.c **** }
 274:Generated_Source\PSoC4/cyfitter_cfg.c **** 
 275:Generated_Source\PSoC4/cyfitter_cfg.c **** 
 276:Generated_Source\PSoC4/cyfitter_cfg.c **** /*******************************************************************************
 277:Generated_Source\PSoC4/cyfitter_cfg.c **** * Function Name: SetAnalogRoutingPumps
 278:Generated_Source\PSoC4/cyfitter_cfg.c **** ********************************************************************************
 279:Generated_Source\PSoC4/cyfitter_cfg.c **** *
 280:Generated_Source\PSoC4/cyfitter_cfg.c **** * Summary:
 281:Generated_Source\PSoC4/cyfitter_cfg.c **** * Enables or disables the analog pumps feeding analog routing switches.
 282:Generated_Source\PSoC4/cyfitter_cfg.c **** * Intended to be called at startup, based on the Vdda system configuration;
 283:Generated_Source\PSoC4/cyfitter_cfg.c **** * may be called during operation when the user informs us that the Vdda voltage crossed the pump th
 284:Generated_Source\PSoC4/cyfitter_cfg.c **** *
 285:Generated_Source\PSoC4/cyfitter_cfg.c **** * Parameters:
 286:Generated_Source\PSoC4/cyfitter_cfg.c **** *  enabled - 1 to enable the pumps, 0 to disable the pumps
 287:Generated_Source\PSoC4/cyfitter_cfg.c **** *
 288:Generated_Source\PSoC4/cyfitter_cfg.c **** * Return:
 289:Generated_Source\PSoC4/cyfitter_cfg.c **** *  void
 290:Generated_Source\PSoC4/cyfitter_cfg.c **** *
 291:Generated_Source\PSoC4/cyfitter_cfg.c **** *******************************************************************************/
 292:Generated_Source\PSoC4/cyfitter_cfg.c **** void SetAnalogRoutingPumps(uint8 enabled)
 293:Generated_Source\PSoC4/cyfitter_cfg.c **** {
 239              		.loc 1 293 0
 240              		.cfi_startproc
 241              		@ args = 0, pretend = 0, frame = 0
 242              		@ frame_needed = 0, uses_anonymous_args = 0
 243              		@ link register save eliminated.
 244              	.LVL18:
 294:Generated_Source\PSoC4/cyfitter_cfg.c **** 	uint32 regValue = CY_GET_XTND_REG32((void *)(CYREG_SAR_PUMP_CTRL));
 245              		.loc 1 294 0
 246 0000 0C4B     		ldr	r3, .L15
 247 0002 1B68     		ldr	r3, [r3]
 248              	.LVL19:
 295:Generated_Source\PSoC4/cyfitter_cfg.c **** 	if (enabled != 0u)
 249              		.loc 1 295 0
 250 0004 0028     		cmp	r0, #0
 251 0006 03D0     		beq	.L11
 296:Generated_Source\PSoC4/cyfitter_cfg.c **** 	{
 297:Generated_Source\PSoC4/cyfitter_cfg.c **** 		regValue |= 0x80000000u;
 252              		.loc 1 297 0
 253 0008 8022     		movs	r2, #128
 254 000a 1206     		lsls	r2, r2, #24
 255 000c 1343     		orrs	r3, r2
 256              	.LVL20:
 257 000e 01E0     		b	.L12
 258              	.L11:
 298:Generated_Source\PSoC4/cyfitter_cfg.c **** 	}
 299:Generated_Source\PSoC4/cyfitter_cfg.c **** 	else
 300:Generated_Source\PSoC4/cyfitter_cfg.c **** 	{
 301:Generated_Source\PSoC4/cyfitter_cfg.c **** 		regValue &= ~0x80000000u;
 259              		.loc 1 301 0
 260 0010 5B00     		lsls	r3, r3, #1
 261              	.LVL21:
 262 0012 5B08     		lsrs	r3, r3, #1
 263              	.LVL22:
ARM GAS  C:\Users\jagumiel\AppData\Local\Temp\ccH5wPnt.s 			page 11


 264              	.L12:
 302:Generated_Source\PSoC4/cyfitter_cfg.c **** 	}
 303:Generated_Source\PSoC4/cyfitter_cfg.c **** 	CY_SET_XTND_REG32((void *)(CYREG_SAR_PUMP_CTRL), regValue);
 265              		.loc 1 303 0
 266 0014 074A     		ldr	r2, .L15
 267 0016 1360     		str	r3, [r2]
 304:Generated_Source\PSoC4/cyfitter_cfg.c **** 	regValue = CY_GET_XTND_REG32((void *)(CYREG_CLK_IMO_CONFIG));
 268              		.loc 1 304 0
 269 0018 074B     		ldr	r3, .L15+4
 270              	.LVL23:
 271 001a 1B68     		ldr	r3, [r3]
 272              	.LVL24:
 305:Generated_Source\PSoC4/cyfitter_cfg.c **** 	if (enabled != 0u)
 273              		.loc 1 305 0
 274 001c 0028     		cmp	r0, #0
 275 001e 03D0     		beq	.L13
 306:Generated_Source\PSoC4/cyfitter_cfg.c **** 	{
 307:Generated_Source\PSoC4/cyfitter_cfg.c **** 		regValue |= 0x02000000u;
 276              		.loc 1 307 0
 277 0020 8022     		movs	r2, #128
 278 0022 9204     		lsls	r2, r2, #18
 279 0024 1343     		orrs	r3, r2
 280              	.LVL25:
 281 0026 01E0     		b	.L14
 282              	.L13:
 308:Generated_Source\PSoC4/cyfitter_cfg.c **** 	}
 309:Generated_Source\PSoC4/cyfitter_cfg.c **** 	else
 310:Generated_Source\PSoC4/cyfitter_cfg.c **** 	{
 311:Generated_Source\PSoC4/cyfitter_cfg.c **** 		regValue &= ~0x02000000u;
 283              		.loc 1 311 0
 284 0028 044A     		ldr	r2, .L15+8
 285 002a 1340     		ands	r3, r2
 286              	.LVL26:
 287              	.L14:
 312:Generated_Source\PSoC4/cyfitter_cfg.c **** 	}
 313:Generated_Source\PSoC4/cyfitter_cfg.c **** 	CY_SET_XTND_REG32((void *)(CYREG_CLK_IMO_CONFIG), regValue);
 288              		.loc 1 313 0
 289 002c 024A     		ldr	r2, .L15+4
 290 002e 1360     		str	r3, [r2]
 314:Generated_Source\PSoC4/cyfitter_cfg.c **** }
 291              		.loc 1 314 0
 292              		@ sp needed
 293 0030 7047     		bx	lr
 294              	.L16:
 295 0032 C046     		.align	2
 296              	.L15:
 297 0034 80031A40 		.word	1075446656
 298 0038 08010B40 		.word	1074462984
 299 003c FFFFFFFD 		.word	-33554433
 300              		.cfi_endproc
 301              	.LFE6:
 302              		.size	SetAnalogRoutingPumps, .-SetAnalogRoutingPumps
 303              		.section	.text.AnalogSetDefault,"ax",%progbits
 304              		.align	2
 305              		.code	16
 306              		.thumb_func
 307              		.type	AnalogSetDefault, %function
ARM GAS  C:\Users\jagumiel\AppData\Local\Temp\ccH5wPnt.s 			page 12


 308              	AnalogSetDefault:
 309              	.LFB5:
 271:Generated_Source\PSoC4/cyfitter_cfg.c **** 	SetAnalogRoutingPumps(1);
 310              		.loc 1 271 0
 311              		.cfi_startproc
 312              		@ args = 0, pretend = 0, frame = 0
 313              		@ frame_needed = 0, uses_anonymous_args = 0
 314 0000 10B5     		push	{r4, lr}
 315              		.cfi_def_cfa_offset 8
 316              		.cfi_offset 4, -8
 317              		.cfi_offset 14, -4
 272:Generated_Source\PSoC4/cyfitter_cfg.c **** }
 318              		.loc 1 272 0
 319 0002 0120     		movs	r0, #1
 320 0004 FFF7FEFF 		bl	SetAnalogRoutingPumps
 321              	.LVL27:
 273:Generated_Source\PSoC4/cyfitter_cfg.c **** 
 322              		.loc 1 273 0
 323              		@ sp needed
 324 0008 10BD     		pop	{r4, pc}
 325              		.cfi_endproc
 326              	.LFE5:
 327              		.size	AnalogSetDefault, .-AnalogSetDefault
 328              		.section	.psocinit
 329              		.align	2
 330              		.global	cyfitter_cfg
 331              		.code	16
 332              		.thumb_func
 333              		.type	cyfitter_cfg, %function
 334              	cyfitter_cfg:
 335              	.LFB7:
 315:Generated_Source\PSoC4/cyfitter_cfg.c **** 
 316:Generated_Source\PSoC4/cyfitter_cfg.c **** 
 317:Generated_Source\PSoC4/cyfitter_cfg.c **** 
 318:Generated_Source\PSoC4/cyfitter_cfg.c **** 
 319:Generated_Source\PSoC4/cyfitter_cfg.c **** /*******************************************************************************
 320:Generated_Source\PSoC4/cyfitter_cfg.c **** * Function Name: cyfitter_cfg
 321:Generated_Source\PSoC4/cyfitter_cfg.c **** ********************************************************************************
 322:Generated_Source\PSoC4/cyfitter_cfg.c **** * Summary:
 323:Generated_Source\PSoC4/cyfitter_cfg.c **** *  This function is called by the start-up code for the selected device. It
 324:Generated_Source\PSoC4/cyfitter_cfg.c **** *  performs all of the necessary device configuration based on the design
 325:Generated_Source\PSoC4/cyfitter_cfg.c **** *  settings.  This includes settings from the Design Wide Resources (DWR) such
 326:Generated_Source\PSoC4/cyfitter_cfg.c **** *  as Clocks and Pins as well as any component configuration that is necessary.
 327:Generated_Source\PSoC4/cyfitter_cfg.c **** *
 328:Generated_Source\PSoC4/cyfitter_cfg.c **** * Parameters:
 329:Generated_Source\PSoC4/cyfitter_cfg.c **** *   void
 330:Generated_Source\PSoC4/cyfitter_cfg.c **** *
 331:Generated_Source\PSoC4/cyfitter_cfg.c **** * Return:
 332:Generated_Source\PSoC4/cyfitter_cfg.c **** *   void
 333:Generated_Source\PSoC4/cyfitter_cfg.c **** *
 334:Generated_Source\PSoC4/cyfitter_cfg.c **** *******************************************************************************/
 335:Generated_Source\PSoC4/cyfitter_cfg.c **** CY_CFG_SECTION
 336:Generated_Source\PSoC4/cyfitter_cfg.c **** void cyfitter_cfg(void)
 337:Generated_Source\PSoC4/cyfitter_cfg.c **** {
 336              		.loc 1 337 0
 337              		.cfi_startproc
 338              		@ args = 0, pretend = 0, frame = 0
ARM GAS  C:\Users\jagumiel\AppData\Local\Temp\ccH5wPnt.s 			page 13


 339              		@ frame_needed = 0, uses_anonymous_args = 0
 340 00a8 10B5     		push	{r4, lr}
 341              		.cfi_def_cfa_offset 8
 342              		.cfi_offset 4, -8
 343              		.cfi_offset 14, -4
 338:Generated_Source\PSoC4/cyfitter_cfg.c **** 	/* Disable interrupts by default. Let user enable if/when they want. */
 339:Generated_Source\PSoC4/cyfitter_cfg.c **** 	CyGlobalIntDisable;
 344              		.loc 1 339 0
 345              		.syntax divided
 346              	@ 339 "Generated_Source\PSoC4\cyfitter_cfg.c" 1
 347 00aa 72B6     		CPSID   i
 348              	@ 0 "" 2
 349              	.LVL28:
 350              		.thumb
 351              		.syntax unified
 352              	.LBB3:
 340:Generated_Source\PSoC4/cyfitter_cfg.c **** 
 341:Generated_Source\PSoC4/cyfitter_cfg.c **** 	{
 342:Generated_Source\PSoC4/cyfitter_cfg.c **** 		static const uint32 CYCODE cy_cfg_addr_table[] = {
 343:Generated_Source\PSoC4/cyfitter_cfg.c **** 			0x400F0004u, /* Base address: 0x400F0000 Count: 4 */
 344:Generated_Source\PSoC4/cyfitter_cfg.c **** 			0x400F3057u, /* Base address: 0x400F3000 Count: 87 */
 345:Generated_Source\PSoC4/cyfitter_cfg.c **** 			0x400F312Eu, /* Base address: 0x400F3100 Count: 46 */
 346:Generated_Source\PSoC4/cyfitter_cfg.c **** 			0x400F3258u, /* Base address: 0x400F3200 Count: 88 */
 347:Generated_Source\PSoC4/cyfitter_cfg.c **** 			0x400F3333u, /* Base address: 0x400F3300 Count: 51 */
 348:Generated_Source\PSoC4/cyfitter_cfg.c **** 			0x400F4007u, /* Base address: 0x400F4000 Count: 7 */
 349:Generated_Source\PSoC4/cyfitter_cfg.c **** 			0x400F4103u, /* Base address: 0x400F4100 Count: 3 */
 350:Generated_Source\PSoC4/cyfitter_cfg.c **** 			0x400F4203u, /* Base address: 0x400F4200 Count: 3 */
 351:Generated_Source\PSoC4/cyfitter_cfg.c **** 			0x400F4307u, /* Base address: 0x400F4300 Count: 7 */
 352:Generated_Source\PSoC4/cyfitter_cfg.c **** 			0x400F6002u, /* Base address: 0x400F6000 Count: 2 */
 353:Generated_Source\PSoC4/cyfitter_cfg.c **** 		};
 354:Generated_Source\PSoC4/cyfitter_cfg.c **** 
 355:Generated_Source\PSoC4/cyfitter_cfg.c **** 		static const cy_cfg_addrvalue_t CYCODE cy_cfg_data_table[] = {
 356:Generated_Source\PSoC4/cyfitter_cfg.c **** 			{0x80u, 0x0Du},
 357:Generated_Source\PSoC4/cyfitter_cfg.c **** 			{0x81u, 0x0Du},
 358:Generated_Source\PSoC4/cyfitter_cfg.c **** 			{0x82u, 0x0Du},
 359:Generated_Source\PSoC4/cyfitter_cfg.c **** 			{0x83u, 0x0Du},
 360:Generated_Source\PSoC4/cyfitter_cfg.c **** 			{0x06u, 0x03u},
 361:Generated_Source\PSoC4/cyfitter_cfg.c **** 			{0x07u, 0x01u},
 362:Generated_Source\PSoC4/cyfitter_cfg.c **** 			{0x12u, 0x20u},
 363:Generated_Source\PSoC4/cyfitter_cfg.c **** 			{0x13u, 0x01u},
 364:Generated_Source\PSoC4/cyfitter_cfg.c **** 			{0x14u, 0x18u},
 365:Generated_Source\PSoC4/cyfitter_cfg.c **** 			{0x24u, 0x04u},
 366:Generated_Source\PSoC4/cyfitter_cfg.c **** 			{0x26u, 0x12u},
 367:Generated_Source\PSoC4/cyfitter_cfg.c **** 			{0x28u, 0x04u},
 368:Generated_Source\PSoC4/cyfitter_cfg.c **** 			{0x2Au, 0x09u},
 369:Generated_Source\PSoC4/cyfitter_cfg.c **** 			{0x30u, 0x03u},
 370:Generated_Source\PSoC4/cyfitter_cfg.c **** 			{0x32u, 0x04u},
 371:Generated_Source\PSoC4/cyfitter_cfg.c **** 			{0x33u, 0x01u},
 372:Generated_Source\PSoC4/cyfitter_cfg.c **** 			{0x34u, 0x20u},
 373:Generated_Source\PSoC4/cyfitter_cfg.c **** 			{0x36u, 0x18u},
 374:Generated_Source\PSoC4/cyfitter_cfg.c **** 			{0x38u, 0x08u},
 375:Generated_Source\PSoC4/cyfitter_cfg.c **** 			{0x3Fu, 0x04u},
 376:Generated_Source\PSoC4/cyfitter_cfg.c **** 			{0x40u, 0x20u},
 377:Generated_Source\PSoC4/cyfitter_cfg.c **** 			{0x41u, 0x05u},
 378:Generated_Source\PSoC4/cyfitter_cfg.c **** 			{0x45u, 0xD1u},
 379:Generated_Source\PSoC4/cyfitter_cfg.c **** 			{0x47u, 0x20u},
 380:Generated_Source\PSoC4/cyfitter_cfg.c **** 			{0x48u, 0x33u},
ARM GAS  C:\Users\jagumiel\AppData\Local\Temp\ccH5wPnt.s 			page 14


 381:Generated_Source\PSoC4/cyfitter_cfg.c **** 			{0x49u, 0xFFu},
 382:Generated_Source\PSoC4/cyfitter_cfg.c **** 			{0x4Au, 0xFFu},
 383:Generated_Source\PSoC4/cyfitter_cfg.c **** 			{0x4Bu, 0xFFu},
 384:Generated_Source\PSoC4/cyfitter_cfg.c **** 			{0x4Du, 0xA0u},
 385:Generated_Source\PSoC4/cyfitter_cfg.c **** 			{0x4Fu, 0x04u},
 386:Generated_Source\PSoC4/cyfitter_cfg.c **** 			{0x50u, 0x18u},
 387:Generated_Source\PSoC4/cyfitter_cfg.c **** 			{0x52u, 0x80u},
 388:Generated_Source\PSoC4/cyfitter_cfg.c **** 			{0x54u, 0x05u},
 389:Generated_Source\PSoC4/cyfitter_cfg.c **** 			{0x58u, 0x04u},
 390:Generated_Source\PSoC4/cyfitter_cfg.c **** 			{0x59u, 0x04u},
 391:Generated_Source\PSoC4/cyfitter_cfg.c **** 			{0x5Au, 0x04u},
 392:Generated_Source\PSoC4/cyfitter_cfg.c **** 			{0x5Bu, 0x04u},
 393:Generated_Source\PSoC4/cyfitter_cfg.c **** 			{0x5Fu, 0x01u},
 394:Generated_Source\PSoC4/cyfitter_cfg.c **** 			{0x60u, 0x40u},
 395:Generated_Source\PSoC4/cyfitter_cfg.c **** 			{0x62u, 0xC0u},
 396:Generated_Source\PSoC4/cyfitter_cfg.c **** 			{0x64u, 0x40u},
 397:Generated_Source\PSoC4/cyfitter_cfg.c **** 			{0x65u, 0x40u},
 398:Generated_Source\PSoC4/cyfitter_cfg.c **** 			{0x66u, 0xC0u},
 399:Generated_Source\PSoC4/cyfitter_cfg.c **** 			{0x68u, 0xC0u},
 400:Generated_Source\PSoC4/cyfitter_cfg.c **** 			{0x6Au, 0xC0u},
 401:Generated_Source\PSoC4/cyfitter_cfg.c **** 			{0x6Cu, 0xC0u},
 402:Generated_Source\PSoC4/cyfitter_cfg.c **** 			{0x6Eu, 0xC0u},
 403:Generated_Source\PSoC4/cyfitter_cfg.c **** 			{0x8Au, 0x03u},
 404:Generated_Source\PSoC4/cyfitter_cfg.c **** 			{0x8Fu, 0x01u},
 405:Generated_Source\PSoC4/cyfitter_cfg.c **** 			{0x94u, 0x18u},
 406:Generated_Source\PSoC4/cyfitter_cfg.c **** 			{0x9Cu, 0x04u},
 407:Generated_Source\PSoC4/cyfitter_cfg.c **** 			{0x9Eu, 0x12u},
 408:Generated_Source\PSoC4/cyfitter_cfg.c **** 			{0xA4u, 0x04u},
 409:Generated_Source\PSoC4/cyfitter_cfg.c **** 			{0xA6u, 0x09u},
 410:Generated_Source\PSoC4/cyfitter_cfg.c **** 			{0xA7u, 0x01u},
 411:Generated_Source\PSoC4/cyfitter_cfg.c **** 			{0xAEu, 0x20u},
 412:Generated_Source\PSoC4/cyfitter_cfg.c **** 			{0xB0u, 0x18u},
 413:Generated_Source\PSoC4/cyfitter_cfg.c **** 			{0xB2u, 0x04u},
 414:Generated_Source\PSoC4/cyfitter_cfg.c **** 			{0xB4u, 0x20u},
 415:Generated_Source\PSoC4/cyfitter_cfg.c **** 			{0xB5u, 0x01u},
 416:Generated_Source\PSoC4/cyfitter_cfg.c **** 			{0xB6u, 0x03u},
 417:Generated_Source\PSoC4/cyfitter_cfg.c **** 			{0xB8u, 0x08u},
 418:Generated_Source\PSoC4/cyfitter_cfg.c **** 			{0xBFu, 0x10u},
 419:Generated_Source\PSoC4/cyfitter_cfg.c **** 			{0xC0u, 0x20u},
 420:Generated_Source\PSoC4/cyfitter_cfg.c **** 			{0xC1u, 0x05u},
 421:Generated_Source\PSoC4/cyfitter_cfg.c **** 			{0xC5u, 0xD0u},
 422:Generated_Source\PSoC4/cyfitter_cfg.c **** 			{0xC6u, 0x02u},
 423:Generated_Source\PSoC4/cyfitter_cfg.c **** 			{0xC7u, 0x10u},
 424:Generated_Source\PSoC4/cyfitter_cfg.c **** 			{0xC8u, 0x2Eu},
 425:Generated_Source\PSoC4/cyfitter_cfg.c **** 			{0xC9u, 0xFFu},
 426:Generated_Source\PSoC4/cyfitter_cfg.c **** 			{0xCAu, 0xFFu},
 427:Generated_Source\PSoC4/cyfitter_cfg.c **** 			{0xCBu, 0xFFu},
 428:Generated_Source\PSoC4/cyfitter_cfg.c **** 			{0xCDu, 0xA0u},
 429:Generated_Source\PSoC4/cyfitter_cfg.c **** 			{0xCFu, 0x04u},
 430:Generated_Source\PSoC4/cyfitter_cfg.c **** 			{0xD0u, 0x18u},
 431:Generated_Source\PSoC4/cyfitter_cfg.c **** 			{0xD2u, 0x80u},
 432:Generated_Source\PSoC4/cyfitter_cfg.c **** 			{0xD4u, 0x05u},
 433:Generated_Source\PSoC4/cyfitter_cfg.c **** 			{0xD8u, 0x04u},
 434:Generated_Source\PSoC4/cyfitter_cfg.c **** 			{0xD9u, 0x04u},
 435:Generated_Source\PSoC4/cyfitter_cfg.c **** 			{0xDAu, 0x04u},
 436:Generated_Source\PSoC4/cyfitter_cfg.c **** 			{0xDBu, 0x04u},
 437:Generated_Source\PSoC4/cyfitter_cfg.c **** 			{0xDFu, 0x01u},
ARM GAS  C:\Users\jagumiel\AppData\Local\Temp\ccH5wPnt.s 			page 15


 438:Generated_Source\PSoC4/cyfitter_cfg.c **** 			{0xE0u, 0x40u},
 439:Generated_Source\PSoC4/cyfitter_cfg.c **** 			{0xE2u, 0xC0u},
 440:Generated_Source\PSoC4/cyfitter_cfg.c **** 			{0xE4u, 0x40u},
 441:Generated_Source\PSoC4/cyfitter_cfg.c **** 			{0xE5u, 0x40u},
 442:Generated_Source\PSoC4/cyfitter_cfg.c **** 			{0xE6u, 0xC0u},
 443:Generated_Source\PSoC4/cyfitter_cfg.c **** 			{0xE8u, 0xC0u},
 444:Generated_Source\PSoC4/cyfitter_cfg.c **** 			{0xEAu, 0xC0u},
 445:Generated_Source\PSoC4/cyfitter_cfg.c **** 			{0xECu, 0xC0u},
 446:Generated_Source\PSoC4/cyfitter_cfg.c **** 			{0xEEu, 0xC0u},
 447:Generated_Source\PSoC4/cyfitter_cfg.c **** 			{0x00u, 0x04u},
 448:Generated_Source\PSoC4/cyfitter_cfg.c **** 			{0x05u, 0x10u},
 449:Generated_Source\PSoC4/cyfitter_cfg.c **** 			{0x09u, 0x02u},
 450:Generated_Source\PSoC4/cyfitter_cfg.c **** 			{0x0Au, 0x10u},
 451:Generated_Source\PSoC4/cyfitter_cfg.c **** 			{0x0Eu, 0x20u},
 452:Generated_Source\PSoC4/cyfitter_cfg.c **** 			{0x0Fu, 0x02u},
 453:Generated_Source\PSoC4/cyfitter_cfg.c **** 			{0x10u, 0x28u},
 454:Generated_Source\PSoC4/cyfitter_cfg.c **** 			{0x16u, 0x20u},
 455:Generated_Source\PSoC4/cyfitter_cfg.c **** 			{0x17u, 0x80u},
 456:Generated_Source\PSoC4/cyfitter_cfg.c **** 			{0x18u, 0x04u},
 457:Generated_Source\PSoC4/cyfitter_cfg.c **** 			{0x19u, 0x40u},
 458:Generated_Source\PSoC4/cyfitter_cfg.c **** 			{0x1Au, 0x10u},
 459:Generated_Source\PSoC4/cyfitter_cfg.c **** 			{0x1Bu, 0x02u},
 460:Generated_Source\PSoC4/cyfitter_cfg.c **** 			{0x1Du, 0x30u},
 461:Generated_Source\PSoC4/cyfitter_cfg.c **** 			{0x1Eu, 0x60u},
 462:Generated_Source\PSoC4/cyfitter_cfg.c **** 			{0x1Fu, 0x60u},
 463:Generated_Source\PSoC4/cyfitter_cfg.c **** 			{0x22u, 0x04u},
 464:Generated_Source\PSoC4/cyfitter_cfg.c **** 			{0x27u, 0x08u},
 465:Generated_Source\PSoC4/cyfitter_cfg.c **** 			{0x2Fu, 0x20u},
 466:Generated_Source\PSoC4/cyfitter_cfg.c **** 			{0x30u, 0x02u},
 467:Generated_Source\PSoC4/cyfitter_cfg.c **** 			{0x38u, 0x04u},
 468:Generated_Source\PSoC4/cyfitter_cfg.c **** 			{0x3Fu, 0x80u},
 469:Generated_Source\PSoC4/cyfitter_cfg.c **** 			{0x40u, 0x04u},
 470:Generated_Source\PSoC4/cyfitter_cfg.c **** 			{0x45u, 0x20u},
 471:Generated_Source\PSoC4/cyfitter_cfg.c **** 			{0x48u, 0x22u},
 472:Generated_Source\PSoC4/cyfitter_cfg.c **** 			{0x49u, 0x01u},
 473:Generated_Source\PSoC4/cyfitter_cfg.c **** 			{0x4Fu, 0x81u},
 474:Generated_Source\PSoC4/cyfitter_cfg.c **** 			{0x50u, 0x0Au},
 475:Generated_Source\PSoC4/cyfitter_cfg.c **** 			{0x56u, 0x20u},
 476:Generated_Source\PSoC4/cyfitter_cfg.c **** 			{0x57u, 0x41u},
 477:Generated_Source\PSoC4/cyfitter_cfg.c **** 			{0x59u, 0x41u},
 478:Generated_Source\PSoC4/cyfitter_cfg.c **** 			{0x5Au, 0x08u},
 479:Generated_Source\PSoC4/cyfitter_cfg.c **** 			{0x5Eu, 0x40u},
 480:Generated_Source\PSoC4/cyfitter_cfg.c **** 			{0x5Fu, 0x09u},
 481:Generated_Source\PSoC4/cyfitter_cfg.c **** 			{0x71u, 0x02u},
 482:Generated_Source\PSoC4/cyfitter_cfg.c **** 			{0x77u, 0x80u},
 483:Generated_Source\PSoC4/cyfitter_cfg.c **** 			{0x87u, 0x02u},
 484:Generated_Source\PSoC4/cyfitter_cfg.c **** 			{0xC0u, 0x44u},
 485:Generated_Source\PSoC4/cyfitter_cfg.c **** 			{0xC2u, 0xACu},
 486:Generated_Source\PSoC4/cyfitter_cfg.c **** 			{0xC4u, 0xA6u},
 487:Generated_Source\PSoC4/cyfitter_cfg.c **** 			{0xCAu, 0x40u},
 488:Generated_Source\PSoC4/cyfitter_cfg.c **** 			{0xCCu, 0x01u},
 489:Generated_Source\PSoC4/cyfitter_cfg.c **** 			{0xCEu, 0x12u},
 490:Generated_Source\PSoC4/cyfitter_cfg.c **** 			{0xD0u, 0x24u},
 491:Generated_Source\PSoC4/cyfitter_cfg.c **** 			{0xD2u, 0x18u},
 492:Generated_Source\PSoC4/cyfitter_cfg.c **** 			{0xD6u, 0xDBu},
 493:Generated_Source\PSoC4/cyfitter_cfg.c **** 			{0x08u, 0x18u},
 494:Generated_Source\PSoC4/cyfitter_cfg.c **** 			{0x0Fu, 0x01u},
ARM GAS  C:\Users\jagumiel\AppData\Local\Temp\ccH5wPnt.s 			page 16


 495:Generated_Source\PSoC4/cyfitter_cfg.c **** 			{0x16u, 0x03u},
 496:Generated_Source\PSoC4/cyfitter_cfg.c **** 			{0x1Cu, 0x04u},
 497:Generated_Source\PSoC4/cyfitter_cfg.c **** 			{0x1Eu, 0x12u},
 498:Generated_Source\PSoC4/cyfitter_cfg.c **** 			{0x28u, 0x04u},
 499:Generated_Source\PSoC4/cyfitter_cfg.c **** 			{0x2Au, 0x09u},
 500:Generated_Source\PSoC4/cyfitter_cfg.c **** 			{0x2Bu, 0x01u},
 501:Generated_Source\PSoC4/cyfitter_cfg.c **** 			{0x2Eu, 0x20u},
 502:Generated_Source\PSoC4/cyfitter_cfg.c **** 			{0x30u, 0x18u},
 503:Generated_Source\PSoC4/cyfitter_cfg.c **** 			{0x32u, 0x20u},
 504:Generated_Source\PSoC4/cyfitter_cfg.c **** 			{0x33u, 0x01u},
 505:Generated_Source\PSoC4/cyfitter_cfg.c **** 			{0x34u, 0x04u},
 506:Generated_Source\PSoC4/cyfitter_cfg.c **** 			{0x36u, 0x03u},
 507:Generated_Source\PSoC4/cyfitter_cfg.c **** 			{0x38u, 0x20u},
 508:Generated_Source\PSoC4/cyfitter_cfg.c **** 			{0x39u, 0x02u},
 509:Generated_Source\PSoC4/cyfitter_cfg.c **** 			{0x3Fu, 0x05u},
 510:Generated_Source\PSoC4/cyfitter_cfg.c **** 			{0x40u, 0x30u},
 511:Generated_Source\PSoC4/cyfitter_cfg.c **** 			{0x41u, 0x05u},
 512:Generated_Source\PSoC4/cyfitter_cfg.c **** 			{0x45u, 0xD0u},
 513:Generated_Source\PSoC4/cyfitter_cfg.c **** 			{0x46u, 0x02u},
 514:Generated_Source\PSoC4/cyfitter_cfg.c **** 			{0x47u, 0x10u},
 515:Generated_Source\PSoC4/cyfitter_cfg.c **** 			{0x48u, 0x36u},
 516:Generated_Source\PSoC4/cyfitter_cfg.c **** 			{0x49u, 0xFFu},
 517:Generated_Source\PSoC4/cyfitter_cfg.c **** 			{0x4Au, 0xFFu},
 518:Generated_Source\PSoC4/cyfitter_cfg.c **** 			{0x4Bu, 0xFFu},
 519:Generated_Source\PSoC4/cyfitter_cfg.c **** 			{0x4Du, 0xA0u},
 520:Generated_Source\PSoC4/cyfitter_cfg.c **** 			{0x4Fu, 0x04u},
 521:Generated_Source\PSoC4/cyfitter_cfg.c **** 			{0x50u, 0x18u},
 522:Generated_Source\PSoC4/cyfitter_cfg.c **** 			{0x52u, 0x80u},
 523:Generated_Source\PSoC4/cyfitter_cfg.c **** 			{0x54u, 0x05u},
 524:Generated_Source\PSoC4/cyfitter_cfg.c **** 			{0x58u, 0x04u},
 525:Generated_Source\PSoC4/cyfitter_cfg.c **** 			{0x59u, 0x04u},
 526:Generated_Source\PSoC4/cyfitter_cfg.c **** 			{0x5Au, 0x04u},
 527:Generated_Source\PSoC4/cyfitter_cfg.c **** 			{0x5Bu, 0x04u},
 528:Generated_Source\PSoC4/cyfitter_cfg.c **** 			{0x5Fu, 0x01u},
 529:Generated_Source\PSoC4/cyfitter_cfg.c **** 			{0x60u, 0x40u},
 530:Generated_Source\PSoC4/cyfitter_cfg.c **** 			{0x62u, 0xC0u},
 531:Generated_Source\PSoC4/cyfitter_cfg.c **** 			{0x64u, 0x40u},
 532:Generated_Source\PSoC4/cyfitter_cfg.c **** 			{0x65u, 0x40u},
 533:Generated_Source\PSoC4/cyfitter_cfg.c **** 			{0x66u, 0xC0u},
 534:Generated_Source\PSoC4/cyfitter_cfg.c **** 			{0x68u, 0xC0u},
 535:Generated_Source\PSoC4/cyfitter_cfg.c **** 			{0x6Au, 0xC0u},
 536:Generated_Source\PSoC4/cyfitter_cfg.c **** 			{0x6Cu, 0xC0u},
 537:Generated_Source\PSoC4/cyfitter_cfg.c **** 			{0x6Eu, 0xC0u},
 538:Generated_Source\PSoC4/cyfitter_cfg.c **** 			{0x86u, 0x03u},
 539:Generated_Source\PSoC4/cyfitter_cfg.c **** 			{0x87u, 0x01u},
 540:Generated_Source\PSoC4/cyfitter_cfg.c **** 			{0x92u, 0x20u},
 541:Generated_Source\PSoC4/cyfitter_cfg.c **** 			{0x97u, 0x01u},
 542:Generated_Source\PSoC4/cyfitter_cfg.c **** 			{0x9Cu, 0x18u},
 543:Generated_Source\PSoC4/cyfitter_cfg.c **** 			{0xA0u, 0x04u},
 544:Generated_Source\PSoC4/cyfitter_cfg.c **** 			{0xA2u, 0x09u},
 545:Generated_Source\PSoC4/cyfitter_cfg.c **** 			{0xA4u, 0x04u},
 546:Generated_Source\PSoC4/cyfitter_cfg.c **** 			{0xA6u, 0x12u},
 547:Generated_Source\PSoC4/cyfitter_cfg.c **** 			{0xB0u, 0x18u},
 548:Generated_Source\PSoC4/cyfitter_cfg.c **** 			{0xB2u, 0x03u},
 549:Generated_Source\PSoC4/cyfitter_cfg.c **** 			{0xB3u, 0x01u},
 550:Generated_Source\PSoC4/cyfitter_cfg.c **** 			{0xB4u, 0x20u},
 551:Generated_Source\PSoC4/cyfitter_cfg.c **** 			{0xB6u, 0x04u},
ARM GAS  C:\Users\jagumiel\AppData\Local\Temp\ccH5wPnt.s 			page 17


 552:Generated_Source\PSoC4/cyfitter_cfg.c **** 			{0xB8u, 0x80u},
 553:Generated_Source\PSoC4/cyfitter_cfg.c **** 			{0xBFu, 0x04u},
 554:Generated_Source\PSoC4/cyfitter_cfg.c **** 			{0xC0u, 0x20u},
 555:Generated_Source\PSoC4/cyfitter_cfg.c **** 			{0xC1u, 0x06u},
 556:Generated_Source\PSoC4/cyfitter_cfg.c **** 			{0xC5u, 0xD1u},
 557:Generated_Source\PSoC4/cyfitter_cfg.c **** 			{0xC7u, 0x02u},
 558:Generated_Source\PSoC4/cyfitter_cfg.c **** 			{0xC8u, 0x17u},
 559:Generated_Source\PSoC4/cyfitter_cfg.c **** 			{0xC9u, 0xFFu},
 560:Generated_Source\PSoC4/cyfitter_cfg.c **** 			{0xCAu, 0xFFu},
 561:Generated_Source\PSoC4/cyfitter_cfg.c **** 			{0xCBu, 0xFFu},
 562:Generated_Source\PSoC4/cyfitter_cfg.c **** 			{0xCDu, 0xA0u},
 563:Generated_Source\PSoC4/cyfitter_cfg.c **** 			{0xCFu, 0x04u},
 564:Generated_Source\PSoC4/cyfitter_cfg.c **** 			{0xD0u, 0x18u},
 565:Generated_Source\PSoC4/cyfitter_cfg.c **** 			{0xD2u, 0x80u},
 566:Generated_Source\PSoC4/cyfitter_cfg.c **** 			{0xD4u, 0x05u},
 567:Generated_Source\PSoC4/cyfitter_cfg.c **** 			{0xD8u, 0x04u},
 568:Generated_Source\PSoC4/cyfitter_cfg.c **** 			{0xD9u, 0x04u},
 569:Generated_Source\PSoC4/cyfitter_cfg.c **** 			{0xDAu, 0x04u},
 570:Generated_Source\PSoC4/cyfitter_cfg.c **** 			{0xDBu, 0x04u},
 571:Generated_Source\PSoC4/cyfitter_cfg.c **** 			{0xDFu, 0x01u},
 572:Generated_Source\PSoC4/cyfitter_cfg.c **** 			{0xE0u, 0x40u},
 573:Generated_Source\PSoC4/cyfitter_cfg.c **** 			{0xE2u, 0xC0u},
 574:Generated_Source\PSoC4/cyfitter_cfg.c **** 			{0xE4u, 0x40u},
 575:Generated_Source\PSoC4/cyfitter_cfg.c **** 			{0xE5u, 0x40u},
 576:Generated_Source\PSoC4/cyfitter_cfg.c **** 			{0xE6u, 0xC0u},
 577:Generated_Source\PSoC4/cyfitter_cfg.c **** 			{0xE8u, 0xC0u},
 578:Generated_Source\PSoC4/cyfitter_cfg.c **** 			{0xEAu, 0xC0u},
 579:Generated_Source\PSoC4/cyfitter_cfg.c **** 			{0xECu, 0xC0u},
 580:Generated_Source\PSoC4/cyfitter_cfg.c **** 			{0xEEu, 0xC0u},
 581:Generated_Source\PSoC4/cyfitter_cfg.c **** 			{0x00u, 0x04u},
 582:Generated_Source\PSoC4/cyfitter_cfg.c **** 			{0x05u, 0x10u},
 583:Generated_Source\PSoC4/cyfitter_cfg.c **** 			{0x09u, 0x02u},
 584:Generated_Source\PSoC4/cyfitter_cfg.c **** 			{0x0Au, 0x01u},
 585:Generated_Source\PSoC4/cyfitter_cfg.c **** 			{0x0Du, 0x08u},
 586:Generated_Source\PSoC4/cyfitter_cfg.c **** 			{0x0Fu, 0x02u},
 587:Generated_Source\PSoC4/cyfitter_cfg.c **** 			{0x10u, 0xA0u},
 588:Generated_Source\PSoC4/cyfitter_cfg.c **** 			{0x16u, 0x08u},
 589:Generated_Source\PSoC4/cyfitter_cfg.c **** 			{0x17u, 0x80u},
 590:Generated_Source\PSoC4/cyfitter_cfg.c **** 			{0x18u, 0x04u},
 591:Generated_Source\PSoC4/cyfitter_cfg.c **** 			{0x19u, 0x08u},
 592:Generated_Source\PSoC4/cyfitter_cfg.c **** 			{0x1Au, 0x41u},
 593:Generated_Source\PSoC4/cyfitter_cfg.c **** 			{0x1Du, 0x18u},
 594:Generated_Source\PSoC4/cyfitter_cfg.c **** 			{0x1Eu, 0x82u},
 595:Generated_Source\PSoC4/cyfitter_cfg.c **** 			{0x1Fu, 0x08u},
 596:Generated_Source\PSoC4/cyfitter_cfg.c **** 			{0x22u, 0x04u},
 597:Generated_Source\PSoC4/cyfitter_cfg.c **** 			{0x25u, 0x01u},
 598:Generated_Source\PSoC4/cyfitter_cfg.c **** 			{0x26u, 0x04u},
 599:Generated_Source\PSoC4/cyfitter_cfg.c **** 			{0x2Fu, 0x08u},
 600:Generated_Source\PSoC4/cyfitter_cfg.c **** 			{0x30u, 0x08u},
 601:Generated_Source\PSoC4/cyfitter_cfg.c **** 			{0x38u, 0x04u},
 602:Generated_Source\PSoC4/cyfitter_cfg.c **** 			{0x3Fu, 0x80u},
 603:Generated_Source\PSoC4/cyfitter_cfg.c **** 			{0x40u, 0x04u},
 604:Generated_Source\PSoC4/cyfitter_cfg.c **** 			{0x45u, 0x08u},
 605:Generated_Source\PSoC4/cyfitter_cfg.c **** 			{0x48u, 0x28u},
 606:Generated_Source\PSoC4/cyfitter_cfg.c **** 			{0x49u, 0x01u},
 607:Generated_Source\PSoC4/cyfitter_cfg.c **** 			{0x4Fu, 0x81u},
 608:Generated_Source\PSoC4/cyfitter_cfg.c **** 			{0x50u, 0x88u},
ARM GAS  C:\Users\jagumiel\AppData\Local\Temp\ccH5wPnt.s 			page 18


 609:Generated_Source\PSoC4/cyfitter_cfg.c **** 			{0x56u, 0x08u},
 610:Generated_Source\PSoC4/cyfitter_cfg.c **** 			{0x57u, 0x41u},
 611:Generated_Source\PSoC4/cyfitter_cfg.c **** 			{0x59u, 0x01u},
 612:Generated_Source\PSoC4/cyfitter_cfg.c **** 			{0x5Au, 0x48u},
 613:Generated_Source\PSoC4/cyfitter_cfg.c **** 			{0x5Eu, 0x88u},
 614:Generated_Source\PSoC4/cyfitter_cfg.c **** 			{0x5Fu, 0x01u},
 615:Generated_Source\PSoC4/cyfitter_cfg.c **** 			{0x71u, 0x02u},
 616:Generated_Source\PSoC4/cyfitter_cfg.c **** 			{0x77u, 0x80u},
 617:Generated_Source\PSoC4/cyfitter_cfg.c **** 			{0x81u, 0x09u},
 618:Generated_Source\PSoC4/cyfitter_cfg.c **** 			{0xA6u, 0x01u},
 619:Generated_Source\PSoC4/cyfitter_cfg.c **** 			{0xAFu, 0x40u},
 620:Generated_Source\PSoC4/cyfitter_cfg.c **** 			{0xB6u, 0x01u},
 621:Generated_Source\PSoC4/cyfitter_cfg.c **** 			{0xC0u, 0x44u},
 622:Generated_Source\PSoC4/cyfitter_cfg.c **** 			{0xC2u, 0xA9u},
 623:Generated_Source\PSoC4/cyfitter_cfg.c **** 			{0xC4u, 0xCCu},
 624:Generated_Source\PSoC4/cyfitter_cfg.c **** 			{0xCAu, 0x20u},
 625:Generated_Source\PSoC4/cyfitter_cfg.c **** 			{0xCCu, 0x02u},
 626:Generated_Source\PSoC4/cyfitter_cfg.c **** 			{0xCEu, 0x12u},
 627:Generated_Source\PSoC4/cyfitter_cfg.c **** 			{0xD0u, 0x44u},
 628:Generated_Source\PSoC4/cyfitter_cfg.c **** 			{0xD2u, 0x14u},
 629:Generated_Source\PSoC4/cyfitter_cfg.c **** 			{0xD6u, 0xDBu},
 630:Generated_Source\PSoC4/cyfitter_cfg.c **** 			{0xE4u, 0x05u},
 631:Generated_Source\PSoC4/cyfitter_cfg.c **** 			{0xEAu, 0x10u},
 632:Generated_Source\PSoC4/cyfitter_cfg.c **** 			{0x5Fu, 0x02u},
 633:Generated_Source\PSoC4/cyfitter_cfg.c **** 			{0x61u, 0x20u},
 634:Generated_Source\PSoC4/cyfitter_cfg.c **** 			{0x67u, 0x80u},
 635:Generated_Source\PSoC4/cyfitter_cfg.c **** 			{0x87u, 0x40u},
 636:Generated_Source\PSoC4/cyfitter_cfg.c **** 			{0xD6u, 0x80u},
 637:Generated_Source\PSoC4/cyfitter_cfg.c **** 			{0xD8u, 0xC0u},
 638:Generated_Source\PSoC4/cyfitter_cfg.c **** 			{0xE2u, 0x10u},
 639:Generated_Source\PSoC4/cyfitter_cfg.c **** 			{0xADu, 0x20u},
 640:Generated_Source\PSoC4/cyfitter_cfg.c **** 			{0xB7u, 0x02u},
 641:Generated_Source\PSoC4/cyfitter_cfg.c **** 			{0xEAu, 0x10u},
 642:Generated_Source\PSoC4/cyfitter_cfg.c **** 			{0x6Eu, 0x02u},
 643:Generated_Source\PSoC4/cyfitter_cfg.c **** 			{0x7Au, 0x01u},
 644:Generated_Source\PSoC4/cyfitter_cfg.c **** 			{0xDCu, 0x03u},
 645:Generated_Source\PSoC4/cyfitter_cfg.c **** 			{0x58u, 0x02u},
 646:Generated_Source\PSoC4/cyfitter_cfg.c **** 			{0x67u, 0x02u},
 647:Generated_Source\PSoC4/cyfitter_cfg.c **** 			{0x80u, 0x02u},
 648:Generated_Source\PSoC4/cyfitter_cfg.c **** 			{0x82u, 0x01u},
 649:Generated_Source\PSoC4/cyfitter_cfg.c **** 			{0x83u, 0x01u},
 650:Generated_Source\PSoC4/cyfitter_cfg.c **** 			{0xA6u, 0x01u},
 651:Generated_Source\PSoC4/cyfitter_cfg.c **** 			{0xD6u, 0x03u},
 652:Generated_Source\PSoC4/cyfitter_cfg.c **** 			{0x01u, 0x01u},
 653:Generated_Source\PSoC4/cyfitter_cfg.c **** 			{0x10u, 0x01u},
 654:Generated_Source\PSoC4/cyfitter_cfg.c **** 		};
 655:Generated_Source\PSoC4/cyfitter_cfg.c **** 
 656:Generated_Source\PSoC4/cyfitter_cfg.c **** 
 657:Generated_Source\PSoC4/cyfitter_cfg.c **** 
 658:Generated_Source\PSoC4/cyfitter_cfg.c **** 		CYPACKED typedef struct {
 659:Generated_Source\PSoC4/cyfitter_cfg.c **** 			void CYFAR *address;
 660:Generated_Source\PSoC4/cyfitter_cfg.c **** 			uint16 size;
 661:Generated_Source\PSoC4/cyfitter_cfg.c **** 		} CYPACKED_ATTR cfg_memset_t;
 662:Generated_Source\PSoC4/cyfitter_cfg.c **** 
 663:Generated_Source\PSoC4/cyfitter_cfg.c **** 		static const cfg_memset_t CYCODE cfg_memset_list[] = {
 664:Generated_Source\PSoC4/cyfitter_cfg.c **** 			/* address, size */
 665:Generated_Source\PSoC4/cyfitter_cfg.c **** 			{(void CYFAR *)(CYDEV_UDB_P0_U0_BASE), 1024u},
ARM GAS  C:\Users\jagumiel\AppData\Local\Temp\ccH5wPnt.s 			page 19


 666:Generated_Source\PSoC4/cyfitter_cfg.c **** 			{(void CYFAR *)(CYDEV_UDB_DSI0_BASE), 1024u},
 667:Generated_Source\PSoC4/cyfitter_cfg.c **** 		};
 668:Generated_Source\PSoC4/cyfitter_cfg.c **** 
 669:Generated_Source\PSoC4/cyfitter_cfg.c **** 		uint8 CYDATA i;
 670:Generated_Source\PSoC4/cyfitter_cfg.c **** 
 671:Generated_Source\PSoC4/cyfitter_cfg.c **** 		/* Zero out critical memory blocks before beginning configuration */
 672:Generated_Source\PSoC4/cyfitter_cfg.c **** 		for (i = 0u; i < (sizeof(cfg_memset_list)/sizeof(cfg_memset_list[0])); i++)
 353              		.loc 1 672 0
 354 00ac 0024     		movs	r4, #0
 355 00ae 0FE0     		b	.L19
 356              	.LVL29:
 357              	.L20:
 358              	.LBB4:
 673:Generated_Source\PSoC4/cyfitter_cfg.c **** 		{
 674:Generated_Source\PSoC4/cyfitter_cfg.c **** 			const cfg_memset_t CYCODE * CYDATA ms = &cfg_memset_list[i];
 675:Generated_Source\PSoC4/cyfitter_cfg.c **** 			CYMEMZERO(ms->address, (size_t)(uint32)(ms->size));
 359              		.loc 1 675 0 discriminator 3
 360 00b0 2B48     		ldr	r0, .L21
 361 00b2 6200     		lsls	r2, r4, #1
 362 00b4 1319     		adds	r3, r2, r4
 363 00b6 5900     		lsls	r1, r3, #1
 364 00b8 0B00     		movs	r3, r1
 365 00ba 4118     		adds	r1, r0, r1
 366 00bc 8988     		ldrh	r1, [r1, #4]
 367 00be 1A5A     		ldrh	r2, [r3, r0]
 368 00c0 C318     		adds	r3, r0, r3
 369 00c2 5888     		ldrh	r0, [r3, #2]
 370 00c4 0004     		lsls	r0, r0, #16
 371 00c6 1043     		orrs	r0, r2
 372 00c8 FFF7FEFF 		bl	CYMEMZERO
 373              	.LVL30:
 374              	.LBE4:
 672:Generated_Source\PSoC4/cyfitter_cfg.c **** 		{
 375              		.loc 1 672 0 discriminator 3
 376 00cc 0134     		adds	r4, r4, #1
 377              	.LVL31:
 378 00ce E4B2     		uxtb	r4, r4
 379              	.LVL32:
 380              	.L19:
 672:Generated_Source\PSoC4/cyfitter_cfg.c **** 		{
 381              		.loc 1 672 0 is_stmt 0 discriminator 1
 382 00d0 012C     		cmp	r4, #1
 383 00d2 EDD9     		bls	.L20
 676:Generated_Source\PSoC4/cyfitter_cfg.c **** 		}
 677:Generated_Source\PSoC4/cyfitter_cfg.c **** 
 678:Generated_Source\PSoC4/cyfitter_cfg.c **** 		cfg_write_bytes32(cy_cfg_addr_table, cy_cfg_data_table);
 384              		.loc 1 678 0 is_stmt 1
 385 00d4 2249     		ldr	r1, .L21
 386 00d6 0C31     		adds	r1, r1, #12
 387 00d8 2248     		ldr	r0, .L21+4
 388 00da 6030     		adds	r0, r0, #96
 389 00dc FFF7FEFF 		bl	cfg_write_bytes32
 390              	.LVL33:
 679:Generated_Source\PSoC4/cyfitter_cfg.c **** 
 680:Generated_Source\PSoC4/cyfitter_cfg.c **** 		/* HSIOM Starting address: CYDEV_HSIOM_BASE */
 681:Generated_Source\PSoC4/cyfitter_cfg.c **** 		CY_SET_REG32((void *)(CYDEV_HSIOM_BASE), 0x30330000u);
 391              		.loc 1 681 0
ARM GAS  C:\Users\jagumiel\AppData\Local\Temp\ccH5wPnt.s 			page 20


 392 00e0 214A     		ldr	r2, .L21+8
 393 00e2 224B     		ldr	r3, .L21+12
 394 00e4 1A60     		str	r2, [r3]
 682:Generated_Source\PSoC4/cyfitter_cfg.c **** 		CY_SET_REG32((void *)(CYREG_HSIOM_PORT_SEL3), 0x3000EE00u);
 395              		.loc 1 682 0
 396 00e6 224A     		ldr	r2, .L21+16
 397 00e8 224B     		ldr	r3, .L21+20
 398 00ea 1A60     		str	r2, [r3]
 683:Generated_Source\PSoC4/cyfitter_cfg.c **** 
 684:Generated_Source\PSoC4/cyfitter_cfg.c **** 		/* UDB_PA_0 Starting address: CYDEV_UDB_PA0_BASE */
 685:Generated_Source\PSoC4/cyfitter_cfg.c **** 		CY_SET_REG32((void *)(CYDEV_UDB_PA0_BASE), 0x00990000u);
 399              		.loc 1 685 0
 400 00ec 9923     		movs	r3, #153
 401 00ee 1B04     		lsls	r3, r3, #16
 402 00f0 214A     		ldr	r2, .L21+24
 403 00f2 1360     		str	r3, [r2]
 686:Generated_Source\PSoC4/cyfitter_cfg.c **** 		CY_SET_REG32((void *)(CYREG_UDB_PA0_CFG8), 0x4E000000u);
 404              		.loc 1 686 0
 405 00f4 9C21     		movs	r1, #156
 406 00f6 C905     		lsls	r1, r1, #23
 407 00f8 204A     		ldr	r2, .L21+28
 408 00fa 1160     		str	r1, [r2]
 687:Generated_Source\PSoC4/cyfitter_cfg.c **** 
 688:Generated_Source\PSoC4/cyfitter_cfg.c **** 		/* UDB_PA_1 Starting address: CYDEV_UDB_PA1_BASE */
 689:Generated_Source\PSoC4/cyfitter_cfg.c **** 		CY_SET_REG32((void *)(CYDEV_UDB_PA1_BASE), 0x00990000u);
 409              		.loc 1 689 0
 410 00fc 204A     		ldr	r2, .L21+32
 411 00fe 1360     		str	r3, [r2]
 690:Generated_Source\PSoC4/cyfitter_cfg.c **** 
 691:Generated_Source\PSoC4/cyfitter_cfg.c **** 		/* UDB_PA_3 Starting address: CYDEV_UDB_PA3_BASE */
 692:Generated_Source\PSoC4/cyfitter_cfg.c **** 		CY_SET_REG32((void *)(CYDEV_UDB_PA3_BASE), 0x00990000u);
 412              		.loc 1 692 0
 413 0100 204A     		ldr	r2, .L21+36
 414 0102 1360     		str	r3, [r2]
 693:Generated_Source\PSoC4/cyfitter_cfg.c **** 		CY_SET_REG32((void *)(CYREG_UDB_PA3_CFG8), 0x40000000u);
 415              		.loc 1 693 0
 416 0104 8022     		movs	r2, #128
 417 0106 D205     		lsls	r2, r2, #23
 418 0108 1F4B     		ldr	r3, .L21+40
 419 010a 1A60     		str	r2, [r3]
 694:Generated_Source\PSoC4/cyfitter_cfg.c **** 
 695:Generated_Source\PSoC4/cyfitter_cfg.c **** 		/* Enable UDB array and digital routing */
 696:Generated_Source\PSoC4/cyfitter_cfg.c **** 		CY_SET_XTND_REG8((void *)CYREG_UDB_UDBIF_WAIT_CFG, (uint8)((CY_GET_XTND_REG8((void *)CYREG_UDB_UD
 420              		.loc 1 696 0
 421 010c 1F49     		ldr	r1, .L21+44
 422 010e 0B78     		ldrb	r3, [r1]
 423 0110 3C22     		movs	r2, #60
 424 0112 9343     		bics	r3, r2
 425 0114 1422     		movs	r2, #20
 426 0116 1343     		orrs	r3, r2
 427 0118 DBB2     		uxtb	r3, r3
 428 011a 0B70     		strb	r3, [r1]
 697:Generated_Source\PSoC4/cyfitter_cfg.c **** 		CY_SET_XTND_REG8((void *)CYREG_UDB_UDBIF_BANK_CTL, (uint8)(CY_GET_XTND_REG8((void *)CYREG_UDB_UDB
 429              		.loc 1 697 0
 430 011c 1C4A     		ldr	r2, .L21+48
 431 011e 1178     		ldrb	r1, [r2]
 432 0120 1623     		movs	r3, #22
ARM GAS  C:\Users\jagumiel\AppData\Local\Temp\ccH5wPnt.s 			page 21


 433 0122 0B43     		orrs	r3, r1
 434 0124 DBB2     		uxtb	r3, r3
 435 0126 1370     		strb	r3, [r2]
 436              	.LBE3:
 698:Generated_Source\PSoC4/cyfitter_cfg.c **** 	}
 699:Generated_Source\PSoC4/cyfitter_cfg.c **** 
 700:Generated_Source\PSoC4/cyfitter_cfg.c **** 	/* Perform second pass device configuration. These items must be configured in specific order afte
 701:Generated_Source\PSoC4/cyfitter_cfg.c **** 	/* IOPINS0_0 Starting address: CYDEV_PRT0_BASE */
 702:Generated_Source\PSoC4/cyfitter_cfg.c **** 	CY_SET_REG32((void *)(CYDEV_PRT0_BASE), 0x000000B0u);
 437              		.loc 1 702 0
 438 0128 B022     		movs	r2, #176
 439 012a 1A4B     		ldr	r3, .L21+52
 440 012c 1A60     		str	r2, [r3]
 703:Generated_Source\PSoC4/cyfitter_cfg.c **** 	CY_SET_REG32((void *)(CYREG_PRT0_PC), 0x00C36000u);
 441              		.loc 1 703 0
 442 012e 1A4A     		ldr	r2, .L21+56
 443 0130 1A4B     		ldr	r3, .L21+60
 444 0132 1A60     		str	r2, [r3]
 704:Generated_Source\PSoC4/cyfitter_cfg.c **** 
 705:Generated_Source\PSoC4/cyfitter_cfg.c **** 	/* IOPINS0_1 Starting address: CYDEV_PRT1_BASE */
 706:Generated_Source\PSoC4/cyfitter_cfg.c **** 	CY_SET_REG32((void *)(CYDEV_PRT1_BASE), 0x0000003Eu);
 445              		.loc 1 706 0
 446 0134 3E23     		movs	r3, #62
 447 0136 1A4A     		ldr	r2, .L21+64
 448 0138 1360     		str	r3, [r2]
 707:Generated_Source\PSoC4/cyfitter_cfg.c **** 	CY_SET_REG32((void *)(CYREG_PRT1_PC2), 0x0000003Eu);
 449              		.loc 1 707 0
 450 013a 1A4A     		ldr	r2, .L21+68
 451 013c 1360     		str	r3, [r2]
 708:Generated_Source\PSoC4/cyfitter_cfg.c **** 
 709:Generated_Source\PSoC4/cyfitter_cfg.c **** 	/* IOPINS0_3 Starting address: CYDEV_PRT3_BASE */
 710:Generated_Source\PSoC4/cyfitter_cfg.c **** 	CY_SET_REG32((void *)(CYDEV_PRT3_BASE), 0x00000080u);
 452              		.loc 1 710 0
 453 013e 8022     		movs	r2, #128
 454 0140 194B     		ldr	r3, .L21+72
 455 0142 1A60     		str	r2, [r3]
 711:Generated_Source\PSoC4/cyfitter_cfg.c **** 	CY_SET_REG32((void *)(CYREG_PRT3_PC), 0x00C00D80u);
 456              		.loc 1 711 0
 457 0144 194A     		ldr	r2, .L21+76
 458 0146 1A4B     		ldr	r3, .L21+80
 459 0148 1A60     		str	r2, [r3]
 712:Generated_Source\PSoC4/cyfitter_cfg.c **** 
 713:Generated_Source\PSoC4/cyfitter_cfg.c **** 	/* IOPINS0_4 Starting address: CYDEV_PRT4_BASE */
 714:Generated_Source\PSoC4/cyfitter_cfg.c **** 	CY_SET_REG32((void *)(CYDEV_PRT4_BASE), 0x00000004u);
 460              		.loc 1 714 0
 461 014a 0423     		movs	r3, #4
 462 014c 194A     		ldr	r2, .L21+84
 463 014e 1360     		str	r3, [r2]
 715:Generated_Source\PSoC4/cyfitter_cfg.c **** 	CY_SET_REG32((void *)(CYREG_PRT4_PC2), 0x00000004u);
 464              		.loc 1 715 0
 465 0150 194A     		ldr	r2, .L21+88
 466 0152 1360     		str	r3, [r2]
 716:Generated_Source\PSoC4/cyfitter_cfg.c **** 
 717:Generated_Source\PSoC4/cyfitter_cfg.c **** 
 718:Generated_Source\PSoC4/cyfitter_cfg.c **** 	/* Setup clocks based on selections from Clock DWR */
 719:Generated_Source\PSoC4/cyfitter_cfg.c **** 	ClockSetup();
 467              		.loc 1 719 0
ARM GAS  C:\Users\jagumiel\AppData\Local\Temp\ccH5wPnt.s 			page 22


 468 0154 FFF754FF 		bl	ClockSetup
 469              	.LVL34:
 720:Generated_Source\PSoC4/cyfitter_cfg.c **** 
 721:Generated_Source\PSoC4/cyfitter_cfg.c **** 	/* Perform basic analog initialization to defaults */
 722:Generated_Source\PSoC4/cyfitter_cfg.c **** 	AnalogSetDefault();
 470              		.loc 1 722 0
 471 0158 FFF7FEFF 		bl	AnalogSetDefault
 472              	.LVL35:
 723:Generated_Source\PSoC4/cyfitter_cfg.c **** 
 724:Generated_Source\PSoC4/cyfitter_cfg.c **** }
 473              		.loc 1 724 0
 474              		@ sp needed
 475              	.LVL36:
 476 015c 10BD     		pop	{r4, pc}
 477              	.L22:
 478 015e C046     		.align	2
 479              	.L21:
 480 0160 00000000 		.word	.LANCHOR0
 481 0164 00020000 		.word	.LANCHOR1
 482 0168 00003330 		.word	808648704
 483 016c 00000140 		.word	1073807360
 484 0170 00EE0030 		.word	805367296
 485 0174 0C000140 		.word	1073807372
 486 0178 00500F40 		.word	1074745344
 487 017c 08500F40 		.word	1074745352
 488 0180 10500F40 		.word	1074745360
 489 0184 30500F40 		.word	1074745392
 490 0188 38500F40 		.word	1074745400
 491 018c 01700F40 		.word	1074753537
 492 0190 00700F40 		.word	1074753536
 493 0194 00000440 		.word	1074003968
 494 0198 0060C300 		.word	12804096
 495 019c 08000440 		.word	1074003976
 496 01a0 00010440 		.word	1074004224
 497 01a4 18010440 		.word	1074004248
 498 01a8 00030440 		.word	1074004736
 499 01ac 800DC000 		.word	12586368
 500 01b0 08030440 		.word	1074004744
 501 01b4 00040440 		.word	1074004992
 502 01b8 18040440 		.word	1074005016
 503              		.cfi_endproc
 504              	.LFE7:
 505              		.size	cyfitter_cfg, .-cyfitter_cfg
 506              		.section	.rodata
 507              		.align	2
 508              		.set	.LANCHOR0,. + 0
 509              		.set	.LANCHOR1,. + 512
 510              		.type	cfg_memset_list.4876, %object
 511              		.size	cfg_memset_list.4876, 12
 512              	cfg_memset_list.4876:
 513 0000 00300F40 		.word	1074737152
 514 0004 0004     		.short	1024
 515 0006 00400F40 		.4byte	1074741248
 516 000a 0004     		.short	1024
 517              		.type	cy_cfg_data_table.4871, %object
 518              		.size	cy_cfg_data_table.4871, 596
 519              	cy_cfg_data_table.4871:
ARM GAS  C:\Users\jagumiel\AppData\Local\Temp\ccH5wPnt.s 			page 23


 520 000c 80       		.byte	-128
 521 000d 0D       		.byte	13
 522 000e 81       		.byte	-127
 523 000f 0D       		.byte	13
 524 0010 82       		.byte	-126
 525 0011 0D       		.byte	13
 526 0012 83       		.byte	-125
 527 0013 0D       		.byte	13
 528 0014 06       		.byte	6
 529 0015 03       		.byte	3
 530 0016 07       		.byte	7
 531 0017 01       		.byte	1
 532 0018 12       		.byte	18
 533 0019 20       		.byte	32
 534 001a 13       		.byte	19
 535 001b 01       		.byte	1
 536 001c 14       		.byte	20
 537 001d 18       		.byte	24
 538 001e 24       		.byte	36
 539 001f 04       		.byte	4
 540 0020 26       		.byte	38
 541 0021 12       		.byte	18
 542 0022 28       		.byte	40
 543 0023 04       		.byte	4
 544 0024 2A       		.byte	42
 545 0025 09       		.byte	9
 546 0026 30       		.byte	48
 547 0027 03       		.byte	3
 548 0028 32       		.byte	50
 549 0029 04       		.byte	4
 550 002a 33       		.byte	51
 551 002b 01       		.byte	1
 552 002c 34       		.byte	52
 553 002d 20       		.byte	32
 554 002e 36       		.byte	54
 555 002f 18       		.byte	24
 556 0030 38       		.byte	56
 557 0031 08       		.byte	8
 558 0032 3F       		.byte	63
 559 0033 04       		.byte	4
 560 0034 40       		.byte	64
 561 0035 20       		.byte	32
 562 0036 41       		.byte	65
 563 0037 05       		.byte	5
 564 0038 45       		.byte	69
 565 0039 D1       		.byte	-47
 566 003a 47       		.byte	71
 567 003b 20       		.byte	32
 568 003c 48       		.byte	72
 569 003d 33       		.byte	51
 570 003e 49       		.byte	73
 571 003f FF       		.byte	-1
 572 0040 4A       		.byte	74
 573 0041 FF       		.byte	-1
 574 0042 4B       		.byte	75
 575 0043 FF       		.byte	-1
 576 0044 4D       		.byte	77
ARM GAS  C:\Users\jagumiel\AppData\Local\Temp\ccH5wPnt.s 			page 24


 577 0045 A0       		.byte	-96
 578 0046 4F       		.byte	79
 579 0047 04       		.byte	4
 580 0048 50       		.byte	80
 581 0049 18       		.byte	24
 582 004a 52       		.byte	82
 583 004b 80       		.byte	-128
 584 004c 54       		.byte	84
 585 004d 05       		.byte	5
 586 004e 58       		.byte	88
 587 004f 04       		.byte	4
 588 0050 59       		.byte	89
 589 0051 04       		.byte	4
 590 0052 5A       		.byte	90
 591 0053 04       		.byte	4
 592 0054 5B       		.byte	91
 593 0055 04       		.byte	4
 594 0056 5F       		.byte	95
 595 0057 01       		.byte	1
 596 0058 60       		.byte	96
 597 0059 40       		.byte	64
 598 005a 62       		.byte	98
 599 005b C0       		.byte	-64
 600 005c 64       		.byte	100
 601 005d 40       		.byte	64
 602 005e 65       		.byte	101
 603 005f 40       		.byte	64
 604 0060 66       		.byte	102
 605 0061 C0       		.byte	-64
 606 0062 68       		.byte	104
 607 0063 C0       		.byte	-64
 608 0064 6A       		.byte	106
 609 0065 C0       		.byte	-64
 610 0066 6C       		.byte	108
 611 0067 C0       		.byte	-64
 612 0068 6E       		.byte	110
 613 0069 C0       		.byte	-64
 614 006a 8A       		.byte	-118
 615 006b 03       		.byte	3
 616 006c 8F       		.byte	-113
 617 006d 01       		.byte	1
 618 006e 94       		.byte	-108
 619 006f 18       		.byte	24
 620 0070 9C       		.byte	-100
 621 0071 04       		.byte	4
 622 0072 9E       		.byte	-98
 623 0073 12       		.byte	18
 624 0074 A4       		.byte	-92
 625 0075 04       		.byte	4
 626 0076 A6       		.byte	-90
 627 0077 09       		.byte	9
 628 0078 A7       		.byte	-89
 629 0079 01       		.byte	1
 630 007a AE       		.byte	-82
 631 007b 20       		.byte	32
 632 007c B0       		.byte	-80
 633 007d 18       		.byte	24
ARM GAS  C:\Users\jagumiel\AppData\Local\Temp\ccH5wPnt.s 			page 25


 634 007e B2       		.byte	-78
 635 007f 04       		.byte	4
 636 0080 B4       		.byte	-76
 637 0081 20       		.byte	32
 638 0082 B5       		.byte	-75
 639 0083 01       		.byte	1
 640 0084 B6       		.byte	-74
 641 0085 03       		.byte	3
 642 0086 B8       		.byte	-72
 643 0087 08       		.byte	8
 644 0088 BF       		.byte	-65
 645 0089 10       		.byte	16
 646 008a C0       		.byte	-64
 647 008b 20       		.byte	32
 648 008c C1       		.byte	-63
 649 008d 05       		.byte	5
 650 008e C5       		.byte	-59
 651 008f D0       		.byte	-48
 652 0090 C6       		.byte	-58
 653 0091 02       		.byte	2
 654 0092 C7       		.byte	-57
 655 0093 10       		.byte	16
 656 0094 C8       		.byte	-56
 657 0095 2E       		.byte	46
 658 0096 C9       		.byte	-55
 659 0097 FF       		.byte	-1
 660 0098 CA       		.byte	-54
 661 0099 FF       		.byte	-1
 662 009a CB       		.byte	-53
 663 009b FF       		.byte	-1
 664 009c CD       		.byte	-51
 665 009d A0       		.byte	-96
 666 009e CF       		.byte	-49
 667 009f 04       		.byte	4
 668 00a0 D0       		.byte	-48
 669 00a1 18       		.byte	24
 670 00a2 D2       		.byte	-46
 671 00a3 80       		.byte	-128
 672 00a4 D4       		.byte	-44
 673 00a5 05       		.byte	5
 674 00a6 D8       		.byte	-40
 675 00a7 04       		.byte	4
 676 00a8 D9       		.byte	-39
 677 00a9 04       		.byte	4
 678 00aa DA       		.byte	-38
 679 00ab 04       		.byte	4
 680 00ac DB       		.byte	-37
 681 00ad 04       		.byte	4
 682 00ae DF       		.byte	-33
 683 00af 01       		.byte	1
 684 00b0 E0       		.byte	-32
 685 00b1 40       		.byte	64
 686 00b2 E2       		.byte	-30
 687 00b3 C0       		.byte	-64
 688 00b4 E4       		.byte	-28
 689 00b5 40       		.byte	64
 690 00b6 E5       		.byte	-27
ARM GAS  C:\Users\jagumiel\AppData\Local\Temp\ccH5wPnt.s 			page 26


 691 00b7 40       		.byte	64
 692 00b8 E6       		.byte	-26
 693 00b9 C0       		.byte	-64
 694 00ba E8       		.byte	-24
 695 00bb C0       		.byte	-64
 696 00bc EA       		.byte	-22
 697 00bd C0       		.byte	-64
 698 00be EC       		.byte	-20
 699 00bf C0       		.byte	-64
 700 00c0 EE       		.byte	-18
 701 00c1 C0       		.byte	-64
 702 00c2 00       		.byte	0
 703 00c3 04       		.byte	4
 704 00c4 05       		.byte	5
 705 00c5 10       		.byte	16
 706 00c6 09       		.byte	9
 707 00c7 02       		.byte	2
 708 00c8 0A       		.byte	10
 709 00c9 10       		.byte	16
 710 00ca 0E       		.byte	14
 711 00cb 20       		.byte	32
 712 00cc 0F       		.byte	15
 713 00cd 02       		.byte	2
 714 00ce 10       		.byte	16
 715 00cf 28       		.byte	40
 716 00d0 16       		.byte	22
 717 00d1 20       		.byte	32
 718 00d2 17       		.byte	23
 719 00d3 80       		.byte	-128
 720 00d4 18       		.byte	24
 721 00d5 04       		.byte	4
 722 00d6 19       		.byte	25
 723 00d7 40       		.byte	64
 724 00d8 1A       		.byte	26
 725 00d9 10       		.byte	16
 726 00da 1B       		.byte	27
 727 00db 02       		.byte	2
 728 00dc 1D       		.byte	29
 729 00dd 30       		.byte	48
 730 00de 1E       		.byte	30
 731 00df 60       		.byte	96
 732 00e0 1F       		.byte	31
 733 00e1 60       		.byte	96
 734 00e2 22       		.byte	34
 735 00e3 04       		.byte	4
 736 00e4 27       		.byte	39
 737 00e5 08       		.byte	8
 738 00e6 2F       		.byte	47
 739 00e7 20       		.byte	32
 740 00e8 30       		.byte	48
 741 00e9 02       		.byte	2
 742 00ea 38       		.byte	56
 743 00eb 04       		.byte	4
 744 00ec 3F       		.byte	63
 745 00ed 80       		.byte	-128
 746 00ee 40       		.byte	64
 747 00ef 04       		.byte	4
ARM GAS  C:\Users\jagumiel\AppData\Local\Temp\ccH5wPnt.s 			page 27


 748 00f0 45       		.byte	69
 749 00f1 20       		.byte	32
 750 00f2 48       		.byte	72
 751 00f3 22       		.byte	34
 752 00f4 49       		.byte	73
 753 00f5 01       		.byte	1
 754 00f6 4F       		.byte	79
 755 00f7 81       		.byte	-127
 756 00f8 50       		.byte	80
 757 00f9 0A       		.byte	10
 758 00fa 56       		.byte	86
 759 00fb 20       		.byte	32
 760 00fc 57       		.byte	87
 761 00fd 41       		.byte	65
 762 00fe 59       		.byte	89
 763 00ff 41       		.byte	65
 764 0100 5A       		.byte	90
 765 0101 08       		.byte	8
 766 0102 5E       		.byte	94
 767 0103 40       		.byte	64
 768 0104 5F       		.byte	95
 769 0105 09       		.byte	9
 770 0106 71       		.byte	113
 771 0107 02       		.byte	2
 772 0108 77       		.byte	119
 773 0109 80       		.byte	-128
 774 010a 87       		.byte	-121
 775 010b 02       		.byte	2
 776 010c C0       		.byte	-64
 777 010d 44       		.byte	68
 778 010e C2       		.byte	-62
 779 010f AC       		.byte	-84
 780 0110 C4       		.byte	-60
 781 0111 A6       		.byte	-90
 782 0112 CA       		.byte	-54
 783 0113 40       		.byte	64
 784 0114 CC       		.byte	-52
 785 0115 01       		.byte	1
 786 0116 CE       		.byte	-50
 787 0117 12       		.byte	18
 788 0118 D0       		.byte	-48
 789 0119 24       		.byte	36
 790 011a D2       		.byte	-46
 791 011b 18       		.byte	24
 792 011c D6       		.byte	-42
 793 011d DB       		.byte	-37
 794 011e 08       		.byte	8
 795 011f 18       		.byte	24
 796 0120 0F       		.byte	15
 797 0121 01       		.byte	1
 798 0122 16       		.byte	22
 799 0123 03       		.byte	3
 800 0124 1C       		.byte	28
 801 0125 04       		.byte	4
 802 0126 1E       		.byte	30
 803 0127 12       		.byte	18
 804 0128 28       		.byte	40
ARM GAS  C:\Users\jagumiel\AppData\Local\Temp\ccH5wPnt.s 			page 28


 805 0129 04       		.byte	4
 806 012a 2A       		.byte	42
 807 012b 09       		.byte	9
 808 012c 2B       		.byte	43
 809 012d 01       		.byte	1
 810 012e 2E       		.byte	46
 811 012f 20       		.byte	32
 812 0130 30       		.byte	48
 813 0131 18       		.byte	24
 814 0132 32       		.byte	50
 815 0133 20       		.byte	32
 816 0134 33       		.byte	51
 817 0135 01       		.byte	1
 818 0136 34       		.byte	52
 819 0137 04       		.byte	4
 820 0138 36       		.byte	54
 821 0139 03       		.byte	3
 822 013a 38       		.byte	56
 823 013b 20       		.byte	32
 824 013c 39       		.byte	57
 825 013d 02       		.byte	2
 826 013e 3F       		.byte	63
 827 013f 05       		.byte	5
 828 0140 40       		.byte	64
 829 0141 30       		.byte	48
 830 0142 41       		.byte	65
 831 0143 05       		.byte	5
 832 0144 45       		.byte	69
 833 0145 D0       		.byte	-48
 834 0146 46       		.byte	70
 835 0147 02       		.byte	2
 836 0148 47       		.byte	71
 837 0149 10       		.byte	16
 838 014a 48       		.byte	72
 839 014b 36       		.byte	54
 840 014c 49       		.byte	73
 841 014d FF       		.byte	-1
 842 014e 4A       		.byte	74
 843 014f FF       		.byte	-1
 844 0150 4B       		.byte	75
 845 0151 FF       		.byte	-1
 846 0152 4D       		.byte	77
 847 0153 A0       		.byte	-96
 848 0154 4F       		.byte	79
 849 0155 04       		.byte	4
 850 0156 50       		.byte	80
 851 0157 18       		.byte	24
 852 0158 52       		.byte	82
 853 0159 80       		.byte	-128
 854 015a 54       		.byte	84
 855 015b 05       		.byte	5
 856 015c 58       		.byte	88
 857 015d 04       		.byte	4
 858 015e 59       		.byte	89
 859 015f 04       		.byte	4
 860 0160 5A       		.byte	90
 861 0161 04       		.byte	4
ARM GAS  C:\Users\jagumiel\AppData\Local\Temp\ccH5wPnt.s 			page 29


 862 0162 5B       		.byte	91
 863 0163 04       		.byte	4
 864 0164 5F       		.byte	95
 865 0165 01       		.byte	1
 866 0166 60       		.byte	96
 867 0167 40       		.byte	64
 868 0168 62       		.byte	98
 869 0169 C0       		.byte	-64
 870 016a 64       		.byte	100
 871 016b 40       		.byte	64
 872 016c 65       		.byte	101
 873 016d 40       		.byte	64
 874 016e 66       		.byte	102
 875 016f C0       		.byte	-64
 876 0170 68       		.byte	104
 877 0171 C0       		.byte	-64
 878 0172 6A       		.byte	106
 879 0173 C0       		.byte	-64
 880 0174 6C       		.byte	108
 881 0175 C0       		.byte	-64
 882 0176 6E       		.byte	110
 883 0177 C0       		.byte	-64
 884 0178 86       		.byte	-122
 885 0179 03       		.byte	3
 886 017a 87       		.byte	-121
 887 017b 01       		.byte	1
 888 017c 92       		.byte	-110
 889 017d 20       		.byte	32
 890 017e 97       		.byte	-105
 891 017f 01       		.byte	1
 892 0180 9C       		.byte	-100
 893 0181 18       		.byte	24
 894 0182 A0       		.byte	-96
 895 0183 04       		.byte	4
 896 0184 A2       		.byte	-94
 897 0185 09       		.byte	9
 898 0186 A4       		.byte	-92
 899 0187 04       		.byte	4
 900 0188 A6       		.byte	-90
 901 0189 12       		.byte	18
 902 018a B0       		.byte	-80
 903 018b 18       		.byte	24
 904 018c B2       		.byte	-78
 905 018d 03       		.byte	3
 906 018e B3       		.byte	-77
 907 018f 01       		.byte	1
 908 0190 B4       		.byte	-76
 909 0191 20       		.byte	32
 910 0192 B6       		.byte	-74
 911 0193 04       		.byte	4
 912 0194 B8       		.byte	-72
 913 0195 80       		.byte	-128
 914 0196 BF       		.byte	-65
 915 0197 04       		.byte	4
 916 0198 C0       		.byte	-64
 917 0199 20       		.byte	32
 918 019a C1       		.byte	-63
ARM GAS  C:\Users\jagumiel\AppData\Local\Temp\ccH5wPnt.s 			page 30


 919 019b 06       		.byte	6
 920 019c C5       		.byte	-59
 921 019d D1       		.byte	-47
 922 019e C7       		.byte	-57
 923 019f 02       		.byte	2
 924 01a0 C8       		.byte	-56
 925 01a1 17       		.byte	23
 926 01a2 C9       		.byte	-55
 927 01a3 FF       		.byte	-1
 928 01a4 CA       		.byte	-54
 929 01a5 FF       		.byte	-1
 930 01a6 CB       		.byte	-53
 931 01a7 FF       		.byte	-1
 932 01a8 CD       		.byte	-51
 933 01a9 A0       		.byte	-96
 934 01aa CF       		.byte	-49
 935 01ab 04       		.byte	4
 936 01ac D0       		.byte	-48
 937 01ad 18       		.byte	24
 938 01ae D2       		.byte	-46
 939 01af 80       		.byte	-128
 940 01b0 D4       		.byte	-44
 941 01b1 05       		.byte	5
 942 01b2 D8       		.byte	-40
 943 01b3 04       		.byte	4
 944 01b4 D9       		.byte	-39
 945 01b5 04       		.byte	4
 946 01b6 DA       		.byte	-38
 947 01b7 04       		.byte	4
 948 01b8 DB       		.byte	-37
 949 01b9 04       		.byte	4
 950 01ba DF       		.byte	-33
 951 01bb 01       		.byte	1
 952 01bc E0       		.byte	-32
 953 01bd 40       		.byte	64
 954 01be E2       		.byte	-30
 955 01bf C0       		.byte	-64
 956 01c0 E4       		.byte	-28
 957 01c1 40       		.byte	64
 958 01c2 E5       		.byte	-27
 959 01c3 40       		.byte	64
 960 01c4 E6       		.byte	-26
 961 01c5 C0       		.byte	-64
 962 01c6 E8       		.byte	-24
 963 01c7 C0       		.byte	-64
 964 01c8 EA       		.byte	-22
 965 01c9 C0       		.byte	-64
 966 01ca EC       		.byte	-20
 967 01cb C0       		.byte	-64
 968 01cc EE       		.byte	-18
 969 01cd C0       		.byte	-64
 970 01ce 00       		.byte	0
 971 01cf 04       		.byte	4
 972 01d0 05       		.byte	5
 973 01d1 10       		.byte	16
 974 01d2 09       		.byte	9
 975 01d3 02       		.byte	2
ARM GAS  C:\Users\jagumiel\AppData\Local\Temp\ccH5wPnt.s 			page 31


 976 01d4 0A       		.byte	10
 977 01d5 01       		.byte	1
 978 01d6 0D       		.byte	13
 979 01d7 08       		.byte	8
 980 01d8 0F       		.byte	15
 981 01d9 02       		.byte	2
 982 01da 10       		.byte	16
 983 01db A0       		.byte	-96
 984 01dc 16       		.byte	22
 985 01dd 08       		.byte	8
 986 01de 17       		.byte	23
 987 01df 80       		.byte	-128
 988 01e0 18       		.byte	24
 989 01e1 04       		.byte	4
 990 01e2 19       		.byte	25
 991 01e3 08       		.byte	8
 992 01e4 1A       		.byte	26
 993 01e5 41       		.byte	65
 994 01e6 1D       		.byte	29
 995 01e7 18       		.byte	24
 996 01e8 1E       		.byte	30
 997 01e9 82       		.byte	-126
 998 01ea 1F       		.byte	31
 999 01eb 08       		.byte	8
 1000 01ec 22       		.byte	34
 1001 01ed 04       		.byte	4
 1002 01ee 25       		.byte	37
 1003 01ef 01       		.byte	1
 1004 01f0 26       		.byte	38
 1005 01f1 04       		.byte	4
 1006 01f2 2F       		.byte	47
 1007 01f3 08       		.byte	8
 1008 01f4 30       		.byte	48
 1009 01f5 08       		.byte	8
 1010 01f6 38       		.byte	56
 1011 01f7 04       		.byte	4
 1012 01f8 3F       		.byte	63
 1013 01f9 80       		.byte	-128
 1014 01fa 40       		.byte	64
 1015 01fb 04       		.byte	4
 1016 01fc 45       		.byte	69
 1017 01fd 08       		.byte	8
 1018 01fe 48       		.byte	72
 1019 01ff 28       		.byte	40
 1020 0200 49       		.byte	73
 1021 0201 01       		.byte	1
 1022 0202 4F       		.byte	79
 1023 0203 81       		.byte	-127
 1024 0204 50       		.byte	80
 1025 0205 88       		.byte	-120
 1026 0206 56       		.byte	86
 1027 0207 08       		.byte	8
 1028 0208 57       		.byte	87
 1029 0209 41       		.byte	65
 1030 020a 59       		.byte	89
 1031 020b 01       		.byte	1
 1032 020c 5A       		.byte	90
ARM GAS  C:\Users\jagumiel\AppData\Local\Temp\ccH5wPnt.s 			page 32


 1033 020d 48       		.byte	72
 1034 020e 5E       		.byte	94
 1035 020f 88       		.byte	-120
 1036 0210 5F       		.byte	95
 1037 0211 01       		.byte	1
 1038 0212 71       		.byte	113
 1039 0213 02       		.byte	2
 1040 0214 77       		.byte	119
 1041 0215 80       		.byte	-128
 1042 0216 81       		.byte	-127
 1043 0217 09       		.byte	9
 1044 0218 A6       		.byte	-90
 1045 0219 01       		.byte	1
 1046 021a AF       		.byte	-81
 1047 021b 40       		.byte	64
 1048 021c B6       		.byte	-74
 1049 021d 01       		.byte	1
 1050 021e C0       		.byte	-64
 1051 021f 44       		.byte	68
 1052 0220 C2       		.byte	-62
 1053 0221 A9       		.byte	-87
 1054 0222 C4       		.byte	-60
 1055 0223 CC       		.byte	-52
 1056 0224 CA       		.byte	-54
 1057 0225 20       		.byte	32
 1058 0226 CC       		.byte	-52
 1059 0227 02       		.byte	2
 1060 0228 CE       		.byte	-50
 1061 0229 12       		.byte	18
 1062 022a D0       		.byte	-48
 1063 022b 44       		.byte	68
 1064 022c D2       		.byte	-46
 1065 022d 14       		.byte	20
 1066 022e D6       		.byte	-42
 1067 022f DB       		.byte	-37
 1068 0230 E4       		.byte	-28
 1069 0231 05       		.byte	5
 1070 0232 EA       		.byte	-22
 1071 0233 10       		.byte	16
 1072 0234 5F       		.byte	95
 1073 0235 02       		.byte	2
 1074 0236 61       		.byte	97
 1075 0237 20       		.byte	32
 1076 0238 67       		.byte	103
 1077 0239 80       		.byte	-128
 1078 023a 87       		.byte	-121
 1079 023b 40       		.byte	64
 1080 023c D6       		.byte	-42
 1081 023d 80       		.byte	-128
 1082 023e D8       		.byte	-40
 1083 023f C0       		.byte	-64
 1084 0240 E2       		.byte	-30
 1085 0241 10       		.byte	16
 1086 0242 AD       		.byte	-83
 1087 0243 20       		.byte	32
 1088 0244 B7       		.byte	-73
 1089 0245 02       		.byte	2
ARM GAS  C:\Users\jagumiel\AppData\Local\Temp\ccH5wPnt.s 			page 33


 1090 0246 EA       		.byte	-22
 1091 0247 10       		.byte	16
 1092 0248 6E       		.byte	110
 1093 0249 02       		.byte	2
 1094 024a 7A       		.byte	122
 1095 024b 01       		.byte	1
 1096 024c DC       		.byte	-36
 1097 024d 03       		.byte	3
 1098 024e 58       		.byte	88
 1099 024f 02       		.byte	2
 1100 0250 67       		.byte	103
 1101 0251 02       		.byte	2
 1102 0252 80       		.byte	-128
 1103 0253 02       		.byte	2
 1104 0254 82       		.byte	-126
 1105 0255 01       		.byte	1
 1106 0256 83       		.byte	-125
 1107 0257 01       		.byte	1
 1108 0258 A6       		.byte	-90
 1109 0259 01       		.byte	1
 1110 025a D6       		.byte	-42
 1111 025b 03       		.byte	3
 1112 025c 01       		.byte	1
 1113 025d 01       		.byte	1
 1114 025e 10       		.byte	16
 1115 025f 01       		.byte	1
 1116              		.type	cy_cfg_addr_table.4870, %object
 1117              		.size	cy_cfg_addr_table.4870, 40
 1118              	cy_cfg_addr_table.4870:
 1119 0260 04000F40 		.word	1074724868
 1120 0264 57300F40 		.word	1074737239
 1121 0268 2E310F40 		.word	1074737454
 1122 026c 58320F40 		.word	1074737752
 1123 0270 33330F40 		.word	1074737971
 1124 0274 07400F40 		.word	1074741255
 1125 0278 03410F40 		.word	1074741507
 1126 027c 03420F40 		.word	1074741763
 1127 0280 07430F40 		.word	1074742023
 1128 0284 02600F40 		.word	1074749442
 1129              		.text
 1130              	.Letext0:
 1131              		.file 2 "c:\\program files (x86)\\cypress\\psoc creator\\4.2\\psoc creator\\import\\gnu\\arm\\5.4.
 1132              		.file 3 "Generated_Source\\PSoC4\\cytypes.h"
 1133              		.file 4 "Generated_Source\\PSoC4\\CyLib.h"