ARM GAS  C:\Users\jagumiel\AppData\Local\Temp\ccQwZlnE.s 			page 1


   1              		.syntax unified
   2              		.cpu cortex-m0
   3              		.fpu softvfp
   4              		.eabi_attribute 20, 1
   5              		.eabi_attribute 21, 1
   6              		.eabi_attribute 23, 3
   7              		.eabi_attribute 24, 1
   8              		.eabi_attribute 25, 1
   9              		.eabi_attribute 26, 1
  10              		.eabi_attribute 30, 1
  11              		.eabi_attribute 34, 0
  12              		.eabi_attribute 18, 4
  13              		.thumb
  14              		.syntax unified
  15              		.file	"main.c"
  16              		.text
  17              	.Ltext0:
  18              		.cfi_sections	.debug_frame
  19              		.section	.text.main,"ax",%progbits
  20              		.align	2
  21              		.global	main
  22              		.code	16
  23              		.thumb_func
  24              		.type	main, %function
  25              	main:
  26              	.LFB32:
  27              		.file 1 "main.c"
   1:main.c        **** /* ========================================
   2:main.c        ****  *
   3:main.c        ****  * Copyright YOUR COMPANY, THE YEAR
   4:main.c        ****  * All Rights Reserved
   5:main.c        ****  * UNPUBLISHED, LICENSED SOFTWARE.
   6:main.c        ****  *
   7:main.c        ****  * CONFIDENTIAL AND PROPRIETARY INFORMATION
   8:main.c        ****  * WHICH IS THE PROPERTY OF your company.
   9:main.c        ****  *
  10:main.c        ****  * ========================================
  11:main.c        **** */
  12:main.c        **** #include "project.h"
  13:main.c        **** 
  14:main.c        **** int main(void)
  15:main.c        **** {
  28              		.loc 1 15 0
  29              		.cfi_startproc
  30              		@ args = 0, pretend = 0, frame = 0
  31              		@ frame_needed = 0, uses_anonymous_args = 0
  32 0000 70B5     		push	{r4, r5, r6, lr}
  33              		.cfi_def_cfa_offset 16
  34              		.cfi_offset 4, -16
  35              		.cfi_offset 5, -12
  36              		.cfi_offset 6, -8
  37              		.cfi_offset 14, -4
  16:main.c        ****     CyGlobalIntEnable; /* Enable global interrupts. */
  38              		.loc 1 16 0
  39              		.syntax divided
  40              	@ 16 "main.c" 1
  41 0002 62B6     		CPSIE   i
ARM GAS  C:\Users\jagumiel\AppData\Local\Temp\ccQwZlnE.s 			page 2


  42              	@ 0 "" 2
  17:main.c        ****     PWM_0_Start();
  43              		.loc 1 17 0
  44              		.thumb
  45              		.syntax unified
  46 0004 FFF7FEFF 		bl	PWM_0_Start
  47              	.LVL0:
  18:main.c        ****     PWM_1_Start();
  48              		.loc 1 18 0
  49 0008 FFF7FEFF 		bl	PWM_1_Start
  50              	.LVL1:
  19:main.c        ****     PWM_2_Start();
  51              		.loc 1 19 0
  52 000c FFF7FEFF 		bl	PWM_2_Start
  53              	.LVL2:
  20:main.c        ****     PWM_3_Start();
  54              		.loc 1 20 0
  55 0010 FFF7FEFF 		bl	PWM_3_Start
  56              	.LVL3:
  21:main.c        ****     
  22:main.c        ****     uint8 sliderVal;
  23:main.c        ****     uint8 oldSliderVal=0xFF;
  24:main.c        ****     
  25:main.c        ****     CapSense_Start();
  57              		.loc 1 25 0
  58 0014 FFF7FEFF 		bl	CapSense_Start
  59              	.LVL4:
  26:main.c        ****     CapSense_InitializeAllBaselines();
  60              		.loc 1 26 0
  61 0018 FFF7FEFF 		bl	CapSense_InitializeAllBaselines
  62              	.LVL5:
  27:main.c        ****     CapSense_ScanEnabledWidgets();
  63              		.loc 1 27 0
  64 001c FFF7FEFF 		bl	CapSense_ScanEnabledWidgets
  65              	.LVL6:
  23:main.c        ****     
  66              		.loc 1 23 0
  67 0020 FF24     		movs	r4, #255
  68              	.LVL7:
  69              	.L2:
  28:main.c        **** 
  29:main.c        ****     /* Place your initialization/startup code here (e.g. MyInst_Start()) */
  30:main.c        **** 
  31:main.c        ****     for(;;)
  32:main.c        ****     {
  33:main.c        ****         if(!CapSense_IsBusy()){
  70              		.loc 1 33 0
  71 0022 FFF7FEFF 		bl	CapSense_IsBusy
  72              	.LVL8:
  73 0026 0028     		cmp	r0, #0
  74 0028 0FD1     		bne	.L3
  34:main.c        ****             sliderVal=CapSense_GetCentroidPos(CapSense_LINEAR_SLIDERS_POS_FILTERS_MASK);
  75              		.loc 1 34 0
  76 002a 0830     		adds	r0, r0, #8
  77 002c FFF7FEFF 		bl	CapSense_GetCentroidPos
  78              	.LVL9:
  79 0030 C5B2     		uxtb	r5, r0
ARM GAS  C:\Users\jagumiel\AppData\Local\Temp\ccQwZlnE.s 			page 3


  80              	.LVL10:
  35:main.c        ****             if(sliderVal!=0xFF && sliderVal!=oldSliderVal){
  81              		.loc 1 35 0
  82 0032 FF2D     		cmp	r5, #255
  83 0034 03D0     		beq	.L9
  84              		.loc 1 35 0 is_stmt 0 discriminator 1
  85 0036 AC42     		cmp	r4, r5
  86 0038 02D1     		bne	.L4
  87              		.loc 1 35 0
  88 003a 2500     		movs	r5, r4
  89              	.LVL11:
  90 003c 00E0     		b	.L4
  91              	.LVL12:
  92              	.L9:
  93 003e 2500     		movs	r5, r4
  94              	.LVL13:
  95              	.L4:
  36:main.c        ****                 oldSliderVal=sliderVal;
  37:main.c        ****             }
  38:main.c        ****             CapSense_UpdateEnabledBaselines();
  96              		.loc 1 38 0 is_stmt 1
  97 0040 FFF7FEFF 		bl	CapSense_UpdateEnabledBaselines
  98              	.LVL14:
  39:main.c        ****             CapSense_ScanEnabledWidgets();
  99              		.loc 1 39 0
 100 0044 FFF7FEFF 		bl	CapSense_ScanEnabledWidgets
 101              	.LVL15:
 102 0048 2C00     		movs	r4, r5
 103              	.LVL16:
 104              	.L3:
  40:main.c        ****         }
  41:main.c        ****         
  42:main.c        ****         if(oldSliderVal<64){
 105              		.loc 1 42 0
 106 004a 3F2C     		cmp	r4, #63
 107 004c 0DD8     		bhi	.L5
  43:main.c        ****             PWM_0_WriteCompare(oldSliderVal*4);
 108              		.loc 1 43 0
 109 004e A000     		lsls	r0, r4, #2
 110 0050 C0B2     		uxtb	r0, r0
 111 0052 FFF7FEFF 		bl	PWM_0_WriteCompare
 112              	.LVL17:
  44:main.c        ****             PWM_1_WriteCompare(0);
 113              		.loc 1 44 0
 114 0056 0020     		movs	r0, #0
 115 0058 FFF7FEFF 		bl	PWM_1_WriteCompare
 116              	.LVL18:
  45:main.c        ****             PWM_2_WriteCompare(0);
 117              		.loc 1 45 0
 118 005c 0020     		movs	r0, #0
 119 005e FFF7FEFF 		bl	PWM_2_WriteCompare
 120              	.LVL19:
  46:main.c        ****             PWM_3_WriteCompare(0);
 121              		.loc 1 46 0
 122 0062 0020     		movs	r0, #0
 123 0064 FFF7FEFF 		bl	PWM_3_WriteCompare
 124              	.LVL20:
ARM GAS  C:\Users\jagumiel\AppData\Local\Temp\ccQwZlnE.s 			page 4


 125 0068 DBE7     		b	.L2
 126              	.L5:
  47:main.c        ****         }else if(oldSliderVal>63 && oldSliderVal<128){
 127              		.loc 1 47 0
 128 006a 2300     		movs	r3, r4
 129 006c 403B     		subs	r3, r3, #64
 130 006e DBB2     		uxtb	r3, r3
 131 0070 3F2B     		cmp	r3, #63
 132 0072 0DD8     		bhi	.L7
  48:main.c        ****             PWM_0_WriteCompare(255);
 133              		.loc 1 48 0
 134 0074 FF20     		movs	r0, #255
 135 0076 FFF7FEFF 		bl	PWM_0_WriteCompare
 136              	.LVL21:
  49:main.c        ****             PWM_1_WriteCompare(oldSliderVal*2);
 137              		.loc 1 49 0
 138 007a 6000     		lsls	r0, r4, #1
 139 007c C0B2     		uxtb	r0, r0
 140 007e FFF7FEFF 		bl	PWM_1_WriteCompare
 141              	.LVL22:
  50:main.c        ****             PWM_2_WriteCompare(0);
 142              		.loc 1 50 0
 143 0082 0020     		movs	r0, #0
 144 0084 FFF7FEFF 		bl	PWM_2_WriteCompare
 145              	.LVL23:
  51:main.c        ****             PWM_3_WriteCompare(0);
 146              		.loc 1 51 0
 147 0088 0020     		movs	r0, #0
 148 008a FFF7FEFF 		bl	PWM_3_WriteCompare
 149              	.LVL24:
 150 008e C8E7     		b	.L2
 151              	.L7:
  52:main.c        ****         }else if(oldSliderVal>127 && oldSliderVal<192){
 152              		.loc 1 52 0
 153 0090 2300     		movs	r3, r4
 154 0092 803B     		subs	r3, r3, #128
 155 0094 DBB2     		uxtb	r3, r3
 156 0096 3F2B     		cmp	r3, #63
 157 0098 0FD8     		bhi	.L8
  53:main.c        ****             PWM_0_WriteCompare(255);
 158              		.loc 1 53 0
 159 009a FF20     		movs	r0, #255
 160 009c FFF7FEFF 		bl	PWM_0_WriteCompare
 161              	.LVL25:
  54:main.c        ****             PWM_1_WriteCompare(255);
 162              		.loc 1 54 0
 163 00a0 FF20     		movs	r0, #255
 164 00a2 FFF7FEFF 		bl	PWM_1_WriteCompare
 165              	.LVL26:
  55:main.c        ****             PWM_2_WriteCompare((oldSliderVal/4)*3);
 166              		.loc 1 55 0
 167 00a6 A008     		lsrs	r0, r4, #2
 168 00a8 4300     		lsls	r3, r0, #1
 169 00aa C018     		adds	r0, r0, r3
 170 00ac C0B2     		uxtb	r0, r0
 171 00ae FFF7FEFF 		bl	PWM_2_WriteCompare
 172              	.LVL27:
ARM GAS  C:\Users\jagumiel\AppData\Local\Temp\ccQwZlnE.s 			page 5


  56:main.c        ****             PWM_3_WriteCompare(0);
 173              		.loc 1 56 0
 174 00b2 0020     		movs	r0, #0
 175 00b4 FFF7FEFF 		bl	PWM_3_WriteCompare
 176              	.LVL28:
 177 00b8 B3E7     		b	.L2
 178              	.L8:
  57:main.c        ****         }else {
  58:main.c        ****             PWM_0_WriteCompare(255);
 179              		.loc 1 58 0
 180 00ba FF20     		movs	r0, #255
 181 00bc FFF7FEFF 		bl	PWM_0_WriteCompare
 182              	.LVL29:
  59:main.c        ****             PWM_1_WriteCompare(255);
 183              		.loc 1 59 0
 184 00c0 FF20     		movs	r0, #255
 185 00c2 FFF7FEFF 		bl	PWM_1_WriteCompare
 186              	.LVL30:
  60:main.c        ****             PWM_2_WriteCompare(255);
 187              		.loc 1 60 0
 188 00c6 FF20     		movs	r0, #255
 189 00c8 FFF7FEFF 		bl	PWM_2_WriteCompare
 190              	.LVL31:
  61:main.c        ****             PWM_3_WriteCompare(oldSliderVal);
 191              		.loc 1 61 0
 192 00cc 2000     		movs	r0, r4
 193 00ce FFF7FEFF 		bl	PWM_3_WriteCompare
 194              	.LVL32:
 195 00d2 A6E7     		b	.L2
 196              		.cfi_endproc
 197              	.LFE32:
 198              		.size	main, .-main
 199              		.text
 200              	.Letext0:
 201              		.file 2 "Generated_Source\\PSoC4/PWM_0.h"
 202              		.file 3 "Generated_Source\\PSoC4/PWM_1.h"
 203              		.file 4 "Generated_Source\\PSoC4/PWM_2.h"
 204              		.file 5 "Generated_Source\\PSoC4/PWM_3.h"
 205              		.file 6 "Generated_Source\\PSoC4/CapSense.h"
 206              		.file 7 "Generated_Source\\PSoC4/CapSense_CSHL.h"
 207              		.file 8 "Generated_Source\\PSoC4/cytypes.h"