ARM GAS  C:\Users\jagumiel\AppData\Local\Temp\ccdaHeu0.s 			page 1


   1              		.syntax unified
   2              		.cpu cortex-m0
   3              		.fpu softvfp
   4              		.eabi_attribute 20, 1
   5              		.eabi_attribute 21, 1
   6              		.eabi_attribute 23, 3
   7              		.eabi_attribute 24, 1
   8              		.eabi_attribute 25, 1
   9              		.eabi_attribute 26, 1
  10              		.eabi_attribute 30, 1
  11              		.eabi_attribute 34, 0
  12              		.eabi_attribute 18, 4
  13              		.thumb
  14              		.syntax unified
  15              		.file	"cyfitter_cfg.c"
  16              		.text
  17              	.Ltext0:
  18              		.cfi_sections	.debug_frame
  19              		.section	.text.cfg_write_bytes32,"ax",%progbits
  20              		.align	2
  21              		.code	16
  22              		.thumb_func
  23              		.type	cfg_write_bytes32, %function
  24              	cfg_write_bytes32:
  25              	.LFB3:
  26              		.file 1 "Generated_Source\\PSoC4\\cyfitter_cfg.c"
   1:Generated_Source\PSoC4/cyfitter_cfg.c **** 
   2:Generated_Source\PSoC4/cyfitter_cfg.c **** /*******************************************************************************
   3:Generated_Source\PSoC4/cyfitter_cfg.c **** * File Name: cyfitter_cfg.c
   4:Generated_Source\PSoC4/cyfitter_cfg.c **** * 
   5:Generated_Source\PSoC4/cyfitter_cfg.c **** * PSoC Creator  4.2
   6:Generated_Source\PSoC4/cyfitter_cfg.c **** *
   7:Generated_Source\PSoC4/cyfitter_cfg.c **** * Description:
   8:Generated_Source\PSoC4/cyfitter_cfg.c **** * This file contains device initialization code.
   9:Generated_Source\PSoC4/cyfitter_cfg.c **** * Except for the user defined sections in CyClockStartupError(), this file should not be modified.
  10:Generated_Source\PSoC4/cyfitter_cfg.c **** * This file is automatically generated by PSoC Creator.
  11:Generated_Source\PSoC4/cyfitter_cfg.c **** *
  12:Generated_Source\PSoC4/cyfitter_cfg.c **** ********************************************************************************
  13:Generated_Source\PSoC4/cyfitter_cfg.c **** * Copyright (c) 2007-2018 Cypress Semiconductor.  All rights reserved.
  14:Generated_Source\PSoC4/cyfitter_cfg.c **** * You may use this file only in accordance with the license, terms, conditions, 
  15:Generated_Source\PSoC4/cyfitter_cfg.c **** * disclaimers, and limitations in the end user license agreement accompanying 
  16:Generated_Source\PSoC4/cyfitter_cfg.c **** * the software package with which this file was provided.
  17:Generated_Source\PSoC4/cyfitter_cfg.c **** ********************************************************************************/
  18:Generated_Source\PSoC4/cyfitter_cfg.c **** 
  19:Generated_Source\PSoC4/cyfitter_cfg.c **** #include <string.h>
  20:Generated_Source\PSoC4/cyfitter_cfg.c **** #include "cytypes.h"
  21:Generated_Source\PSoC4/cyfitter_cfg.c **** #include "cydevice_trm.h"
  22:Generated_Source\PSoC4/cyfitter_cfg.c **** #include "cyfitter.h"
  23:Generated_Source\PSoC4/cyfitter_cfg.c **** #include "CyLib.h"
  24:Generated_Source\PSoC4/cyfitter_cfg.c **** #include "CyLFClk.h"
  25:Generated_Source\PSoC4/cyfitter_cfg.c **** #include "cyfitter_cfg.h"
  26:Generated_Source\PSoC4/cyfitter_cfg.c **** #include "cyapicallbacks.h"
  27:Generated_Source\PSoC4/cyfitter_cfg.c **** 
  28:Generated_Source\PSoC4/cyfitter_cfg.c **** 
  29:Generated_Source\PSoC4/cyfitter_cfg.c **** #if defined(__GNUC__) || defined(__ARMCC_VERSION)
  30:Generated_Source\PSoC4/cyfitter_cfg.c ****     #define CYPACKED 
  31:Generated_Source\PSoC4/cyfitter_cfg.c ****     #define CYPACKED_ATTR __attribute__ ((packed))
ARM GAS  C:\Users\jagumiel\AppData\Local\Temp\ccdaHeu0.s 			page 2


  32:Generated_Source\PSoC4/cyfitter_cfg.c ****     #define CYALIGNED __attribute__ ((aligned))
  33:Generated_Source\PSoC4/cyfitter_cfg.c ****     #define CY_CFG_UNUSED __attribute__ ((unused))
  34:Generated_Source\PSoC4/cyfitter_cfg.c ****     #ifndef CY_CFG_SECTION
  35:Generated_Source\PSoC4/cyfitter_cfg.c ****         #define CY_CFG_SECTION __attribute__ ((section(".psocinit")))
  36:Generated_Source\PSoC4/cyfitter_cfg.c ****     #endif
  37:Generated_Source\PSoC4/cyfitter_cfg.c ****     
  38:Generated_Source\PSoC4/cyfitter_cfg.c ****     #if defined(__ARMCC_VERSION)
  39:Generated_Source\PSoC4/cyfitter_cfg.c ****         #define CY_CFG_MEMORY_BARRIER() __memory_changed()
  40:Generated_Source\PSoC4/cyfitter_cfg.c ****     #else
  41:Generated_Source\PSoC4/cyfitter_cfg.c ****         #define CY_CFG_MEMORY_BARRIER() __sync_synchronize()
  42:Generated_Source\PSoC4/cyfitter_cfg.c ****     #endif
  43:Generated_Source\PSoC4/cyfitter_cfg.c ****     
  44:Generated_Source\PSoC4/cyfitter_cfg.c **** #elif defined(__ICCARM__)
  45:Generated_Source\PSoC4/cyfitter_cfg.c ****     #include <intrinsics.h>
  46:Generated_Source\PSoC4/cyfitter_cfg.c **** 
  47:Generated_Source\PSoC4/cyfitter_cfg.c ****     #define CYPACKED __packed
  48:Generated_Source\PSoC4/cyfitter_cfg.c ****     #define CYPACKED_ATTR 
  49:Generated_Source\PSoC4/cyfitter_cfg.c ****     #define CYALIGNED _Pragma("data_alignment=4")
  50:Generated_Source\PSoC4/cyfitter_cfg.c ****     #define CY_CFG_UNUSED _Pragma("diag_suppress=Pe177")
  51:Generated_Source\PSoC4/cyfitter_cfg.c ****     #define CY_CFG_SECTION _Pragma("location=\".psocinit\"")
  52:Generated_Source\PSoC4/cyfitter_cfg.c ****     
  53:Generated_Source\PSoC4/cyfitter_cfg.c ****     #define CY_CFG_MEMORY_BARRIER() __DMB()
  54:Generated_Source\PSoC4/cyfitter_cfg.c ****     
  55:Generated_Source\PSoC4/cyfitter_cfg.c **** #else
  56:Generated_Source\PSoC4/cyfitter_cfg.c ****     #error Unsupported toolchain
  57:Generated_Source\PSoC4/cyfitter_cfg.c **** #endif
  58:Generated_Source\PSoC4/cyfitter_cfg.c **** 
  59:Generated_Source\PSoC4/cyfitter_cfg.c **** #ifndef CYCODE
  60:Generated_Source\PSoC4/cyfitter_cfg.c ****     #define CYCODE
  61:Generated_Source\PSoC4/cyfitter_cfg.c **** #endif
  62:Generated_Source\PSoC4/cyfitter_cfg.c **** #ifndef CYDATA
  63:Generated_Source\PSoC4/cyfitter_cfg.c ****     #define CYDATA
  64:Generated_Source\PSoC4/cyfitter_cfg.c **** #endif
  65:Generated_Source\PSoC4/cyfitter_cfg.c **** #ifndef CYFAR
  66:Generated_Source\PSoC4/cyfitter_cfg.c ****     #define CYFAR
  67:Generated_Source\PSoC4/cyfitter_cfg.c **** #endif
  68:Generated_Source\PSoC4/cyfitter_cfg.c **** #ifndef CYXDATA
  69:Generated_Source\PSoC4/cyfitter_cfg.c ****     #define CYXDATA
  70:Generated_Source\PSoC4/cyfitter_cfg.c **** #endif
  71:Generated_Source\PSoC4/cyfitter_cfg.c **** 
  72:Generated_Source\PSoC4/cyfitter_cfg.c **** 
  73:Generated_Source\PSoC4/cyfitter_cfg.c **** CY_CFG_UNUSED
  74:Generated_Source\PSoC4/cyfitter_cfg.c **** static void CYMEMZERO(void *s, size_t n);
  75:Generated_Source\PSoC4/cyfitter_cfg.c **** CY_CFG_UNUSED
  76:Generated_Source\PSoC4/cyfitter_cfg.c **** static void CYMEMZERO(void *s, size_t n)
  77:Generated_Source\PSoC4/cyfitter_cfg.c **** {
  78:Generated_Source\PSoC4/cyfitter_cfg.c **** 	(void)memset(s, 0, n);
  79:Generated_Source\PSoC4/cyfitter_cfg.c **** }
  80:Generated_Source\PSoC4/cyfitter_cfg.c **** CY_CFG_UNUSED
  81:Generated_Source\PSoC4/cyfitter_cfg.c **** static void CYCONFIGCPY(void *dest, const void *src, size_t n);
  82:Generated_Source\PSoC4/cyfitter_cfg.c **** CY_CFG_UNUSED
  83:Generated_Source\PSoC4/cyfitter_cfg.c **** static void CYCONFIGCPY(void *dest, const void *src, size_t n)
  84:Generated_Source\PSoC4/cyfitter_cfg.c **** {
  85:Generated_Source\PSoC4/cyfitter_cfg.c **** 	(void)memcpy(dest, src, n);
  86:Generated_Source\PSoC4/cyfitter_cfg.c **** }
  87:Generated_Source\PSoC4/cyfitter_cfg.c **** CY_CFG_UNUSED
  88:Generated_Source\PSoC4/cyfitter_cfg.c **** static void CYCONFIGCPYCODE(void *dest, const void *src, size_t n);
ARM GAS  C:\Users\jagumiel\AppData\Local\Temp\ccdaHeu0.s 			page 3


  89:Generated_Source\PSoC4/cyfitter_cfg.c **** CY_CFG_UNUSED
  90:Generated_Source\PSoC4/cyfitter_cfg.c **** static void CYCONFIGCPYCODE(void *dest, const void *src, size_t n)
  91:Generated_Source\PSoC4/cyfitter_cfg.c **** {
  92:Generated_Source\PSoC4/cyfitter_cfg.c **** 	(void)memcpy(dest, src, n);
  93:Generated_Source\PSoC4/cyfitter_cfg.c **** }
  94:Generated_Source\PSoC4/cyfitter_cfg.c **** 
  95:Generated_Source\PSoC4/cyfitter_cfg.c **** 
  96:Generated_Source\PSoC4/cyfitter_cfg.c **** 
  97:Generated_Source\PSoC4/cyfitter_cfg.c **** 
  98:Generated_Source\PSoC4/cyfitter_cfg.c **** /* Clock startup error codes                                                   */
  99:Generated_Source\PSoC4/cyfitter_cfg.c **** #define CYCLOCKSTART_NO_ERROR    0u
 100:Generated_Source\PSoC4/cyfitter_cfg.c **** #define CYCLOCKSTART_XTAL_ERROR  1u
 101:Generated_Source\PSoC4/cyfitter_cfg.c **** #define CYCLOCKSTART_32KHZ_ERROR 2u
 102:Generated_Source\PSoC4/cyfitter_cfg.c **** #define CYCLOCKSTART_PLL_ERROR   3u
 103:Generated_Source\PSoC4/cyfitter_cfg.c **** #define CYCLOCKSTART_FLL_ERROR   4u
 104:Generated_Source\PSoC4/cyfitter_cfg.c **** #define CYCLOCKSTART_WCO_ERROR   5u
 105:Generated_Source\PSoC4/cyfitter_cfg.c **** 
 106:Generated_Source\PSoC4/cyfitter_cfg.c **** 
 107:Generated_Source\PSoC4/cyfitter_cfg.c **** #ifdef CY_NEED_CYCLOCKSTARTUPERROR
 108:Generated_Source\PSoC4/cyfitter_cfg.c **** /*******************************************************************************
 109:Generated_Source\PSoC4/cyfitter_cfg.c **** * Function Name: CyClockStartupError
 110:Generated_Source\PSoC4/cyfitter_cfg.c **** ********************************************************************************
 111:Generated_Source\PSoC4/cyfitter_cfg.c **** * Summary:
 112:Generated_Source\PSoC4/cyfitter_cfg.c **** *  If an error is encountered during clock configuration (crystal startup error,
 113:Generated_Source\PSoC4/cyfitter_cfg.c **** *  PLL lock error, etc.), the system will end up here.  Unless reimplemented by
 114:Generated_Source\PSoC4/cyfitter_cfg.c **** *  the customer, this function will stop in an infinite loop.
 115:Generated_Source\PSoC4/cyfitter_cfg.c **** *
 116:Generated_Source\PSoC4/cyfitter_cfg.c **** * Parameters:
 117:Generated_Source\PSoC4/cyfitter_cfg.c **** *   void
 118:Generated_Source\PSoC4/cyfitter_cfg.c **** *
 119:Generated_Source\PSoC4/cyfitter_cfg.c **** * Return:
 120:Generated_Source\PSoC4/cyfitter_cfg.c **** *   void
 121:Generated_Source\PSoC4/cyfitter_cfg.c **** *
 122:Generated_Source\PSoC4/cyfitter_cfg.c **** *******************************************************************************/
 123:Generated_Source\PSoC4/cyfitter_cfg.c **** CY_CFG_UNUSED
 124:Generated_Source\PSoC4/cyfitter_cfg.c **** static void CyClockStartupError(uint8 errorCode);
 125:Generated_Source\PSoC4/cyfitter_cfg.c **** CY_CFG_UNUSED
 126:Generated_Source\PSoC4/cyfitter_cfg.c **** static void CyClockStartupError(uint8 errorCode)
 127:Generated_Source\PSoC4/cyfitter_cfg.c **** {
 128:Generated_Source\PSoC4/cyfitter_cfg.c ****     /* To remove the compiler warning if errorCode not used.                */
 129:Generated_Source\PSoC4/cyfitter_cfg.c ****     errorCode = errorCode;
 130:Generated_Source\PSoC4/cyfitter_cfg.c **** 
 131:Generated_Source\PSoC4/cyfitter_cfg.c ****     /* If we have a clock startup error (bad MHz crystal, PLL lock, etc.),  */
 132:Generated_Source\PSoC4/cyfitter_cfg.c ****     /* we will end up here to allow the customer to implement something to  */
 133:Generated_Source\PSoC4/cyfitter_cfg.c ****     /* deal with the clock condition.                                       */
 134:Generated_Source\PSoC4/cyfitter_cfg.c **** 
 135:Generated_Source\PSoC4/cyfitter_cfg.c **** #ifdef CY_CFG_CLOCK_STARTUP_ERROR_CALLBACK
 136:Generated_Source\PSoC4/cyfitter_cfg.c ****     CY_CFG_Clock_Startup_ErrorCallback();
 137:Generated_Source\PSoC4/cyfitter_cfg.c **** #else
 138:Generated_Source\PSoC4/cyfitter_cfg.c ****     /*  If not using CY_CFG_CLOCK_STARTUP_ERROR_CALLBACK, place your clock startup code here. */
 139:Generated_Source\PSoC4/cyfitter_cfg.c ****     /* `#START CyClockStartupError` */
 140:Generated_Source\PSoC4/cyfitter_cfg.c **** 
 141:Generated_Source\PSoC4/cyfitter_cfg.c **** 
 142:Generated_Source\PSoC4/cyfitter_cfg.c **** 
 143:Generated_Source\PSoC4/cyfitter_cfg.c ****     /* `#END` */
 144:Generated_Source\PSoC4/cyfitter_cfg.c **** 
 145:Generated_Source\PSoC4/cyfitter_cfg.c ****     while(1) {}
ARM GAS  C:\Users\jagumiel\AppData\Local\Temp\ccdaHeu0.s 			page 4


 146:Generated_Source\PSoC4/cyfitter_cfg.c **** #endif /* CY_CFG_CLOCK_STARTUP_ERROR_CALLBACK */
 147:Generated_Source\PSoC4/cyfitter_cfg.c **** }
 148:Generated_Source\PSoC4/cyfitter_cfg.c **** #endif
 149:Generated_Source\PSoC4/cyfitter_cfg.c **** 
 150:Generated_Source\PSoC4/cyfitter_cfg.c **** #define CY_CFG_BASE_ADDR_COUNT 8u
 151:Generated_Source\PSoC4/cyfitter_cfg.c **** CYPACKED typedef struct
 152:Generated_Source\PSoC4/cyfitter_cfg.c **** {
 153:Generated_Source\PSoC4/cyfitter_cfg.c **** 	uint8 offset;
 154:Generated_Source\PSoC4/cyfitter_cfg.c **** 	uint8 value;
 155:Generated_Source\PSoC4/cyfitter_cfg.c **** } CYPACKED_ATTR cy_cfg_addrvalue_t;
 156:Generated_Source\PSoC4/cyfitter_cfg.c **** 
 157:Generated_Source\PSoC4/cyfitter_cfg.c **** 
 158:Generated_Source\PSoC4/cyfitter_cfg.c **** 
 159:Generated_Source\PSoC4/cyfitter_cfg.c **** /*******************************************************************************
 160:Generated_Source\PSoC4/cyfitter_cfg.c **** * Function Name: cfg_write_bytes32
 161:Generated_Source\PSoC4/cyfitter_cfg.c **** ********************************************************************************
 162:Generated_Source\PSoC4/cyfitter_cfg.c **** * Summary:
 163:Generated_Source\PSoC4/cyfitter_cfg.c **** *  This function is used for setting up the chip configuration areas that
 164:Generated_Source\PSoC4/cyfitter_cfg.c **** *  contain relatively sparse data.
 165:Generated_Source\PSoC4/cyfitter_cfg.c **** *
 166:Generated_Source\PSoC4/cyfitter_cfg.c **** * Parameters:
 167:Generated_Source\PSoC4/cyfitter_cfg.c **** *   void
 168:Generated_Source\PSoC4/cyfitter_cfg.c **** *
 169:Generated_Source\PSoC4/cyfitter_cfg.c **** * Return:
 170:Generated_Source\PSoC4/cyfitter_cfg.c **** *   void
 171:Generated_Source\PSoC4/cyfitter_cfg.c **** *
 172:Generated_Source\PSoC4/cyfitter_cfg.c **** *******************************************************************************/
 173:Generated_Source\PSoC4/cyfitter_cfg.c **** static void cfg_write_bytes32(const uint32 addr_table[], const cy_cfg_addrvalue_t data_table[]);
 174:Generated_Source\PSoC4/cyfitter_cfg.c **** static void cfg_write_bytes32(const uint32 addr_table[], const cy_cfg_addrvalue_t data_table[])
 175:Generated_Source\PSoC4/cyfitter_cfg.c **** {
  27              		.loc 1 175 0
  28              		.cfi_startproc
  29              		@ args = 0, pretend = 0, frame = 0
  30              		@ frame_needed = 0, uses_anonymous_args = 0
  31              	.LVL0:
  32 0000 F0B5     		push	{r4, r5, r6, r7, lr}
  33              		.cfi_def_cfa_offset 20
  34              		.cfi_offset 4, -20
  35              		.cfi_offset 5, -16
  36              		.cfi_offset 6, -12
  37              		.cfi_offset 7, -8
  38              		.cfi_offset 14, -4
  39              	.LVL1:
 176:Generated_Source\PSoC4/cyfitter_cfg.c **** 	/* For 32-bit little-endian architectures */
 177:Generated_Source\PSoC4/cyfitter_cfg.c **** 	uint32 i, j = 0u;
  40              		.loc 1 177 0
  41 0002 0025     		movs	r5, #0
 178:Generated_Source\PSoC4/cyfitter_cfg.c **** 	for (i = 0u; i < CY_CFG_BASE_ADDR_COUNT; i++)
  42              		.loc 1 178 0
  43 0004 0027     		movs	r7, #0
  44 0006 11E0     		b	.L2
  45              	.LVL2:
  46              	.L5:
  47              	.LBB2:
 179:Generated_Source\PSoC4/cyfitter_cfg.c **** 	{
 180:Generated_Source\PSoC4/cyfitter_cfg.c **** 		uint32 baseAddr = addr_table[i];
  48              		.loc 1 180 0
ARM GAS  C:\Users\jagumiel\AppData\Local\Temp\ccdaHeu0.s 			page 5


  49 0008 BB00     		lsls	r3, r7, #2
  50 000a C658     		ldr	r6, [r0, r3]
  51              	.LVL3:
 181:Generated_Source\PSoC4/cyfitter_cfg.c **** 		uint8 count = (uint8)baseAddr;
  52              		.loc 1 181 0
  53 000c F3B2     		uxtb	r3, r6
  54              	.LVL4:
 182:Generated_Source\PSoC4/cyfitter_cfg.c **** 		baseAddr &= 0xFFFFFF00u;
  55              		.loc 1 182 0
  56 000e FF22     		movs	r2, #255
  57 0010 9643     		bics	r6, r2
  58              	.LVL5:
 183:Generated_Source\PSoC4/cyfitter_cfg.c **** 		while (count != 0u)
  59              		.loc 1 183 0
  60 0012 08E0     		b	.L3
  61              	.L4:
 184:Generated_Source\PSoC4/cyfitter_cfg.c **** 		{
 185:Generated_Source\PSoC4/cyfitter_cfg.c **** 			CY_SET_REG8((void *)(baseAddr + data_table[j].offset), data_table[j].value);
  62              		.loc 1 185 0
  63 0014 6A00     		lsls	r2, r5, #1
  64 0016 8A18     		adds	r2, r1, r2
  65 0018 1478     		ldrb	r4, [r2]
  66 001a A419     		adds	r4, r4, r6
  67 001c 5278     		ldrb	r2, [r2, #1]
  68 001e 2270     		strb	r2, [r4]
 186:Generated_Source\PSoC4/cyfitter_cfg.c **** 			j++;
  69              		.loc 1 186 0
  70 0020 0135     		adds	r5, r5, #1
  71              	.LVL6:
 187:Generated_Source\PSoC4/cyfitter_cfg.c **** 			count--;
  72              		.loc 1 187 0
  73 0022 013B     		subs	r3, r3, #1
  74              	.LVL7:
  75 0024 DBB2     		uxtb	r3, r3
  76              	.LVL8:
  77              	.L3:
 183:Generated_Source\PSoC4/cyfitter_cfg.c **** 		{
  78              		.loc 1 183 0
  79 0026 002B     		cmp	r3, #0
  80 0028 F4D1     		bne	.L4
  81              	.LBE2:
 178:Generated_Source\PSoC4/cyfitter_cfg.c **** 	{
  82              		.loc 1 178 0 discriminator 2
  83 002a 0137     		adds	r7, r7, #1
  84              	.LVL9:
  85              	.L2:
 178:Generated_Source\PSoC4/cyfitter_cfg.c **** 	{
  86              		.loc 1 178 0 is_stmt 0 discriminator 1
  87 002c 072F     		cmp	r7, #7
  88 002e EBD9     		bls	.L5
 188:Generated_Source\PSoC4/cyfitter_cfg.c **** 		}
 189:Generated_Source\PSoC4/cyfitter_cfg.c **** 	}
 190:Generated_Source\PSoC4/cyfitter_cfg.c **** }
  89              		.loc 1 190 0 is_stmt 1
  90              		@ sp needed
  91              	.LVL10:
  92              	.LVL11:
ARM GAS  C:\Users\jagumiel\AppData\Local\Temp\ccdaHeu0.s 			page 6


  93 0030 F0BD     		pop	{r4, r5, r6, r7, pc}
  94              		.cfi_endproc
  95              	.LFE3:
  96              		.size	cfg_write_bytes32, .-cfg_write_bytes32
  97 0032 C046     		.section	.text.CYMEMZERO,"ax",%progbits
  98              		.align	2
  99              		.code	16
 100              		.thumb_func
 101              		.type	CYMEMZERO, %function
 102              	CYMEMZERO:
 103              	.LFB0:
  77:Generated_Source\PSoC4/cyfitter_cfg.c **** 	(void)memset(s, 0, n);
 104              		.loc 1 77 0
 105              		.cfi_startproc
 106              		@ args = 0, pretend = 0, frame = 0
 107              		@ frame_needed = 0, uses_anonymous_args = 0
 108              	.LVL12:
 109 0000 10B5     		push	{r4, lr}
 110              		.cfi_def_cfa_offset 8
 111              		.cfi_offset 4, -8
 112              		.cfi_offset 14, -4
 113 0002 0A00     		movs	r2, r1
  78:Generated_Source\PSoC4/cyfitter_cfg.c **** }
 114              		.loc 1 78 0
 115 0004 0021     		movs	r1, #0
 116              	.LVL13:
 117 0006 FFF7FEFF 		bl	memset
 118              	.LVL14:
  79:Generated_Source\PSoC4/cyfitter_cfg.c **** CY_CFG_UNUSED
 119              		.loc 1 79 0
 120              		@ sp needed
 121 000a 10BD     		pop	{r4, pc}
 122              		.cfi_endproc
 123              	.LFE0:
 124              		.size	CYMEMZERO, .-CYMEMZERO
 125              		.section	.psocinit,"ax",%progbits
 126              		.align	2
 127              		.code	16
 128              		.thumb_func
 129              		.type	ClockSetup, %function
 130              	ClockSetup:
 131              	.LFB4:
 191:Generated_Source\PSoC4/cyfitter_cfg.c **** 
 192:Generated_Source\PSoC4/cyfitter_cfg.c **** 
 193:Generated_Source\PSoC4/cyfitter_cfg.c **** /*******************************************************************************
 194:Generated_Source\PSoC4/cyfitter_cfg.c **** * Function Name: ClockSetup
 195:Generated_Source\PSoC4/cyfitter_cfg.c **** ********************************************************************************
 196:Generated_Source\PSoC4/cyfitter_cfg.c **** *
 197:Generated_Source\PSoC4/cyfitter_cfg.c **** * Summary:
 198:Generated_Source\PSoC4/cyfitter_cfg.c **** *   Performs the initialization of all of the clocks in the device based on the
 199:Generated_Source\PSoC4/cyfitter_cfg.c **** *   settings in the Clock tab of the DWR.  This includes enabling the requested
 200:Generated_Source\PSoC4/cyfitter_cfg.c **** *   clocks and setting the necessary dividers to produce the desired frequency. 
 201:Generated_Source\PSoC4/cyfitter_cfg.c **** *
 202:Generated_Source\PSoC4/cyfitter_cfg.c **** * Parameters:
 203:Generated_Source\PSoC4/cyfitter_cfg.c **** *   void
 204:Generated_Source\PSoC4/cyfitter_cfg.c **** *
 205:Generated_Source\PSoC4/cyfitter_cfg.c **** * Return:
ARM GAS  C:\Users\jagumiel\AppData\Local\Temp\ccdaHeu0.s 			page 7


 206:Generated_Source\PSoC4/cyfitter_cfg.c **** *   void
 207:Generated_Source\PSoC4/cyfitter_cfg.c **** *
 208:Generated_Source\PSoC4/cyfitter_cfg.c **** *******************************************************************************/
 209:Generated_Source\PSoC4/cyfitter_cfg.c **** static void ClockSetup(void);
 210:Generated_Source\PSoC4/cyfitter_cfg.c **** CY_CFG_SECTION
 211:Generated_Source\PSoC4/cyfitter_cfg.c **** static void ClockSetup(void)
 212:Generated_Source\PSoC4/cyfitter_cfg.c **** {
 132              		.loc 1 212 0
 133              		.cfi_startproc
 134              		@ args = 0, pretend = 0, frame = 0
 135              		@ frame_needed = 0, uses_anonymous_args = 0
 136 0000 70B5     		push	{r4, r5, r6, lr}
 137              		.cfi_def_cfa_offset 16
 138              		.cfi_offset 4, -16
 139              		.cfi_offset 5, -12
 140              		.cfi_offset 6, -8
 141              		.cfi_offset 14, -4
 213:Generated_Source\PSoC4/cyfitter_cfg.c **** 	/* Enable HALF_EN before trimming for the flash accelerator. */
 214:Generated_Source\PSoC4/cyfitter_cfg.c **** 	CY_SET_REG32((void CYXDATA *)(CYREG_CLK_SELECT), (CY_GET_REG32((void *)CYREG_CLK_SELECT) | 0x00040
 142              		.loc 1 214 0
 143 0002 164C     		ldr	r4, .L8
 144 0004 2368     		ldr	r3, [r4]
 145 0006 8022     		movs	r2, #128
 146 0008 D202     		lsls	r2, r2, #11
 147 000a 1343     		orrs	r3, r2
 148 000c 2360     		str	r3, [r4]
 215:Generated_Source\PSoC4/cyfitter_cfg.c **** 
 216:Generated_Source\PSoC4/cyfitter_cfg.c **** 	/* Setup and trim IMO based on desired frequency. */
 217:Generated_Source\PSoC4/cyfitter_cfg.c **** 	CySysClkWriteImoFreq(24u);
 149              		.loc 1 217 0
 150 000e 1820     		movs	r0, #24
 151 0010 FFF7FEFF 		bl	CySysClkWriteImoFreq
 152              	.LVL15:
 218:Generated_Source\PSoC4/cyfitter_cfg.c **** 
 219:Generated_Source\PSoC4/cyfitter_cfg.c **** 	/* Disable HALF_EN since it is not required at this IMO frequency. */
 220:Generated_Source\PSoC4/cyfitter_cfg.c **** 	CY_SET_REG32((void CYXDATA *)(CYREG_CLK_SELECT), (CY_GET_REG32((void *)CYREG_CLK_SELECT) & 0xFFFBF
 153              		.loc 1 220 0
 154 0014 2268     		ldr	r2, [r4]
 155 0016 124B     		ldr	r3, .L8+4
 156 0018 1340     		ands	r3, r2
 157 001a 2360     		str	r3, [r4]
 221:Generated_Source\PSoC4/cyfitter_cfg.c **** 	/* CYDEV_CLK_ILO_CONFIG Starting address: CYDEV_CLK_ILO_CONFIG */
 222:Generated_Source\PSoC4/cyfitter_cfg.c **** 	CY_SET_REG32((void *)(CYREG_CLK_ILO_CONFIG), 0x80000006u);
 158              		.loc 1 222 0
 159 001c 114A     		ldr	r2, .L8+8
 160 001e 124B     		ldr	r3, .L8+12
 161 0020 1A60     		str	r2, [r3]
 223:Generated_Source\PSoC4/cyfitter_cfg.c **** 
 224:Generated_Source\PSoC4/cyfitter_cfg.c **** 
 225:Generated_Source\PSoC4/cyfitter_cfg.c **** 	/* CYDEV_CLK_SELECT00 Starting address: CYDEV_CLK_SELECT00 */
 226:Generated_Source\PSoC4/cyfitter_cfg.c **** 	CY_SET_REG32((void *)(CYREG_CLK_SELECT02), 0x00000020u);
 162              		.loc 1 226 0
 163 0022 2022     		movs	r2, #32
 164 0024 114B     		ldr	r3, .L8+16
 165 0026 1A60     		str	r2, [r3]
 227:Generated_Source\PSoC4/cyfitter_cfg.c **** 	CY_SET_REG32((void *)(CYREG_CLK_SELECT12), 0x00000010u);
 166              		.loc 1 227 0
ARM GAS  C:\Users\jagumiel\AppData\Local\Temp\ccdaHeu0.s 			page 8


 167 0028 103A     		subs	r2, r2, #16
 168 002a 114B     		ldr	r3, .L8+20
 169 002c 1A60     		str	r2, [r3]
 228:Generated_Source\PSoC4/cyfitter_cfg.c **** 
 229:Generated_Source\PSoC4/cyfitter_cfg.c **** 	/* CYDEV_CLK_IMO_CONFIG Starting address: CYDEV_CLK_IMO_CONFIG */
 230:Generated_Source\PSoC4/cyfitter_cfg.c **** 	CY_SET_REG32((void *)(CYREG_CLK_IMO_CONFIG), 0x80000000u);
 170              		.loc 1 230 0
 171 002e 8022     		movs	r2, #128
 172 0030 1206     		lsls	r2, r2, #24
 173 0032 104B     		ldr	r3, .L8+24
 174 0034 1A60     		str	r2, [r3]
 231:Generated_Source\PSoC4/cyfitter_cfg.c **** 
 232:Generated_Source\PSoC4/cyfitter_cfg.c **** 	/* CYDEV_CLK_SELECT Starting address: CYDEV_CLK_SELECT */
 233:Generated_Source\PSoC4/cyfitter_cfg.c **** 	CY_SET_REG32((void *)(CYREG_CLK_SELECT), 0x00000000u);
 175              		.loc 1 233 0
 176 0036 0025     		movs	r5, #0
 177 0038 2560     		str	r5, [r4]
 234:Generated_Source\PSoC4/cyfitter_cfg.c **** 
 235:Generated_Source\PSoC4/cyfitter_cfg.c **** 	/* CYDEV_CLK_DIVIDER_A00 Starting address: CYDEV_CLK_DIVIDER_A00 */
 236:Generated_Source\PSoC4/cyfitter_cfg.c **** 	CY_SET_REG32((void *)(CYREG_CLK_DIVIDER_A00), 0x80000001u);
 178              		.loc 1 236 0
 179 003a 0F4A     		ldr	r2, .L8+28
 180 003c 0F4B     		ldr	r3, .L8+32
 181 003e 1A60     		str	r2, [r3]
 237:Generated_Source\PSoC4/cyfitter_cfg.c **** 
 238:Generated_Source\PSoC4/cyfitter_cfg.c **** 	/* CYDEV_CLK_DIVIDER_B00 Starting address: CYDEV_CLK_DIVIDER_B00 */
 239:Generated_Source\PSoC4/cyfitter_cfg.c **** 	CY_SET_REG32((void *)(CYREG_CLK_DIVIDER_B00), 0x80000010u);
 182              		.loc 1 239 0
 183 0040 0F4A     		ldr	r2, .L8+36
 184 0042 104B     		ldr	r3, .L8+40
 185 0044 1A60     		str	r2, [r3]
 240:Generated_Source\PSoC4/cyfitter_cfg.c **** 
 241:Generated_Source\PSoC4/cyfitter_cfg.c **** 	(void)CyIntSetVector(9u, &CySysWdtIsr);
 186              		.loc 1 241 0
 187 0046 1049     		ldr	r1, .L8+44
 188 0048 0920     		movs	r0, #9
 189 004a FFF7FEFF 		bl	CyIntSetVector
 190              	.LVL16:
 242:Generated_Source\PSoC4/cyfitter_cfg.c **** 	CyIntEnable(9u);
 191              		.loc 1 242 0
 192 004e 0920     		movs	r0, #9
 193 0050 FFF7FEFF 		bl	CyIntEnable
 194              	.LVL17:
 243:Generated_Source\PSoC4/cyfitter_cfg.c **** 	CY_SET_REG32((void *)(CYREG_WDT_CONFIG), 0x00000000u);
 195              		.loc 1 243 0
 196 0054 0D4B     		ldr	r3, .L8+48
 197 0056 1D60     		str	r5, [r3]
 244:Generated_Source\PSoC4/cyfitter_cfg.c **** }
 198              		.loc 1 244 0
 199              		@ sp needed
 200 0058 70BD     		pop	{r4, r5, r6, pc}
 201              	.L9:
 202 005a C046     		.align	2
 203              	.L8:
 204 005c 00010B40 		.word	1074462976
 205 0060 FFFFFBFF 		.word	-262145
 206 0064 06000080 		.word	-2147483642
ARM GAS  C:\Users\jagumiel\AppData\Local\Temp\ccdaHeu0.s 			page 9


 207 0068 04010B40 		.word	1074462980
 208 006c 08020240 		.word	1073873416
 209 0070 30020240 		.word	1073873456
 210 0074 08010B40 		.word	1074462984
 211 0078 01000080 		.word	-2147483647
 212 007c 00000240 		.word	1073872896
 213 0080 10000080 		.word	-2147483632
 214 0084 40000240 		.word	1073872960
 215 0088 00000000 		.word	CySysWdtIsr
 216 008c 0C020B40 		.word	1074463244
 217              		.cfi_endproc
 218              	.LFE4:
 219              		.size	ClockSetup, .-ClockSetup
 220              		.align	2
 221              		.global	cyfitter_cfg
 222              		.code	16
 223              		.thumb_func
 224              		.type	cyfitter_cfg, %function
 225              	cyfitter_cfg:
 226              	.LFB6:
 245:Generated_Source\PSoC4/cyfitter_cfg.c **** 
 246:Generated_Source\PSoC4/cyfitter_cfg.c **** 
 247:Generated_Source\PSoC4/cyfitter_cfg.c **** /* Analog API Functions */
 248:Generated_Source\PSoC4/cyfitter_cfg.c **** 
 249:Generated_Source\PSoC4/cyfitter_cfg.c **** 
 250:Generated_Source\PSoC4/cyfitter_cfg.c **** /*******************************************************************************
 251:Generated_Source\PSoC4/cyfitter_cfg.c **** * Function Name: AnalogSetDefault
 252:Generated_Source\PSoC4/cyfitter_cfg.c **** ********************************************************************************
 253:Generated_Source\PSoC4/cyfitter_cfg.c **** *
 254:Generated_Source\PSoC4/cyfitter_cfg.c **** * Summary:
 255:Generated_Source\PSoC4/cyfitter_cfg.c **** *  Sets up the analog portions of the chip to default values based on chip
 256:Generated_Source\PSoC4/cyfitter_cfg.c **** *  configuration options from the project.
 257:Generated_Source\PSoC4/cyfitter_cfg.c **** *
 258:Generated_Source\PSoC4/cyfitter_cfg.c **** * Parameters:
 259:Generated_Source\PSoC4/cyfitter_cfg.c **** *  void
 260:Generated_Source\PSoC4/cyfitter_cfg.c **** *
 261:Generated_Source\PSoC4/cyfitter_cfg.c **** * Return:
 262:Generated_Source\PSoC4/cyfitter_cfg.c **** *  void
 263:Generated_Source\PSoC4/cyfitter_cfg.c **** *
 264:Generated_Source\PSoC4/cyfitter_cfg.c **** *******************************************************************************/
 265:Generated_Source\PSoC4/cyfitter_cfg.c **** static void AnalogSetDefault(void);
 266:Generated_Source\PSoC4/cyfitter_cfg.c **** static void AnalogSetDefault(void)
 267:Generated_Source\PSoC4/cyfitter_cfg.c **** {
 268:Generated_Source\PSoC4/cyfitter_cfg.c **** }
 269:Generated_Source\PSoC4/cyfitter_cfg.c **** 
 270:Generated_Source\PSoC4/cyfitter_cfg.c **** 
 271:Generated_Source\PSoC4/cyfitter_cfg.c **** 
 272:Generated_Source\PSoC4/cyfitter_cfg.c **** 
 273:Generated_Source\PSoC4/cyfitter_cfg.c **** /*******************************************************************************
 274:Generated_Source\PSoC4/cyfitter_cfg.c **** * Function Name: cyfitter_cfg
 275:Generated_Source\PSoC4/cyfitter_cfg.c **** ********************************************************************************
 276:Generated_Source\PSoC4/cyfitter_cfg.c **** * Summary:
 277:Generated_Source\PSoC4/cyfitter_cfg.c **** *  This function is called by the start-up code for the selected device. It
 278:Generated_Source\PSoC4/cyfitter_cfg.c **** *  performs all of the necessary device configuration based on the design
 279:Generated_Source\PSoC4/cyfitter_cfg.c **** *  settings.  This includes settings from the Design Wide Resources (DWR) such
 280:Generated_Source\PSoC4/cyfitter_cfg.c **** *  as Clocks and Pins as well as any component configuration that is necessary.
 281:Generated_Source\PSoC4/cyfitter_cfg.c **** *
ARM GAS  C:\Users\jagumiel\AppData\Local\Temp\ccdaHeu0.s 			page 10


 282:Generated_Source\PSoC4/cyfitter_cfg.c **** * Parameters:
 283:Generated_Source\PSoC4/cyfitter_cfg.c **** *   void
 284:Generated_Source\PSoC4/cyfitter_cfg.c **** *
 285:Generated_Source\PSoC4/cyfitter_cfg.c **** * Return:
 286:Generated_Source\PSoC4/cyfitter_cfg.c **** *   void
 287:Generated_Source\PSoC4/cyfitter_cfg.c **** *
 288:Generated_Source\PSoC4/cyfitter_cfg.c **** *******************************************************************************/
 289:Generated_Source\PSoC4/cyfitter_cfg.c **** CY_CFG_SECTION
 290:Generated_Source\PSoC4/cyfitter_cfg.c **** void cyfitter_cfg(void)
 291:Generated_Source\PSoC4/cyfitter_cfg.c **** {
 227              		.loc 1 291 0
 228              		.cfi_startproc
 229              		@ args = 0, pretend = 0, frame = 0
 230              		@ frame_needed = 0, uses_anonymous_args = 0
 231 0090 10B5     		push	{r4, lr}
 232              		.cfi_def_cfa_offset 8
 233              		.cfi_offset 4, -8
 234              		.cfi_offset 14, -4
 292:Generated_Source\PSoC4/cyfitter_cfg.c **** 	/* Disable interrupts by default. Let user enable if/when they want. */
 293:Generated_Source\PSoC4/cyfitter_cfg.c **** 	CyGlobalIntDisable;
 235              		.loc 1 293 0
 236              		.syntax divided
 237              	@ 293 "Generated_Source\PSoC4\cyfitter_cfg.c" 1
 238 0092 72B6     		CPSID   i
 239              	@ 0 "" 2
 240              	.LVL18:
 241              		.thumb
 242              		.syntax unified
 243              	.LBB3:
 294:Generated_Source\PSoC4/cyfitter_cfg.c **** 
 295:Generated_Source\PSoC4/cyfitter_cfg.c **** 	{
 296:Generated_Source\PSoC4/cyfitter_cfg.c **** 		static const uint32 CYCODE cy_cfg_addr_table[] = {
 297:Generated_Source\PSoC4/cyfitter_cfg.c **** 			0x400F0003u, /* Base address: 0x400F0000 Count: 3 */
 298:Generated_Source\PSoC4/cyfitter_cfg.c **** 			0x400F3027u, /* Base address: 0x400F3000 Count: 39 */
 299:Generated_Source\PSoC4/cyfitter_cfg.c **** 			0x400F3118u, /* Base address: 0x400F3100 Count: 24 */
 300:Generated_Source\PSoC4/cyfitter_cfg.c **** 			0x400F324Eu, /* Base address: 0x400F3200 Count: 78 */
 301:Generated_Source\PSoC4/cyfitter_cfg.c **** 			0x400F332Fu, /* Base address: 0x400F3300 Count: 47 */
 302:Generated_Source\PSoC4/cyfitter_cfg.c **** 			0x400F4202u, /* Base address: 0x400F4200 Count: 2 */
 303:Generated_Source\PSoC4/cyfitter_cfg.c **** 			0x400F4307u, /* Base address: 0x400F4300 Count: 7 */
 304:Generated_Source\PSoC4/cyfitter_cfg.c **** 			0x400F6002u, /* Base address: 0x400F6000 Count: 2 */
 305:Generated_Source\PSoC4/cyfitter_cfg.c **** 		};
 306:Generated_Source\PSoC4/cyfitter_cfg.c **** 
 307:Generated_Source\PSoC4/cyfitter_cfg.c **** 		static const cy_cfg_addrvalue_t CYCODE cy_cfg_data_table[] = {
 308:Generated_Source\PSoC4/cyfitter_cfg.c **** 			{0x80u, 0x0Du},
 309:Generated_Source\PSoC4/cyfitter_cfg.c **** 			{0x82u, 0x0Du},
 310:Generated_Source\PSoC4/cyfitter_cfg.c **** 			{0x83u, 0x0Du},
 311:Generated_Source\PSoC4/cyfitter_cfg.c **** 			{0x06u, 0x04u},
 312:Generated_Source\PSoC4/cyfitter_cfg.c **** 			{0x07u, 0x01u},
 313:Generated_Source\PSoC4/cyfitter_cfg.c **** 			{0x12u, 0x08u},
 314:Generated_Source\PSoC4/cyfitter_cfg.c **** 			{0x13u, 0x01u},
 315:Generated_Source\PSoC4/cyfitter_cfg.c **** 			{0x1Cu, 0x01u},
 316:Generated_Source\PSoC4/cyfitter_cfg.c **** 			{0x24u, 0x07u},
 317:Generated_Source\PSoC4/cyfitter_cfg.c **** 			{0x30u, 0x01u},
 318:Generated_Source\PSoC4/cyfitter_cfg.c **** 			{0x32u, 0x04u},
 319:Generated_Source\PSoC4/cyfitter_cfg.c **** 			{0x33u, 0x01u},
 320:Generated_Source\PSoC4/cyfitter_cfg.c **** 			{0x34u, 0x08u},
 321:Generated_Source\PSoC4/cyfitter_cfg.c **** 			{0x36u, 0x02u},
ARM GAS  C:\Users\jagumiel\AppData\Local\Temp\ccdaHeu0.s 			page 11


 322:Generated_Source\PSoC4/cyfitter_cfg.c **** 			{0x3Fu, 0x04u},
 323:Generated_Source\PSoC4/cyfitter_cfg.c **** 			{0x40u, 0x20u},
 324:Generated_Source\PSoC4/cyfitter_cfg.c **** 			{0x41u, 0x05u},
 325:Generated_Source\PSoC4/cyfitter_cfg.c **** 			{0x45u, 0xD1u},
 326:Generated_Source\PSoC4/cyfitter_cfg.c **** 			{0x47u, 0x20u},
 327:Generated_Source\PSoC4/cyfitter_cfg.c **** 			{0x48u, 0x23u},
 328:Generated_Source\PSoC4/cyfitter_cfg.c **** 			{0x49u, 0xFFu},
 329:Generated_Source\PSoC4/cyfitter_cfg.c **** 			{0x4Au, 0xFFu},
 330:Generated_Source\PSoC4/cyfitter_cfg.c **** 			{0x4Bu, 0xFFu},
 331:Generated_Source\PSoC4/cyfitter_cfg.c **** 			{0x4Du, 0xA0u},
 332:Generated_Source\PSoC4/cyfitter_cfg.c **** 			{0x4Fu, 0x04u},
 333:Generated_Source\PSoC4/cyfitter_cfg.c **** 			{0x50u, 0x18u},
 334:Generated_Source\PSoC4/cyfitter_cfg.c **** 			{0x52u, 0x80u},
 335:Generated_Source\PSoC4/cyfitter_cfg.c **** 			{0x54u, 0x05u},
 336:Generated_Source\PSoC4/cyfitter_cfg.c **** 			{0x58u, 0x04u},
 337:Generated_Source\PSoC4/cyfitter_cfg.c **** 			{0x59u, 0x04u},
 338:Generated_Source\PSoC4/cyfitter_cfg.c **** 			{0x5Au, 0x04u},
 339:Generated_Source\PSoC4/cyfitter_cfg.c **** 			{0x5Bu, 0x04u},
 340:Generated_Source\PSoC4/cyfitter_cfg.c **** 			{0x5Fu, 0x01u},
 341:Generated_Source\PSoC4/cyfitter_cfg.c **** 			{0x60u, 0x40u},
 342:Generated_Source\PSoC4/cyfitter_cfg.c **** 			{0x62u, 0xC0u},
 343:Generated_Source\PSoC4/cyfitter_cfg.c **** 			{0x64u, 0x40u},
 344:Generated_Source\PSoC4/cyfitter_cfg.c **** 			{0x65u, 0x40u},
 345:Generated_Source\PSoC4/cyfitter_cfg.c **** 			{0x66u, 0xC0u},
 346:Generated_Source\PSoC4/cyfitter_cfg.c **** 			{0x68u, 0xC0u},
 347:Generated_Source\PSoC4/cyfitter_cfg.c **** 			{0x6Au, 0xC0u},
 348:Generated_Source\PSoC4/cyfitter_cfg.c **** 			{0x6Cu, 0xC0u},
 349:Generated_Source\PSoC4/cyfitter_cfg.c **** 			{0x6Eu, 0xC0u},
 350:Generated_Source\PSoC4/cyfitter_cfg.c **** 			{0x00u, 0x04u},
 351:Generated_Source\PSoC4/cyfitter_cfg.c **** 			{0x09u, 0x02u},
 352:Generated_Source\PSoC4/cyfitter_cfg.c **** 			{0x0Au, 0x01u},
 353:Generated_Source\PSoC4/cyfitter_cfg.c **** 			{0x10u, 0x20u},
 354:Generated_Source\PSoC4/cyfitter_cfg.c **** 			{0x18u, 0x24u},
 355:Generated_Source\PSoC4/cyfitter_cfg.c **** 			{0x1Au, 0x41u},
 356:Generated_Source\PSoC4/cyfitter_cfg.c **** 			{0x22u, 0x04u},
 357:Generated_Source\PSoC4/cyfitter_cfg.c **** 			{0x30u, 0x02u},
 358:Generated_Source\PSoC4/cyfitter_cfg.c **** 			{0x38u, 0x04u},
 359:Generated_Source\PSoC4/cyfitter_cfg.c **** 			{0x40u, 0x04u},
 360:Generated_Source\PSoC4/cyfitter_cfg.c **** 			{0x48u, 0x22u},
 361:Generated_Source\PSoC4/cyfitter_cfg.c **** 			{0x49u, 0x01u},
 362:Generated_Source\PSoC4/cyfitter_cfg.c **** 			{0x50u, 0x02u},
 363:Generated_Source\PSoC4/cyfitter_cfg.c **** 			{0x59u, 0x01u},
 364:Generated_Source\PSoC4/cyfitter_cfg.c **** 			{0x5Au, 0x48u},
 365:Generated_Source\PSoC4/cyfitter_cfg.c **** 			{0x71u, 0x02u},
 366:Generated_Source\PSoC4/cyfitter_cfg.c **** 			{0xC0u, 0x04u},
 367:Generated_Source\PSoC4/cyfitter_cfg.c **** 			{0xC2u, 0x09u},
 368:Generated_Source\PSoC4/cyfitter_cfg.c **** 			{0xC4u, 0x04u},
 369:Generated_Source\PSoC4/cyfitter_cfg.c **** 			{0xCCu, 0x01u},
 370:Generated_Source\PSoC4/cyfitter_cfg.c **** 			{0xCEu, 0x02u},
 371:Generated_Source\PSoC4/cyfitter_cfg.c **** 			{0xD0u, 0x04u},
 372:Generated_Source\PSoC4/cyfitter_cfg.c **** 			{0xD2u, 0x08u},
 373:Generated_Source\PSoC4/cyfitter_cfg.c **** 			{0xD6u, 0x0Bu},
 374:Generated_Source\PSoC4/cyfitter_cfg.c **** 			{0x0Fu, 0x01u},
 375:Generated_Source\PSoC4/cyfitter_cfg.c **** 			{0x14u, 0x01u},
 376:Generated_Source\PSoC4/cyfitter_cfg.c **** 			{0x18u, 0x07u},
 377:Generated_Source\PSoC4/cyfitter_cfg.c **** 			{0x1Eu, 0x04u},
 378:Generated_Source\PSoC4/cyfitter_cfg.c **** 			{0x23u, 0x01u},
ARM GAS  C:\Users\jagumiel\AppData\Local\Temp\ccdaHeu0.s 			page 12


 379:Generated_Source\PSoC4/cyfitter_cfg.c **** 			{0x2Eu, 0x08u},
 380:Generated_Source\PSoC4/cyfitter_cfg.c **** 			{0x30u, 0x01u},
 381:Generated_Source\PSoC4/cyfitter_cfg.c **** 			{0x32u, 0x02u},
 382:Generated_Source\PSoC4/cyfitter_cfg.c **** 			{0x34u, 0x04u},
 383:Generated_Source\PSoC4/cyfitter_cfg.c **** 			{0x35u, 0x01u},
 384:Generated_Source\PSoC4/cyfitter_cfg.c **** 			{0x36u, 0x08u},
 385:Generated_Source\PSoC4/cyfitter_cfg.c **** 			{0x3Fu, 0x10u},
 386:Generated_Source\PSoC4/cyfitter_cfg.c **** 			{0x40u, 0x10u},
 387:Generated_Source\PSoC4/cyfitter_cfg.c **** 			{0x41u, 0x05u},
 388:Generated_Source\PSoC4/cyfitter_cfg.c **** 			{0x45u, 0xD1u},
 389:Generated_Source\PSoC4/cyfitter_cfg.c **** 			{0x46u, 0x02u},
 390:Generated_Source\PSoC4/cyfitter_cfg.c **** 			{0x48u, 0x07u},
 391:Generated_Source\PSoC4/cyfitter_cfg.c **** 			{0x49u, 0xFFu},
 392:Generated_Source\PSoC4/cyfitter_cfg.c **** 			{0x4Au, 0xFFu},
 393:Generated_Source\PSoC4/cyfitter_cfg.c **** 			{0x4Bu, 0xFFu},
 394:Generated_Source\PSoC4/cyfitter_cfg.c **** 			{0x4Du, 0xA0u},
 395:Generated_Source\PSoC4/cyfitter_cfg.c **** 			{0x4Fu, 0x04u},
 396:Generated_Source\PSoC4/cyfitter_cfg.c **** 			{0x50u, 0x18u},
 397:Generated_Source\PSoC4/cyfitter_cfg.c **** 			{0x52u, 0x80u},
 398:Generated_Source\PSoC4/cyfitter_cfg.c **** 			{0x54u, 0x05u},
 399:Generated_Source\PSoC4/cyfitter_cfg.c **** 			{0x58u, 0x04u},
 400:Generated_Source\PSoC4/cyfitter_cfg.c **** 			{0x59u, 0x04u},
 401:Generated_Source\PSoC4/cyfitter_cfg.c **** 			{0x5Au, 0x04u},
 402:Generated_Source\PSoC4/cyfitter_cfg.c **** 			{0x5Bu, 0x04u},
 403:Generated_Source\PSoC4/cyfitter_cfg.c **** 			{0x5Fu, 0x01u},
 404:Generated_Source\PSoC4/cyfitter_cfg.c **** 			{0x60u, 0x40u},
 405:Generated_Source\PSoC4/cyfitter_cfg.c **** 			{0x62u, 0xC0u},
 406:Generated_Source\PSoC4/cyfitter_cfg.c **** 			{0x64u, 0x40u},
 407:Generated_Source\PSoC4/cyfitter_cfg.c **** 			{0x65u, 0x40u},
 408:Generated_Source\PSoC4/cyfitter_cfg.c **** 			{0x66u, 0xC0u},
 409:Generated_Source\PSoC4/cyfitter_cfg.c **** 			{0x68u, 0xC0u},
 410:Generated_Source\PSoC4/cyfitter_cfg.c **** 			{0x6Au, 0xC0u},
 411:Generated_Source\PSoC4/cyfitter_cfg.c **** 			{0x6Cu, 0xC0u},
 412:Generated_Source\PSoC4/cyfitter_cfg.c **** 			{0x6Eu, 0xC0u},
 413:Generated_Source\PSoC4/cyfitter_cfg.c **** 			{0x86u, 0x04u},
 414:Generated_Source\PSoC4/cyfitter_cfg.c **** 			{0x87u, 0x01u},
 415:Generated_Source\PSoC4/cyfitter_cfg.c **** 			{0x92u, 0x08u},
 416:Generated_Source\PSoC4/cyfitter_cfg.c **** 			{0x97u, 0x01u},
 417:Generated_Source\PSoC4/cyfitter_cfg.c **** 			{0x9Cu, 0x01u},
 418:Generated_Source\PSoC4/cyfitter_cfg.c **** 			{0xA4u, 0x07u},
 419:Generated_Source\PSoC4/cyfitter_cfg.c **** 			{0xB0u, 0x01u},
 420:Generated_Source\PSoC4/cyfitter_cfg.c **** 			{0xB2u, 0x04u},
 421:Generated_Source\PSoC4/cyfitter_cfg.c **** 			{0xB3u, 0x01u},
 422:Generated_Source\PSoC4/cyfitter_cfg.c **** 			{0xB4u, 0x08u},
 423:Generated_Source\PSoC4/cyfitter_cfg.c **** 			{0xB6u, 0x02u},
 424:Generated_Source\PSoC4/cyfitter_cfg.c **** 			{0xBFu, 0x04u},
 425:Generated_Source\PSoC4/cyfitter_cfg.c **** 			{0xC0u, 0x20u},
 426:Generated_Source\PSoC4/cyfitter_cfg.c **** 			{0xC1u, 0x06u},
 427:Generated_Source\PSoC4/cyfitter_cfg.c **** 			{0xC5u, 0xD1u},
 428:Generated_Source\PSoC4/cyfitter_cfg.c **** 			{0xC7u, 0x02u},
 429:Generated_Source\PSoC4/cyfitter_cfg.c **** 			{0xC8u, 0x13u},
 430:Generated_Source\PSoC4/cyfitter_cfg.c **** 			{0xC9u, 0xFFu},
 431:Generated_Source\PSoC4/cyfitter_cfg.c **** 			{0xCAu, 0xFFu},
 432:Generated_Source\PSoC4/cyfitter_cfg.c **** 			{0xCBu, 0xFFu},
 433:Generated_Source\PSoC4/cyfitter_cfg.c **** 			{0xCDu, 0xA0u},
 434:Generated_Source\PSoC4/cyfitter_cfg.c **** 			{0xCFu, 0x04u},
 435:Generated_Source\PSoC4/cyfitter_cfg.c **** 			{0xD0u, 0x18u},
ARM GAS  C:\Users\jagumiel\AppData\Local\Temp\ccdaHeu0.s 			page 13


 436:Generated_Source\PSoC4/cyfitter_cfg.c **** 			{0xD2u, 0x80u},
 437:Generated_Source\PSoC4/cyfitter_cfg.c **** 			{0xD4u, 0x05u},
 438:Generated_Source\PSoC4/cyfitter_cfg.c **** 			{0xD8u, 0x04u},
 439:Generated_Source\PSoC4/cyfitter_cfg.c **** 			{0xD9u, 0x04u},
 440:Generated_Source\PSoC4/cyfitter_cfg.c **** 			{0xDAu, 0x04u},
 441:Generated_Source\PSoC4/cyfitter_cfg.c **** 			{0xDBu, 0x04u},
 442:Generated_Source\PSoC4/cyfitter_cfg.c **** 			{0xDFu, 0x01u},
 443:Generated_Source\PSoC4/cyfitter_cfg.c **** 			{0xE0u, 0x40u},
 444:Generated_Source\PSoC4/cyfitter_cfg.c **** 			{0xE2u, 0xC0u},
 445:Generated_Source\PSoC4/cyfitter_cfg.c **** 			{0xE4u, 0x40u},
 446:Generated_Source\PSoC4/cyfitter_cfg.c **** 			{0xE5u, 0x40u},
 447:Generated_Source\PSoC4/cyfitter_cfg.c **** 			{0xE6u, 0xC0u},
 448:Generated_Source\PSoC4/cyfitter_cfg.c **** 			{0xE8u, 0xC0u},
 449:Generated_Source\PSoC4/cyfitter_cfg.c **** 			{0xEAu, 0xC0u},
 450:Generated_Source\PSoC4/cyfitter_cfg.c **** 			{0xECu, 0xC0u},
 451:Generated_Source\PSoC4/cyfitter_cfg.c **** 			{0xEEu, 0xC0u},
 452:Generated_Source\PSoC4/cyfitter_cfg.c **** 			{0x00u, 0x04u},
 453:Generated_Source\PSoC4/cyfitter_cfg.c **** 			{0x09u, 0x02u},
 454:Generated_Source\PSoC4/cyfitter_cfg.c **** 			{0x0Au, 0x01u},
 455:Generated_Source\PSoC4/cyfitter_cfg.c **** 			{0x0Du, 0x80u},
 456:Generated_Source\PSoC4/cyfitter_cfg.c **** 			{0x0Eu, 0x20u},
 457:Generated_Source\PSoC4/cyfitter_cfg.c **** 			{0x0Fu, 0x08u},
 458:Generated_Source\PSoC4/cyfitter_cfg.c **** 			{0x10u, 0x20u},
 459:Generated_Source\PSoC4/cyfitter_cfg.c **** 			{0x17u, 0x80u},
 460:Generated_Source\PSoC4/cyfitter_cfg.c **** 			{0x18u, 0x04u},
 461:Generated_Source\PSoC4/cyfitter_cfg.c **** 			{0x1Au, 0x61u},
 462:Generated_Source\PSoC4/cyfitter_cfg.c **** 			{0x1Du, 0x80u},
 463:Generated_Source\PSoC4/cyfitter_cfg.c **** 			{0x1Eu, 0xA4u},
 464:Generated_Source\PSoC4/cyfitter_cfg.c **** 			{0x1Fu, 0x80u},
 465:Generated_Source\PSoC4/cyfitter_cfg.c **** 			{0x22u, 0x04u},
 466:Generated_Source\PSoC4/cyfitter_cfg.c **** 			{0x27u, 0x08u},
 467:Generated_Source\PSoC4/cyfitter_cfg.c **** 			{0x2Fu, 0x80u},
 468:Generated_Source\PSoC4/cyfitter_cfg.c **** 			{0x30u, 0x08u},
 469:Generated_Source\PSoC4/cyfitter_cfg.c **** 			{0x38u, 0x04u},
 470:Generated_Source\PSoC4/cyfitter_cfg.c **** 			{0x3Fu, 0x80u},
 471:Generated_Source\PSoC4/cyfitter_cfg.c **** 			{0x40u, 0x04u},
 472:Generated_Source\PSoC4/cyfitter_cfg.c **** 			{0x45u, 0x80u},
 473:Generated_Source\PSoC4/cyfitter_cfg.c **** 			{0x48u, 0x28u},
 474:Generated_Source\PSoC4/cyfitter_cfg.c **** 			{0x49u, 0x01u},
 475:Generated_Source\PSoC4/cyfitter_cfg.c **** 			{0x4Fu, 0x89u},
 476:Generated_Source\PSoC4/cyfitter_cfg.c **** 			{0x50u, 0x08u},
 477:Generated_Source\PSoC4/cyfitter_cfg.c **** 			{0x57u, 0x40u},
 478:Generated_Source\PSoC4/cyfitter_cfg.c **** 			{0x59u, 0x01u},
 479:Generated_Source\PSoC4/cyfitter_cfg.c **** 			{0x5Au, 0x48u},
 480:Generated_Source\PSoC4/cyfitter_cfg.c **** 			{0x5Eu, 0x80u},
 481:Generated_Source\PSoC4/cyfitter_cfg.c **** 			{0x5Fu, 0x09u},
 482:Generated_Source\PSoC4/cyfitter_cfg.c **** 			{0x71u, 0x02u},
 483:Generated_Source\PSoC4/cyfitter_cfg.c **** 			{0x77u, 0x80u},
 484:Generated_Source\PSoC4/cyfitter_cfg.c **** 			{0x82u, 0x10u},
 485:Generated_Source\PSoC4/cyfitter_cfg.c **** 			{0x86u, 0x04u},
 486:Generated_Source\PSoC4/cyfitter_cfg.c **** 			{0xA8u, 0x10u},
 487:Generated_Source\PSoC4/cyfitter_cfg.c **** 			{0xC0u, 0x04u},
 488:Generated_Source\PSoC4/cyfitter_cfg.c **** 			{0xC2u, 0xE9u},
 489:Generated_Source\PSoC4/cyfitter_cfg.c **** 			{0xC4u, 0x84u},
 490:Generated_Source\PSoC4/cyfitter_cfg.c **** 			{0xCAu, 0x80u},
 491:Generated_Source\PSoC4/cyfitter_cfg.c **** 			{0xCCu, 0x02u},
 492:Generated_Source\PSoC4/cyfitter_cfg.c **** 			{0xCEu, 0x12u},
ARM GAS  C:\Users\jagumiel\AppData\Local\Temp\ccdaHeu0.s 			page 14


 493:Generated_Source\PSoC4/cyfitter_cfg.c **** 			{0xD0u, 0x14u},
 494:Generated_Source\PSoC4/cyfitter_cfg.c **** 			{0xD2u, 0x14u},
 495:Generated_Source\PSoC4/cyfitter_cfg.c **** 			{0xD6u, 0xDBu},
 496:Generated_Source\PSoC4/cyfitter_cfg.c **** 			{0xE0u, 0x02u},
 497:Generated_Source\PSoC4/cyfitter_cfg.c **** 			{0xE4u, 0x04u},
 498:Generated_Source\PSoC4/cyfitter_cfg.c **** 			{0xE8u, 0x04u},
 499:Generated_Source\PSoC4/cyfitter_cfg.c **** 			{0x62u, 0x08u},
 500:Generated_Source\PSoC4/cyfitter_cfg.c **** 			{0xD8u, 0x02u},
 501:Generated_Source\PSoC4/cyfitter_cfg.c **** 			{0x5Cu, 0x08u},
 502:Generated_Source\PSoC4/cyfitter_cfg.c **** 			{0x66u, 0x10u},
 503:Generated_Source\PSoC4/cyfitter_cfg.c **** 			{0x80u, 0x08u},
 504:Generated_Source\PSoC4/cyfitter_cfg.c **** 			{0x86u, 0x10u},
 505:Generated_Source\PSoC4/cyfitter_cfg.c **** 			{0xAAu, 0x08u},
 506:Generated_Source\PSoC4/cyfitter_cfg.c **** 			{0xD6u, 0x01u},
 507:Generated_Source\PSoC4/cyfitter_cfg.c **** 			{0xD8u, 0x01u},
 508:Generated_Source\PSoC4/cyfitter_cfg.c **** 			{0x01u, 0x01u},
 509:Generated_Source\PSoC4/cyfitter_cfg.c **** 			{0x10u, 0x01u},
 510:Generated_Source\PSoC4/cyfitter_cfg.c **** 		};
 511:Generated_Source\PSoC4/cyfitter_cfg.c **** 
 512:Generated_Source\PSoC4/cyfitter_cfg.c **** 
 513:Generated_Source\PSoC4/cyfitter_cfg.c **** 
 514:Generated_Source\PSoC4/cyfitter_cfg.c **** 		CYPACKED typedef struct {
 515:Generated_Source\PSoC4/cyfitter_cfg.c **** 			void CYFAR *address;
 516:Generated_Source\PSoC4/cyfitter_cfg.c **** 			uint16 size;
 517:Generated_Source\PSoC4/cyfitter_cfg.c **** 		} CYPACKED_ATTR cfg_memset_t;
 518:Generated_Source\PSoC4/cyfitter_cfg.c **** 
 519:Generated_Source\PSoC4/cyfitter_cfg.c **** 		static const cfg_memset_t CYCODE cfg_memset_list[] = {
 520:Generated_Source\PSoC4/cyfitter_cfg.c **** 			/* address, size */
 521:Generated_Source\PSoC4/cyfitter_cfg.c **** 			{(void CYFAR *)(CYDEV_UDB_P0_U0_BASE), 1024u},
 522:Generated_Source\PSoC4/cyfitter_cfg.c **** 			{(void CYFAR *)(CYDEV_UDB_DSI0_BASE), 1024u},
 523:Generated_Source\PSoC4/cyfitter_cfg.c **** 		};
 524:Generated_Source\PSoC4/cyfitter_cfg.c **** 
 525:Generated_Source\PSoC4/cyfitter_cfg.c **** 		uint8 CYDATA i;
 526:Generated_Source\PSoC4/cyfitter_cfg.c **** 
 527:Generated_Source\PSoC4/cyfitter_cfg.c **** 		/* Zero out critical memory blocks before beginning configuration */
 528:Generated_Source\PSoC4/cyfitter_cfg.c **** 		for (i = 0u; i < (sizeof(cfg_memset_list)/sizeof(cfg_memset_list[0])); i++)
 244              		.loc 1 528 0
 245 0094 0024     		movs	r4, #0
 246 0096 0FE0     		b	.L11
 247              	.LVL19:
 248              	.L12:
 249              	.LBB4:
 529:Generated_Source\PSoC4/cyfitter_cfg.c **** 		{
 530:Generated_Source\PSoC4/cyfitter_cfg.c **** 			const cfg_memset_t CYCODE * CYDATA ms = &cfg_memset_list[i];
 531:Generated_Source\PSoC4/cyfitter_cfg.c **** 			CYMEMZERO(ms->address, (size_t)(uint32)(ms->size));
 250              		.loc 1 531 0 discriminator 3
 251 0098 2A48     		ldr	r0, .L13
 252 009a 6200     		lsls	r2, r4, #1
 253 009c 1319     		adds	r3, r2, r4
 254 009e 5900     		lsls	r1, r3, #1
 255 00a0 0B00     		movs	r3, r1
 256 00a2 4118     		adds	r1, r0, r1
 257 00a4 8988     		ldrh	r1, [r1, #4]
 258 00a6 1A5A     		ldrh	r2, [r3, r0]
 259 00a8 C318     		adds	r3, r0, r3
 260 00aa 5888     		ldrh	r0, [r3, #2]
 261 00ac 0004     		lsls	r0, r0, #16
ARM GAS  C:\Users\jagumiel\AppData\Local\Temp\ccdaHeu0.s 			page 15


 262 00ae 1043     		orrs	r0, r2
 263 00b0 FFF7FEFF 		bl	CYMEMZERO
 264              	.LVL20:
 265              	.LBE4:
 528:Generated_Source\PSoC4/cyfitter_cfg.c **** 		{
 266              		.loc 1 528 0 discriminator 3
 267 00b4 0134     		adds	r4, r4, #1
 268              	.LVL21:
 269 00b6 E4B2     		uxtb	r4, r4
 270              	.LVL22:
 271              	.L11:
 528:Generated_Source\PSoC4/cyfitter_cfg.c **** 		{
 272              		.loc 1 528 0 is_stmt 0 discriminator 1
 273 00b8 012C     		cmp	r4, #1
 274 00ba EDD9     		bls	.L12
 532:Generated_Source\PSoC4/cyfitter_cfg.c **** 		}
 533:Generated_Source\PSoC4/cyfitter_cfg.c **** 
 534:Generated_Source\PSoC4/cyfitter_cfg.c **** 		cfg_write_bytes32(cy_cfg_addr_table, cy_cfg_data_table);
 275              		.loc 1 534 0 is_stmt 1
 276 00bc 2149     		ldr	r1, .L13
 277 00be 0C31     		adds	r1, r1, #12
 278 00c0 2148     		ldr	r0, .L13+4
 279 00c2 2030     		adds	r0, r0, #32
 280 00c4 FFF7FEFF 		bl	cfg_write_bytes32
 281              	.LVL23:
 535:Generated_Source\PSoC4/cyfitter_cfg.c **** 
 536:Generated_Source\PSoC4/cyfitter_cfg.c **** 		/* HSIOM Starting address: CYDEV_HSIOM_BASE */
 537:Generated_Source\PSoC4/cyfitter_cfg.c **** 		CY_SET_REG32((void *)(CYREG_HSIOM_PORT_SEL2), 0x03000000u);
 282              		.loc 1 537 0
 283 00c8 C022     		movs	r2, #192
 284 00ca 9204     		lsls	r2, r2, #18
 285 00cc 1F4B     		ldr	r3, .L13+8
 286 00ce 1A60     		str	r2, [r3]
 538:Generated_Source\PSoC4/cyfitter_cfg.c **** 		CY_SET_REG32((void *)(CYREG_HSIOM_PORT_SEL3), 0x0303EE00u);
 287              		.loc 1 538 0
 288 00d0 1F4A     		ldr	r2, .L13+12
 289 00d2 204B     		ldr	r3, .L13+16
 290 00d4 1A60     		str	r2, [r3]
 539:Generated_Source\PSoC4/cyfitter_cfg.c **** 		CY_SET_REG32((void *)(CYREG_HSIOM_PORT_SEL4), 0x00000099u);
 291              		.loc 1 539 0
 292 00d6 9922     		movs	r2, #153
 293 00d8 1F4B     		ldr	r3, .L13+20
 294 00da 1A60     		str	r2, [r3]
 540:Generated_Source\PSoC4/cyfitter_cfg.c **** 
 541:Generated_Source\PSoC4/cyfitter_cfg.c **** 		/* UDB_PA_2 Starting address: CYDEV_UDB_PA2_BASE */
 542:Generated_Source\PSoC4/cyfitter_cfg.c **** 		CY_SET_REG32((void *)(CYDEV_UDB_PA2_BASE), 0x00990000u);
 295              		.loc 1 542 0
 296 00dc 9923     		movs	r3, #153
 297 00de 1B04     		lsls	r3, r3, #16
 298 00e0 1E4A     		ldr	r2, .L13+24
 299 00e2 1360     		str	r3, [r2]
 543:Generated_Source\PSoC4/cyfitter_cfg.c **** 		CY_SET_REG32((void *)(CYREG_UDB_PA2_CFG8), 0x20000000u);
 300              		.loc 1 543 0
 301 00e4 8021     		movs	r1, #128
 302 00e6 8905     		lsls	r1, r1, #22
 303 00e8 1D4A     		ldr	r2, .L13+28
 304 00ea 1160     		str	r1, [r2]
ARM GAS  C:\Users\jagumiel\AppData\Local\Temp\ccdaHeu0.s 			page 16


 544:Generated_Source\PSoC4/cyfitter_cfg.c **** 
 545:Generated_Source\PSoC4/cyfitter_cfg.c **** 		/* UDB_PA_3 Starting address: CYDEV_UDB_PA3_BASE */
 546:Generated_Source\PSoC4/cyfitter_cfg.c **** 		CY_SET_REG32((void *)(CYDEV_UDB_PA3_BASE), 0x00990000u);
 305              		.loc 1 546 0
 306 00ec 1D4A     		ldr	r2, .L13+32
 307 00ee 1360     		str	r3, [r2]
 547:Generated_Source\PSoC4/cyfitter_cfg.c **** 		CY_SET_REG32((void *)(CYREG_UDB_PA3_CFG8), 0x13000000u);
 308              		.loc 1 547 0
 309 00f0 9822     		movs	r2, #152
 310 00f2 5205     		lsls	r2, r2, #21
 311 00f4 1C4B     		ldr	r3, .L13+36
 312 00f6 1A60     		str	r2, [r3]
 548:Generated_Source\PSoC4/cyfitter_cfg.c **** 
 549:Generated_Source\PSoC4/cyfitter_cfg.c **** 		/* Enable UDB array and digital routing */
 550:Generated_Source\PSoC4/cyfitter_cfg.c **** 		CY_SET_XTND_REG8((void *)CYREG_UDB_UDBIF_WAIT_CFG, (uint8)((CY_GET_XTND_REG8((void *)CYREG_UDB_UD
 313              		.loc 1 550 0
 314 00f8 1C49     		ldr	r1, .L13+40
 315 00fa 0B78     		ldrb	r3, [r1]
 316 00fc 3C22     		movs	r2, #60
 317 00fe 9343     		bics	r3, r2
 318 0100 1422     		movs	r2, #20
 319 0102 1343     		orrs	r3, r2
 320 0104 DBB2     		uxtb	r3, r3
 321 0106 0B70     		strb	r3, [r1]
 551:Generated_Source\PSoC4/cyfitter_cfg.c **** 		CY_SET_XTND_REG8((void *)CYREG_UDB_UDBIF_BANK_CTL, (uint8)(CY_GET_XTND_REG8((void *)CYREG_UDB_UDB
 322              		.loc 1 551 0
 323 0108 194A     		ldr	r2, .L13+44
 324 010a 1178     		ldrb	r1, [r2]
 325 010c 1623     		movs	r3, #22
 326 010e 0B43     		orrs	r3, r1
 327 0110 DBB2     		uxtb	r3, r3
 328 0112 1370     		strb	r3, [r2]
 329              	.LBE3:
 552:Generated_Source\PSoC4/cyfitter_cfg.c **** 	}
 553:Generated_Source\PSoC4/cyfitter_cfg.c **** 
 554:Generated_Source\PSoC4/cyfitter_cfg.c **** 	/* Perform second pass device configuration. These items must be configured in specific order afte
 555:Generated_Source\PSoC4/cyfitter_cfg.c **** 	/* IOPINS0_2 Starting address: CYDEV_PRT2_BASE */
 556:Generated_Source\PSoC4/cyfitter_cfg.c **** 	CY_SET_REG32((void *)(CYDEV_PRT2_BASE), 0x00000040u);
 330              		.loc 1 556 0
 331 0114 4022     		movs	r2, #64
 332 0116 174B     		ldr	r3, .L13+48
 333 0118 1A60     		str	r2, [r3]
 557:Generated_Source\PSoC4/cyfitter_cfg.c **** 	CY_SET_REG32((void *)(CYREG_PRT2_PC), 0x00180000u);
 334              		.loc 1 557 0
 335 011a C022     		movs	r2, #192
 336 011c 5203     		lsls	r2, r2, #13
 337 011e 164B     		ldr	r3, .L13+52
 338 0120 1A60     		str	r2, [r3]
 558:Generated_Source\PSoC4/cyfitter_cfg.c **** 
 559:Generated_Source\PSoC4/cyfitter_cfg.c **** 	/* IOPINS0_3 Starting address: CYDEV_PRT3_BASE */
 560:Generated_Source\PSoC4/cyfitter_cfg.c **** 	CY_SET_REG32((void *)(CYDEV_PRT3_BASE), 0x00000050u);
 339              		.loc 1 560 0
 340 0122 5022     		movs	r2, #80
 341 0124 154B     		ldr	r3, .L13+56
 342 0126 1A60     		str	r2, [r3]
 561:Generated_Source\PSoC4/cyfitter_cfg.c **** 	CY_SET_REG32((void *)(CYREG_PRT3_PC), 0x00186D80u);
 343              		.loc 1 561 0
ARM GAS  C:\Users\jagumiel\AppData\Local\Temp\ccdaHeu0.s 			page 17


 344 0128 154A     		ldr	r2, .L13+60
 345 012a 164B     		ldr	r3, .L13+64
 346 012c 1A60     		str	r2, [r3]
 562:Generated_Source\PSoC4/cyfitter_cfg.c **** 
 563:Generated_Source\PSoC4/cyfitter_cfg.c **** 	/* IOPINS0_4 Starting address: CYDEV_PRT4_BASE */
 564:Generated_Source\PSoC4/cyfitter_cfg.c **** 	CY_SET_REG32((void *)(CYDEV_PRT4_BASE), 0x00000002u);
 347              		.loc 1 564 0
 348 012e 0223     		movs	r3, #2
 349 0130 154A     		ldr	r2, .L13+68
 350 0132 1360     		str	r3, [r2]
 565:Generated_Source\PSoC4/cyfitter_cfg.c **** 	CY_SET_REG32((void *)(CYREG_PRT4_PC), 0x00000031u);
 351              		.loc 1 565 0
 352 0134 3121     		movs	r1, #49
 353 0136 154A     		ldr	r2, .L13+72
 354 0138 1160     		str	r1, [r2]
 566:Generated_Source\PSoC4/cyfitter_cfg.c **** 	CY_SET_REG32((void *)(CYREG_PRT4_PC2), 0x00000002u);
 355              		.loc 1 566 0
 356 013a 154A     		ldr	r2, .L13+76
 357 013c 1360     		str	r3, [r2]
 567:Generated_Source\PSoC4/cyfitter_cfg.c **** 
 568:Generated_Source\PSoC4/cyfitter_cfg.c **** 
 569:Generated_Source\PSoC4/cyfitter_cfg.c **** 	/* Setup clocks based on selections from Clock DWR */
 570:Generated_Source\PSoC4/cyfitter_cfg.c **** 	ClockSetup();
 358              		.loc 1 570 0
 359 013e FFF75FFF 		bl	ClockSetup
 360              	.LVL24:
 571:Generated_Source\PSoC4/cyfitter_cfg.c **** 
 572:Generated_Source\PSoC4/cyfitter_cfg.c **** 	/* Perform basic analog initialization to defaults */
 573:Generated_Source\PSoC4/cyfitter_cfg.c **** 	AnalogSetDefault();
 574:Generated_Source\PSoC4/cyfitter_cfg.c **** 
 575:Generated_Source\PSoC4/cyfitter_cfg.c **** }
 361              		.loc 1 575 0
 362              		@ sp needed
 363              	.LVL25:
 364 0142 10BD     		pop	{r4, pc}
 365              	.L14:
 366              		.align	2
 367              	.L13:
 368 0144 00000000 		.word	.LANCHOR0
 369 0148 80010000 		.word	.LANCHOR1
 370 014c 08000140 		.word	1073807368
 371 0150 00EE0303 		.word	50589184
 372 0154 0C000140 		.word	1073807372
 373 0158 10000140 		.word	1073807376
 374 015c 20500F40 		.word	1074745376
 375 0160 28500F40 		.word	1074745384
 376 0164 30500F40 		.word	1074745392
 377 0168 38500F40 		.word	1074745400
 378 016c 01700F40 		.word	1074753537
 379 0170 00700F40 		.word	1074753536
 380 0174 00020440 		.word	1074004480
 381 0178 08020440 		.word	1074004488
 382 017c 00030440 		.word	1074004736
 383 0180 806D1800 		.word	1600896
 384 0184 08030440 		.word	1074004744
 385 0188 00040440 		.word	1074004992
 386 018c 08040440 		.word	1074005000
ARM GAS  C:\Users\jagumiel\AppData\Local\Temp\ccdaHeu0.s 			page 18


 387 0190 18040440 		.word	1074005016
 388              		.cfi_endproc
 389              	.LFE6:
 390              		.size	cyfitter_cfg, .-cyfitter_cfg
 391              		.section	.rodata
 392              		.align	2
 393              		.set	.LANCHOR0,. + 0
 394              		.set	.LANCHOR1,. + 384
 395              		.type	cfg_memset_list.4870, %object
 396              		.size	cfg_memset_list.4870, 12
 397              	cfg_memset_list.4870:
 398 0000 00300F40 		.word	1074737152
 399 0004 0004     		.short	1024
 400 0006 00400F40 		.4byte	1074741248
 401 000a 0004     		.short	1024
 402              		.type	cy_cfg_data_table.4865, %object
 403              		.size	cy_cfg_data_table.4865, 404
 404              	cy_cfg_data_table.4865:
 405 000c 80       		.byte	-128
 406 000d 0D       		.byte	13
 407 000e 82       		.byte	-126
 408 000f 0D       		.byte	13
 409 0010 83       		.byte	-125
 410 0011 0D       		.byte	13
 411 0012 06       		.byte	6
 412 0013 04       		.byte	4
 413 0014 07       		.byte	7
 414 0015 01       		.byte	1
 415 0016 12       		.byte	18
 416 0017 08       		.byte	8
 417 0018 13       		.byte	19
 418 0019 01       		.byte	1
 419 001a 1C       		.byte	28
 420 001b 01       		.byte	1
 421 001c 24       		.byte	36
 422 001d 07       		.byte	7
 423 001e 30       		.byte	48
 424 001f 01       		.byte	1
 425 0020 32       		.byte	50
 426 0021 04       		.byte	4
 427 0022 33       		.byte	51
 428 0023 01       		.byte	1
 429 0024 34       		.byte	52
 430 0025 08       		.byte	8
 431 0026 36       		.byte	54
 432 0027 02       		.byte	2
 433 0028 3F       		.byte	63
 434 0029 04       		.byte	4
 435 002a 40       		.byte	64
 436 002b 20       		.byte	32
 437 002c 41       		.byte	65
 438 002d 05       		.byte	5
 439 002e 45       		.byte	69
 440 002f D1       		.byte	-47
 441 0030 47       		.byte	71
 442 0031 20       		.byte	32
 443 0032 48       		.byte	72
ARM GAS  C:\Users\jagumiel\AppData\Local\Temp\ccdaHeu0.s 			page 19


 444 0033 23       		.byte	35
 445 0034 49       		.byte	73
 446 0035 FF       		.byte	-1
 447 0036 4A       		.byte	74
 448 0037 FF       		.byte	-1
 449 0038 4B       		.byte	75
 450 0039 FF       		.byte	-1
 451 003a 4D       		.byte	77
 452 003b A0       		.byte	-96
 453 003c 4F       		.byte	79
 454 003d 04       		.byte	4
 455 003e 50       		.byte	80
 456 003f 18       		.byte	24
 457 0040 52       		.byte	82
 458 0041 80       		.byte	-128
 459 0042 54       		.byte	84
 460 0043 05       		.byte	5
 461 0044 58       		.byte	88
 462 0045 04       		.byte	4
 463 0046 59       		.byte	89
 464 0047 04       		.byte	4
 465 0048 5A       		.byte	90
 466 0049 04       		.byte	4
 467 004a 5B       		.byte	91
 468 004b 04       		.byte	4
 469 004c 5F       		.byte	95
 470 004d 01       		.byte	1
 471 004e 60       		.byte	96
 472 004f 40       		.byte	64
 473 0050 62       		.byte	98
 474 0051 C0       		.byte	-64
 475 0052 64       		.byte	100
 476 0053 40       		.byte	64
 477 0054 65       		.byte	101
 478 0055 40       		.byte	64
 479 0056 66       		.byte	102
 480 0057 C0       		.byte	-64
 481 0058 68       		.byte	104
 482 0059 C0       		.byte	-64
 483 005a 6A       		.byte	106
 484 005b C0       		.byte	-64
 485 005c 6C       		.byte	108
 486 005d C0       		.byte	-64
 487 005e 6E       		.byte	110
 488 005f C0       		.byte	-64
 489 0060 00       		.byte	0
 490 0061 04       		.byte	4
 491 0062 09       		.byte	9
 492 0063 02       		.byte	2
 493 0064 0A       		.byte	10
 494 0065 01       		.byte	1
 495 0066 10       		.byte	16
 496 0067 20       		.byte	32
 497 0068 18       		.byte	24
 498 0069 24       		.byte	36
 499 006a 1A       		.byte	26
 500 006b 41       		.byte	65
ARM GAS  C:\Users\jagumiel\AppData\Local\Temp\ccdaHeu0.s 			page 20


 501 006c 22       		.byte	34
 502 006d 04       		.byte	4
 503 006e 30       		.byte	48
 504 006f 02       		.byte	2
 505 0070 38       		.byte	56
 506 0071 04       		.byte	4
 507 0072 40       		.byte	64
 508 0073 04       		.byte	4
 509 0074 48       		.byte	72
 510 0075 22       		.byte	34
 511 0076 49       		.byte	73
 512 0077 01       		.byte	1
 513 0078 50       		.byte	80
 514 0079 02       		.byte	2
 515 007a 59       		.byte	89
 516 007b 01       		.byte	1
 517 007c 5A       		.byte	90
 518 007d 48       		.byte	72
 519 007e 71       		.byte	113
 520 007f 02       		.byte	2
 521 0080 C0       		.byte	-64
 522 0081 04       		.byte	4
 523 0082 C2       		.byte	-62
 524 0083 09       		.byte	9
 525 0084 C4       		.byte	-60
 526 0085 04       		.byte	4
 527 0086 CC       		.byte	-52
 528 0087 01       		.byte	1
 529 0088 CE       		.byte	-50
 530 0089 02       		.byte	2
 531 008a D0       		.byte	-48
 532 008b 04       		.byte	4
 533 008c D2       		.byte	-46
 534 008d 08       		.byte	8
 535 008e D6       		.byte	-42
 536 008f 0B       		.byte	11
 537 0090 0F       		.byte	15
 538 0091 01       		.byte	1
 539 0092 14       		.byte	20
 540 0093 01       		.byte	1
 541 0094 18       		.byte	24
 542 0095 07       		.byte	7
 543 0096 1E       		.byte	30
 544 0097 04       		.byte	4
 545 0098 23       		.byte	35
 546 0099 01       		.byte	1
 547 009a 2E       		.byte	46
 548 009b 08       		.byte	8
 549 009c 30       		.byte	48
 550 009d 01       		.byte	1
 551 009e 32       		.byte	50
 552 009f 02       		.byte	2
 553 00a0 34       		.byte	52
 554 00a1 04       		.byte	4
 555 00a2 35       		.byte	53
 556 00a3 01       		.byte	1
 557 00a4 36       		.byte	54
ARM GAS  C:\Users\jagumiel\AppData\Local\Temp\ccdaHeu0.s 			page 21


 558 00a5 08       		.byte	8
 559 00a6 3F       		.byte	63
 560 00a7 10       		.byte	16
 561 00a8 40       		.byte	64
 562 00a9 10       		.byte	16
 563 00aa 41       		.byte	65
 564 00ab 05       		.byte	5
 565 00ac 45       		.byte	69
 566 00ad D1       		.byte	-47
 567 00ae 46       		.byte	70
 568 00af 02       		.byte	2
 569 00b0 48       		.byte	72
 570 00b1 07       		.byte	7
 571 00b2 49       		.byte	73
 572 00b3 FF       		.byte	-1
 573 00b4 4A       		.byte	74
 574 00b5 FF       		.byte	-1
 575 00b6 4B       		.byte	75
 576 00b7 FF       		.byte	-1
 577 00b8 4D       		.byte	77
 578 00b9 A0       		.byte	-96
 579 00ba 4F       		.byte	79
 580 00bb 04       		.byte	4
 581 00bc 50       		.byte	80
 582 00bd 18       		.byte	24
 583 00be 52       		.byte	82
 584 00bf 80       		.byte	-128
 585 00c0 54       		.byte	84
 586 00c1 05       		.byte	5
 587 00c2 58       		.byte	88
 588 00c3 04       		.byte	4
 589 00c4 59       		.byte	89
 590 00c5 04       		.byte	4
 591 00c6 5A       		.byte	90
 592 00c7 04       		.byte	4
 593 00c8 5B       		.byte	91
 594 00c9 04       		.byte	4
 595 00ca 5F       		.byte	95
 596 00cb 01       		.byte	1
 597 00cc 60       		.byte	96
 598 00cd 40       		.byte	64
 599 00ce 62       		.byte	98
 600 00cf C0       		.byte	-64
 601 00d0 64       		.byte	100
 602 00d1 40       		.byte	64
 603 00d2 65       		.byte	101
 604 00d3 40       		.byte	64
 605 00d4 66       		.byte	102
 606 00d5 C0       		.byte	-64
 607 00d6 68       		.byte	104
 608 00d7 C0       		.byte	-64
 609 00d8 6A       		.byte	106
 610 00d9 C0       		.byte	-64
 611 00da 6C       		.byte	108
 612 00db C0       		.byte	-64
 613 00dc 6E       		.byte	110
 614 00dd C0       		.byte	-64
ARM GAS  C:\Users\jagumiel\AppData\Local\Temp\ccdaHeu0.s 			page 22


 615 00de 86       		.byte	-122
 616 00df 04       		.byte	4
 617 00e0 87       		.byte	-121
 618 00e1 01       		.byte	1
 619 00e2 92       		.byte	-110
 620 00e3 08       		.byte	8
 621 00e4 97       		.byte	-105
 622 00e5 01       		.byte	1
 623 00e6 9C       		.byte	-100
 624 00e7 01       		.byte	1
 625 00e8 A4       		.byte	-92
 626 00e9 07       		.byte	7
 627 00ea B0       		.byte	-80
 628 00eb 01       		.byte	1
 629 00ec B2       		.byte	-78
 630 00ed 04       		.byte	4
 631 00ee B3       		.byte	-77
 632 00ef 01       		.byte	1
 633 00f0 B4       		.byte	-76
 634 00f1 08       		.byte	8
 635 00f2 B6       		.byte	-74
 636 00f3 02       		.byte	2
 637 00f4 BF       		.byte	-65
 638 00f5 04       		.byte	4
 639 00f6 C0       		.byte	-64
 640 00f7 20       		.byte	32
 641 00f8 C1       		.byte	-63
 642 00f9 06       		.byte	6
 643 00fa C5       		.byte	-59
 644 00fb D1       		.byte	-47
 645 00fc C7       		.byte	-57
 646 00fd 02       		.byte	2
 647 00fe C8       		.byte	-56
 648 00ff 13       		.byte	19
 649 0100 C9       		.byte	-55
 650 0101 FF       		.byte	-1
 651 0102 CA       		.byte	-54
 652 0103 FF       		.byte	-1
 653 0104 CB       		.byte	-53
 654 0105 FF       		.byte	-1
 655 0106 CD       		.byte	-51
 656 0107 A0       		.byte	-96
 657 0108 CF       		.byte	-49
 658 0109 04       		.byte	4
 659 010a D0       		.byte	-48
 660 010b 18       		.byte	24
 661 010c D2       		.byte	-46
 662 010d 80       		.byte	-128
 663 010e D4       		.byte	-44
 664 010f 05       		.byte	5
 665 0110 D8       		.byte	-40
 666 0111 04       		.byte	4
 667 0112 D9       		.byte	-39
 668 0113 04       		.byte	4
 669 0114 DA       		.byte	-38
 670 0115 04       		.byte	4
 671 0116 DB       		.byte	-37
ARM GAS  C:\Users\jagumiel\AppData\Local\Temp\ccdaHeu0.s 			page 23


 672 0117 04       		.byte	4
 673 0118 DF       		.byte	-33
 674 0119 01       		.byte	1
 675 011a E0       		.byte	-32
 676 011b 40       		.byte	64
 677 011c E2       		.byte	-30
 678 011d C0       		.byte	-64
 679 011e E4       		.byte	-28
 680 011f 40       		.byte	64
 681 0120 E5       		.byte	-27
 682 0121 40       		.byte	64
 683 0122 E6       		.byte	-26
 684 0123 C0       		.byte	-64
 685 0124 E8       		.byte	-24
 686 0125 C0       		.byte	-64
 687 0126 EA       		.byte	-22
 688 0127 C0       		.byte	-64
 689 0128 EC       		.byte	-20
 690 0129 C0       		.byte	-64
 691 012a EE       		.byte	-18
 692 012b C0       		.byte	-64
 693 012c 00       		.byte	0
 694 012d 04       		.byte	4
 695 012e 09       		.byte	9
 696 012f 02       		.byte	2
 697 0130 0A       		.byte	10
 698 0131 01       		.byte	1
 699 0132 0D       		.byte	13
 700 0133 80       		.byte	-128
 701 0134 0E       		.byte	14
 702 0135 20       		.byte	32
 703 0136 0F       		.byte	15
 704 0137 08       		.byte	8
 705 0138 10       		.byte	16
 706 0139 20       		.byte	32
 707 013a 17       		.byte	23
 708 013b 80       		.byte	-128
 709 013c 18       		.byte	24
 710 013d 04       		.byte	4
 711 013e 1A       		.byte	26
 712 013f 61       		.byte	97
 713 0140 1D       		.byte	29
 714 0141 80       		.byte	-128
 715 0142 1E       		.byte	30
 716 0143 A4       		.byte	-92
 717 0144 1F       		.byte	31
 718 0145 80       		.byte	-128
 719 0146 22       		.byte	34
 720 0147 04       		.byte	4
 721 0148 27       		.byte	39
 722 0149 08       		.byte	8
 723 014a 2F       		.byte	47
 724 014b 80       		.byte	-128
 725 014c 30       		.byte	48
 726 014d 08       		.byte	8
 727 014e 38       		.byte	56
 728 014f 04       		.byte	4
ARM GAS  C:\Users\jagumiel\AppData\Local\Temp\ccdaHeu0.s 			page 24


 729 0150 3F       		.byte	63
 730 0151 80       		.byte	-128
 731 0152 40       		.byte	64
 732 0153 04       		.byte	4
 733 0154 45       		.byte	69
 734 0155 80       		.byte	-128
 735 0156 48       		.byte	72
 736 0157 28       		.byte	40
 737 0158 49       		.byte	73
 738 0159 01       		.byte	1
 739 015a 4F       		.byte	79
 740 015b 89       		.byte	-119
 741 015c 50       		.byte	80
 742 015d 08       		.byte	8
 743 015e 57       		.byte	87
 744 015f 40       		.byte	64
 745 0160 59       		.byte	89
 746 0161 01       		.byte	1
 747 0162 5A       		.byte	90
 748 0163 48       		.byte	72
 749 0164 5E       		.byte	94
 750 0165 80       		.byte	-128
 751 0166 5F       		.byte	95
 752 0167 09       		.byte	9
 753 0168 71       		.byte	113
 754 0169 02       		.byte	2
 755 016a 77       		.byte	119
 756 016b 80       		.byte	-128
 757 016c 82       		.byte	-126
 758 016d 10       		.byte	16
 759 016e 86       		.byte	-122
 760 016f 04       		.byte	4
 761 0170 A8       		.byte	-88
 762 0171 10       		.byte	16
 763 0172 C0       		.byte	-64
 764 0173 04       		.byte	4
 765 0174 C2       		.byte	-62
 766 0175 E9       		.byte	-23
 767 0176 C4       		.byte	-60
 768 0177 84       		.byte	-124
 769 0178 CA       		.byte	-54
 770 0179 80       		.byte	-128
 771 017a CC       		.byte	-52
 772 017b 02       		.byte	2
 773 017c CE       		.byte	-50
 774 017d 12       		.byte	18
 775 017e D0       		.byte	-48
 776 017f 14       		.byte	20
 777 0180 D2       		.byte	-46
 778 0181 14       		.byte	20
 779 0182 D6       		.byte	-42
 780 0183 DB       		.byte	-37
 781 0184 E0       		.byte	-32
 782 0185 02       		.byte	2
 783 0186 E4       		.byte	-28
 784 0187 04       		.byte	4
 785 0188 E8       		.byte	-24
ARM GAS  C:\Users\jagumiel\AppData\Local\Temp\ccdaHeu0.s 			page 25


 786 0189 04       		.byte	4
 787 018a 62       		.byte	98
 788 018b 08       		.byte	8
 789 018c D8       		.byte	-40
 790 018d 02       		.byte	2
 791 018e 5C       		.byte	92
 792 018f 08       		.byte	8
 793 0190 66       		.byte	102
 794 0191 10       		.byte	16
 795 0192 80       		.byte	-128
 796 0193 08       		.byte	8
 797 0194 86       		.byte	-122
 798 0195 10       		.byte	16
 799 0196 AA       		.byte	-86
 800 0197 08       		.byte	8
 801 0198 D6       		.byte	-42
 802 0199 01       		.byte	1
 803 019a D8       		.byte	-40
 804 019b 01       		.byte	1
 805 019c 01       		.byte	1
 806 019d 01       		.byte	1
 807 019e 10       		.byte	16
 808 019f 01       		.byte	1
 809              		.type	cy_cfg_addr_table.4864, %object
 810              		.size	cy_cfg_addr_table.4864, 32
 811              	cy_cfg_addr_table.4864:
 812 01a0 03000F40 		.word	1074724867
 813 01a4 27300F40 		.word	1074737191
 814 01a8 18310F40 		.word	1074737432
 815 01ac 4E320F40 		.word	1074737742
 816 01b0 2F330F40 		.word	1074737967
 817 01b4 02420F40 		.word	1074741762
 818 01b8 07430F40 		.word	1074742023
 819 01bc 02600F40 		.word	1074749442
 820              		.text
 821              	.Letext0:
 822              		.file 2 "c:\\program files (x86)\\cypress\\psoc creator\\4.2\\psoc creator\\import\\gnu\\arm\\5.4.
 823              		.file 3 "Generated_Source\\PSoC4\\cytypes.h"
 824              		.file 4 "Generated_Source\\PSoC4\\CyLib.h"