ARM GAS  C:\Users\jagumiel\AppData\Local\Temp\ccdlv6wm.s 			page 1


   1              		.syntax unified
   2              		.cpu cortex-m0
   3              		.fpu softvfp
   4              		.eabi_attribute 20, 1
   5              		.eabi_attribute 21, 1
   6              		.eabi_attribute 23, 3
   7              		.eabi_attribute 24, 1
   8              		.eabi_attribute 25, 1
   9              		.eabi_attribute 26, 1
  10              		.eabi_attribute 30, 1
  11              		.eabi_attribute 34, 0
  12              		.eabi_attribute 18, 4
  13              		.thumb
  14              		.syntax unified
  15              		.file	"main.c"
  16              		.text
  17              	.Ltext0:
  18              		.cfi_sections	.debug_frame
  19              		.section	.text.getResults,"ax",%progbits
  20              		.align	2
  21              		.global	getResults
  22              		.code	16
  23              		.thumb_func
  24              		.type	getResults, %function
  25              	getResults:
  26              	.LFB32:
  27              		.file 1 "main.c"
   1:main.c        **** #include "project.h"
   2:main.c        **** #include <stdlib.h>
   3:main.c        **** 
   4:main.c        **** uint8_t red, green, blue = 0;
   5:main.c        **** 
   6:main.c        **** void getResults(char ledValue[]){
  28              		.loc 1 6 0
  29              		.cfi_startproc
  30              		@ args = 0, pretend = 0, frame = 8
  31              		@ frame_needed = 0, uses_anonymous_args = 0
  32              	.LVL0:
  33 0000 30B5     		push	{r4, r5, lr}
  34              		.cfi_def_cfa_offset 12
  35              		.cfi_offset 4, -12
  36              		.cfi_offset 5, -8
  37              		.cfi_offset 14, -4
  38 0002 83B0     		sub	sp, sp, #12
  39              		.cfi_def_cfa_offset 24
  40 0004 0500     		movs	r5, r0
  41              	.LVL1:
  42              	.LBB2:
   7:main.c        ****     /* Gets the scratch buffer data (string of chars) and places it into color variables (as intege
   8:main.c        ****     char singleValAux[3];
   9:main.c        ****     int i=0;
  10:main.c        ****     for(int j=0; j<3; j++){
  43              		.loc 1 10 0
  44 0006 0023     		movs	r3, #0
  45              	.LBE2:
   9:main.c        ****     for(int j=0; j<3; j++){
  46              		.loc 1 9 0
ARM GAS  C:\Users\jagumiel\AppData\Local\Temp\ccdlv6wm.s 			page 2


  47 0008 0024     		movs	r4, #0
  48              	.LBB3:
  49              		.loc 1 10 0
  50 000a 04E0     		b	.L2
  51              	.LVL2:
  52              	.L3:
  11:main.c        ****         singleValAux[j]=ledValue[i];
  53              		.loc 1 11 0 discriminator 3
  54 000c 295D     		ldrb	r1, [r5, r4]
  55 000e 01AA     		add	r2, sp, #4
  56 0010 D154     		strb	r1, [r2, r3]
  12:main.c        ****         i++;
  57              		.loc 1 12 0 discriminator 3
  58 0012 0134     		adds	r4, r4, #1
  59              	.LVL3:
  10:main.c        ****         singleValAux[j]=ledValue[i];
  60              		.loc 1 10 0 discriminator 3
  61 0014 0133     		adds	r3, r3, #1
  62              	.LVL4:
  63              	.L2:
  10:main.c        ****         singleValAux[j]=ledValue[i];
  64              		.loc 1 10 0 is_stmt 0 discriminator 1
  65 0016 022B     		cmp	r3, #2
  66 0018 F8DD     		ble	.L3
  67              	.LBE3:
  13:main.c        ****     }
  14:main.c        ****     red = atoi(singleValAux);
  68              		.loc 1 14 0 is_stmt 1
  69 001a 01A8     		add	r0, sp, #4
  70              	.LVL5:
  71 001c FFF7FEFF 		bl	atoi
  72              	.LVL6:
  73 0020 0F4B     		ldr	r3, .L8
  74 0022 1870     		strb	r0, [r3]
  75              	.LVL7:
  76              	.LBB4:
  15:main.c        ****     for(int j=0; j<3; j++){
  77              		.loc 1 15 0
  78 0024 0023     		movs	r3, #0
  79 0026 04E0     		b	.L4
  80              	.LVL8:
  81              	.L5:
  16:main.c        ****         singleValAux[j]=ledValue[i];
  82              		.loc 1 16 0 discriminator 3
  83 0028 295D     		ldrb	r1, [r5, r4]
  84 002a 01AA     		add	r2, sp, #4
  85 002c D154     		strb	r1, [r2, r3]
  17:main.c        ****         i++;
  86              		.loc 1 17 0 discriminator 3
  87 002e 0134     		adds	r4, r4, #1
  88              	.LVL9:
  15:main.c        ****     for(int j=0; j<3; j++){
  89              		.loc 1 15 0 discriminator 3
  90 0030 0133     		adds	r3, r3, #1
  91              	.LVL10:
  92              	.L4:
  15:main.c        ****     for(int j=0; j<3; j++){
ARM GAS  C:\Users\jagumiel\AppData\Local\Temp\ccdlv6wm.s 			page 3


  93              		.loc 1 15 0 is_stmt 0 discriminator 1
  94 0032 022B     		cmp	r3, #2
  95 0034 F8DD     		ble	.L5
  96              	.LBE4:
  18:main.c        ****     }
  19:main.c        ****     green = atoi(singleValAux);
  97              		.loc 1 19 0 is_stmt 1
  98 0036 01A8     		add	r0, sp, #4
  99 0038 FFF7FEFF 		bl	atoi
 100              	.LVL11:
 101 003c 094B     		ldr	r3, .L8+4
 102 003e 1870     		strb	r0, [r3]
 103              	.LVL12:
 104              	.LBB5:
  20:main.c        ****     for(int j=0; j<3; j++){
 105              		.loc 1 20 0
 106 0040 0023     		movs	r3, #0
 107 0042 04E0     		b	.L6
 108              	.LVL13:
 109              	.L7:
  21:main.c        ****         singleValAux[j]=ledValue[i];
 110              		.loc 1 21 0 discriminator 3
 111 0044 295D     		ldrb	r1, [r5, r4]
 112 0046 01AA     		add	r2, sp, #4
 113 0048 D154     		strb	r1, [r2, r3]
  22:main.c        ****         i++;
 114              		.loc 1 22 0 discriminator 3
 115 004a 0134     		adds	r4, r4, #1
 116              	.LVL14:
  20:main.c        ****     for(int j=0; j<3; j++){
 117              		.loc 1 20 0 discriminator 3
 118 004c 0133     		adds	r3, r3, #1
 119              	.LVL15:
 120              	.L6:
  20:main.c        ****     for(int j=0; j<3; j++){
 121              		.loc 1 20 0 is_stmt 0 discriminator 1
 122 004e 022B     		cmp	r3, #2
 123 0050 F8DD     		ble	.L7
 124              	.LBE5:
  23:main.c        ****     }
  24:main.c        ****     blue = atoi(singleValAux);
 125              		.loc 1 24 0 is_stmt 1
 126 0052 01A8     		add	r0, sp, #4
 127 0054 FFF7FEFF 		bl	atoi
 128              	.LVL16:
 129 0058 034B     		ldr	r3, .L8+8
 130 005a 1870     		strb	r0, [r3]
  25:main.c        ****     
  26:main.c        ****     /*Numbers must be comprehended between 0-255. If they are greater than 255 are setted to the ma
  27:main.c        ****     if (red > 255)   red    = 255;
  28:main.c        ****     if (green > 255) green  = 255;
  29:main.c        ****     if (blue > 255)  blue   = 255;
  30:main.c        **** }
 131              		.loc 1 30 0
 132 005c 03B0     		add	sp, sp, #12
 133              		@ sp needed
 134              	.LVL17:
ARM GAS  C:\Users\jagumiel\AppData\Local\Temp\ccdlv6wm.s 			page 4


 135              	.LVL18:
 136 005e 30BD     		pop	{r4, r5, pc}
 137              	.L9:
 138              		.align	2
 139              	.L8:
 140 0060 00000000 		.word	red
 141 0064 00000000 		.word	green
 142 0068 00000000 		.word	.LANCHOR0
 143              		.cfi_endproc
 144              	.LFE32:
 145              		.size	getResults, .-getResults
 146              		.section	.text.setLeds,"ax",%progbits
 147              		.align	2
 148              		.global	setLeds
 149              		.code	16
 150              		.thumb_func
 151              		.type	setLeds, %function
 152              	setLeds:
 153              	.LFB33:
  31:main.c        **** 
  32:main.c        **** void setLeds(){
 154              		.loc 1 32 0
 155              		.cfi_startproc
 156              		@ args = 0, pretend = 0, frame = 0
 157              		@ frame_needed = 0, uses_anonymous_args = 0
 158 0000 10B5     		push	{r4, lr}
 159              		.cfi_def_cfa_offset 8
 160              		.cfi_offset 4, -8
 161              		.cfi_offset 14, -4
  33:main.c        ****     PWM_1_WriteCompare(red);
 162              		.loc 1 33 0
 163 0002 064B     		ldr	r3, .L11
 164 0004 1878     		ldrb	r0, [r3]
 165 0006 FFF7FEFF 		bl	PWM_1_WriteCompare
 166              	.LVL19:
  34:main.c        ****     PWM_2_WriteCompare(green);
 167              		.loc 1 34 0
 168 000a 054B     		ldr	r3, .L11+4
 169 000c 1878     		ldrb	r0, [r3]
 170 000e FFF7FEFF 		bl	PWM_2_WriteCompare
 171              	.LVL20:
  35:main.c        ****     PWM_3_WriteCompare(blue);
 172              		.loc 1 35 0
 173 0012 044B     		ldr	r3, .L11+8
 174 0014 1878     		ldrb	r0, [r3]
 175 0016 FFF7FEFF 		bl	PWM_3_WriteCompare
 176              	.LVL21:
  36:main.c        **** }
 177              		.loc 1 36 0
 178              		@ sp needed
 179 001a 10BD     		pop	{r4, pc}
 180              	.L12:
 181              		.align	2
 182              	.L11:
 183 001c 00000000 		.word	red
 184 0020 00000000 		.word	green
 185 0024 00000000 		.word	.LANCHOR0
ARM GAS  C:\Users\jagumiel\AppData\Local\Temp\ccdlv6wm.s 			page 5


 186              		.cfi_endproc
 187              	.LFE33:
 188              		.size	setLeds, .-setLeds
 189              		.section	.text.turnOffLeds,"ax",%progbits
 190              		.align	2
 191              		.global	turnOffLeds
 192              		.code	16
 193              		.thumb_func
 194              		.type	turnOffLeds, %function
 195              	turnOffLeds:
 196              	.LFB34:
  37:main.c        **** 
  38:main.c        **** void turnOffLeds(){
 197              		.loc 1 38 0
 198              		.cfi_startproc
 199              		@ args = 0, pretend = 0, frame = 0
 200              		@ frame_needed = 0, uses_anonymous_args = 0
 201 0000 10B5     		push	{r4, lr}
 202              		.cfi_def_cfa_offset 8
 203              		.cfi_offset 4, -8
 204              		.cfi_offset 14, -4
  39:main.c        ****     PWM_1_WriteCompare(0);
 205              		.loc 1 39 0
 206 0002 0020     		movs	r0, #0
 207 0004 FFF7FEFF 		bl	PWM_1_WriteCompare
 208              	.LVL22:
  40:main.c        ****     PWM_2_WriteCompare(0);
 209              		.loc 1 40 0
 210 0008 0020     		movs	r0, #0
 211 000a FFF7FEFF 		bl	PWM_2_WriteCompare
 212              	.LVL23:
  41:main.c        ****     PWM_3_WriteCompare(0);
 213              		.loc 1 41 0
 214 000e 0020     		movs	r0, #0
 215 0010 FFF7FEFF 		bl	PWM_3_WriteCompare
 216              	.LVL24:
  42:main.c        **** }
 217              		.loc 1 42 0
 218              		@ sp needed
 219 0014 10BD     		pop	{r4, pc}
 220              		.cfi_endproc
 221              	.LFE34:
 222              		.size	turnOffLeds, .-turnOffLeds
 223 0016 C046     		.section	.text.main,"ax",%progbits
 224              		.align	2
 225              		.global	main
 226              		.code	16
 227              		.thumb_func
 228              		.type	main, %function
 229              	main:
 230              	.LFB35:
  43:main.c        **** 
  44:main.c        **** int main(){
 231              		.loc 1 44 0
 232              		.cfi_startproc
 233              		@ args = 0, pretend = 0, frame = 16
 234              		@ frame_needed = 0, uses_anonymous_args = 0
ARM GAS  C:\Users\jagumiel\AppData\Local\Temp\ccdlv6wm.s 			page 6


 235 0000 30B5     		push	{r4, r5, lr}
 236              		.cfi_def_cfa_offset 12
 237              		.cfi_offset 4, -12
 238              		.cfi_offset 5, -8
 239              		.cfi_offset 14, -4
 240 0002 85B0     		sub	sp, sp, #20
 241              		.cfi_def_cfa_offset 32
  45:main.c        ****     char ch;
  46:main.c        ****     char ch1;
  47:main.c        ****     char cop;
  48:main.c        ****     char buffer[9];
  49:main.c        ****     int8 tic;
  50:main.c        ****     
  51:main.c        ****     /*Initialization*/
  52:main.c        ****     UART_Start();
 242              		.loc 1 52 0
 243 0004 FFF7FEFF 		bl	UART_Start
 244              	.LVL25:
  53:main.c        ****     
  54:main.c        ****     PWM_1_Start();
 245              		.loc 1 54 0
 246 0008 FFF7FEFF 		bl	PWM_1_Start
 247              	.LVL26:
  55:main.c        ****     PWM_2_Start();
 248              		.loc 1 55 0
 249 000c FFF7FEFF 		bl	PWM_2_Start
 250              	.LVL27:
  56:main.c        ****     PWM_3_Start();
 251              		.loc 1 56 0
 252 0010 FFF7FEFF 		bl	PWM_3_Start
 253              	.LVL28:
  57:main.c        ****     
  58:main.c        ****     turnOffLeds();
 254              		.loc 1 58 0
 255 0014 FFF7FEFF 		bl	turnOffLeds
 256              	.LVL29:
  59:main.c        ****     /****************/
  60:main.c        ****     
  61:main.c        ****     UART_UartPutString("Introduce the values for the RGB colors using this pattern: WrrrgggbbbB.\n\
 257              		.loc 1 61 0
 258 0018 1B48     		ldr	r0, .L24
 259 001a FFF7FEFF 		bl	UART_UartPutString
 260              	.LVL30:
 261              	.L16:
  62:main.c        **** 
  63:main.c        ****     for (;;){
  64:main.c        ****         ch = UART_UartGetChar();    // this command Gets then clears to 0u
 262              		.loc 1 64 0
 263 001e FFF7FEFF 		bl	UART_UartGetChar
 264              	.LVL31:
 265 0022 C0B2     		uxtb	r0, r0
 266              	.LVL32:
  65:main.c        ****         tic = 0;
  66:main.c        ****         
  67:main.c        ****         if (ch == 'W'){             //'W': Write.
 267              		.loc 1 67 0
 268 0024 5728     		cmp	r0, #87
ARM GAS  C:\Users\jagumiel\AppData\Local\Temp\ccdlv6wm.s 			page 7


 269 0026 FAD1     		bne	.L16
 270 0028 29E0     		b	.L23
 271              	.LVL33:
 272              	.L21:
  68:main.c        **** 			cop = 'Y';
  69:main.c        ****             while (cop != 'X'){
  70:main.c        **** 				ch1 = UART_UartGetChar();
 273              		.loc 1 70 0
 274 002a FFF7FEFF 		bl	UART_UartGetChar
 275              	.LVL34:
 276 002e C0B2     		uxtb	r0, r0
 277              	.LVL35:
  71:main.c        **** 				if ((ch1 != 0u) && (ch1 != 'B')){
 278              		.loc 1 71 0
 279 0030 0028     		cmp	r0, #0
 280 0032 0AD0     		beq	.L17
 281              		.loc 1 71 0 is_stmt 0 discriminator 1
 282 0034 4228     		cmp	r0, #66
 283 0036 08D0     		beq	.L17
  72:main.c        ****                     if( ch1 >= '0' && ch1 <= '9' ){
 284              		.loc 1 72 0 is_stmt 1
 285 0038 0300     		movs	r3, r0
 286 003a 303B     		subs	r3, r3, #48
 287 003c DBB2     		uxtb	r3, r3
 288 003e 092B     		cmp	r3, #9
 289 0040 03D8     		bhi	.L17
  73:main.c        ****     					buffer[tic] = ch1;
 290              		.loc 1 73 0
 291 0042 01AB     		add	r3, sp, #4
 292 0044 1855     		strb	r0, [r3, r4]
  74:main.c        ****     					tic++;
 293              		.loc 1 74 0
 294 0046 0134     		adds	r4, r4, #1
 295              	.LVL36:
 296 0048 64B2     		sxtb	r4, r4
 297              	.LVL37:
 298              	.L17:
  75:main.c        ****                     }
  76:main.c        **** 				}
  77:main.c        **** 				//if (ch1 == 'B'){
  78:main.c        ****                 if (tic==9){
 299              		.loc 1 78 0
 300 004a 092C     		cmp	r4, #9
 301 004c 19D1     		bne	.L15
  79:main.c        ****                     UART_UartPutString(buffer);
 302              		.loc 1 79 0
 303 004e 01A8     		add	r0, sp, #4
 304              	.LVL38:
 305 0050 FFF7FEFF 		bl	UART_UartPutString
 306              	.LVL39:
  80:main.c        ****                     UART_UartPutChar('\r');
 307              		.loc 1 80 0
 308 0054 0D20     		movs	r0, #13
 309 0056 FFF7FEFF 		bl	UART_SpiUartWriteTxData
 310              	.LVL40:
  81:main.c        ****                     UART_UartPutChar('\n');
 311              		.loc 1 81 0
ARM GAS  C:\Users\jagumiel\AppData\Local\Temp\ccdlv6wm.s 			page 8


 312 005a 0A20     		movs	r0, #10
 313 005c FFF7FEFF 		bl	UART_SpiUartWriteTxData
 314              	.LVL41:
  82:main.c        ****                     getResults(buffer);
 315              		.loc 1 82 0
 316 0060 01A8     		add	r0, sp, #4
 317 0062 FFF7FEFF 		bl	getResults
 318              	.LVL42:
 319              	.LBB6:
  83:main.c        ****                     for(int i=0; i<9; i++)
 320              		.loc 1 83 0
 321 0066 0023     		movs	r3, #0
 322 0068 03E0     		b	.L19
 323              	.LVL43:
 324              	.L20:
  84:main.c        **** 					    buffer[i] = 0u;
 325              		.loc 1 84 0 discriminator 3
 326 006a 0021     		movs	r1, #0
 327 006c 01AA     		add	r2, sp, #4
 328 006e D154     		strb	r1, [r2, r3]
  83:main.c        ****                     for(int i=0; i<9; i++)
 329              		.loc 1 83 0 discriminator 3
 330 0070 0133     		adds	r3, r3, #1
 331              	.LVL44:
 332              	.L19:
  83:main.c        ****                     for(int i=0; i<9; i++)
 333              		.loc 1 83 0 is_stmt 0 discriminator 1
 334 0072 082B     		cmp	r3, #8
 335 0074 F9DD     		ble	.L20
 336              	.LBE6:
  85:main.c        ****                     setLeds();
 337              		.loc 1 85 0 is_stmt 1
 338 0076 FFF7FEFF 		bl	setLeds
 339              	.LVL45:
  86:main.c        **** 					cop = 'X';
 340              		.loc 1 86 0
 341 007a 5825     		movs	r5, #88
 342 007c 01E0     		b	.L15
 343              	.LVL46:
 344              	.L23:
 345 007e 0024     		movs	r4, #0
 346 0080 5925     		movs	r5, #89
 347              	.LVL47:
 348              	.L15:
  69:main.c        **** 				ch1 = UART_UartGetChar();
 349              		.loc 1 69 0
 350 0082 582D     		cmp	r5, #88
 351 0084 D1D1     		bne	.L21
 352 0086 CAE7     		b	.L16
 353              	.L25:
 354              		.align	2
 355              	.L24:
 356 0088 00000000 		.word	.LC6
 357              		.cfi_endproc
 358              	.LFE35:
 359              		.size	main, .-main
 360              		.global	blue
ARM GAS  C:\Users\jagumiel\AppData\Local\Temp\ccdlv6wm.s 			page 9


 361              		.comm	green,1,1
 362              		.comm	red,1,1
 363              		.section	.rodata.str1.4,"aMS",%progbits,1
 364              		.align	2
 365              	.LC6:
 366 0000 496E7472 		.ascii	"Introduce the values for the RGB colors using this "
 366      6F647563 
 366      65207468 
 366      65207661 
 366      6C756573 
 367 0033 70617474 		.ascii	"pattern: WrrrgggbbbB.\012\015 Example: W255090030B\012"
 367      65726E3A 
 367      20577272 
 367      72676767 
 367      62626242 
 368 0060 0D00     		.ascii	"\015\000"
 369              		.bss
 370              		.set	.LANCHOR0,. + 0
 371              		.type	blue, %object
 372              		.size	blue, 1
 373              	blue:
 374 0000 00       		.space	1
 375              		.text
 376              	.Letext0:
 377              		.file 2 "c:\\program files (x86)\\cypress\\psoc creator\\4.2\\psoc creator\\import\\gnu\\arm\\5.4.
 378              		.file 3 "c:\\program files (x86)\\cypress\\psoc creator\\4.2\\psoc creator\\import\\gnu\\arm\\5.4.
 379              		.file 4 "Generated_Source\\PSoC4/cytypes.h"
 380              		.file 5 "c:\\program files (x86)\\cypress\\psoc creator\\4.2\\psoc creator\\import\\gnu\\arm\\5.4.
 381              		.file 6 "Generated_Source\\PSoC4/PWM_1.h"
 382              		.file 7 "Generated_Source\\PSoC4/PWM_2.h"
 383              		.file 8 "Generated_Source\\PSoC4/PWM_3.h"
 384              		.file 9 "Generated_Source\\PSoC4/UART.h"
 385              		.file 10 "Generated_Source\\PSoC4/UART_SPI_UART.h"