ARM GAS  C:\Users\jagumiel\AppData\Local\Temp\ccx0gHK6.s 			page 1


   1              		.syntax unified
   2              		.cpu cortex-m0
   3              		.fpu softvfp
   4              		.eabi_attribute 20, 1
   5              		.eabi_attribute 21, 1
   6              		.eabi_attribute 23, 3
   7              		.eabi_attribute 24, 1
   8              		.eabi_attribute 25, 1
   9              		.eabi_attribute 26, 1
  10              		.eabi_attribute 30, 1
  11              		.eabi_attribute 34, 0
  12              		.eabi_attribute 18, 4
  13              		.thumb
  14              		.syntax unified
  15              		.file	"CapSense_CSHL.c"
  16              		.text
  17              	.Ltext0:
  18              		.cfi_sections	.debug_frame
  19              		.section	.text.CapSense_BaseInit,"ax",%progbits
  20              		.align	2
  21              		.global	CapSense_BaseInit
  22              		.code	16
  23              		.thumb_func
  24              		.type	CapSense_BaseInit, %function
  25              	CapSense_BaseInit:
  26              	.LFB34:
  27              		.file 1 "Generated_Source\\PSoC4\\CapSense_CSHL.c"
   1:Generated_Source\PSoC4/CapSense_CSHL.c **** /*******************************************************************************
   2:Generated_Source\PSoC4/CapSense_CSHL.c **** * File Name: CapSense_CSHL.c
   3:Generated_Source\PSoC4/CapSense_CSHL.c **** * Version 2.60
   4:Generated_Source\PSoC4/CapSense_CSHL.c **** *
   5:Generated_Source\PSoC4/CapSense_CSHL.c **** * Description:
   6:Generated_Source\PSoC4/CapSense_CSHL.c **** *  This file provides the source code to the High Level APIs for the CapSesne
   7:Generated_Source\PSoC4/CapSense_CSHL.c **** *  CSD component.
   8:Generated_Source\PSoC4/CapSense_CSHL.c **** *
   9:Generated_Source\PSoC4/CapSense_CSHL.c **** * Note:
  10:Generated_Source\PSoC4/CapSense_CSHL.c **** *
  11:Generated_Source\PSoC4/CapSense_CSHL.c **** ********************************************************************************
  12:Generated_Source\PSoC4/CapSense_CSHL.c **** * Copyright 2013-2016, Cypress Semiconductor Corporation.  All rights reserved.
  13:Generated_Source\PSoC4/CapSense_CSHL.c **** * You may use this file only in accordance with the license, terms, conditions,
  14:Generated_Source\PSoC4/CapSense_CSHL.c **** * disclaimers, and limitations in the end user license agreement accompanying
  15:Generated_Source\PSoC4/CapSense_CSHL.c **** * the software package with which this file was provided.
  16:Generated_Source\PSoC4/CapSense_CSHL.c **** *******************************************************************************/
  17:Generated_Source\PSoC4/CapSense_CSHL.c **** 
  18:Generated_Source\PSoC4/CapSense_CSHL.c **** #include "CapSense_CSHL.h"
  19:Generated_Source\PSoC4/CapSense_CSHL.c **** #include "CapSense_PVT.h"
  20:Generated_Source\PSoC4/CapSense_CSHL.c **** 
  21:Generated_Source\PSoC4/CapSense_CSHL.c **** /* SmartSense functions */
  22:Generated_Source\PSoC4/CapSense_CSHL.c **** #if (CapSense_TUNING_METHOD == CapSense__TUNING_AUTO)
  23:Generated_Source\PSoC4/CapSense_CSHL.c ****     extern void CapSense_UpdateThresholds(uint32 sensor);
  24:Generated_Source\PSoC4/CapSense_CSHL.c **** #endif /* (CapSense_TUNING_METHOD == CapSense__TUNING_AUTO) */
  25:Generated_Source\PSoC4/CapSense_CSHL.c **** 
  26:Generated_Source\PSoC4/CapSense_CSHL.c **** /* Storage of filters data */
  27:Generated_Source\PSoC4/CapSense_CSHL.c **** #if ( (0u != (CapSense_RAW_FILTER_MASK & CapSense_MEDIAN_FILTER)) || \
  28:Generated_Source\PSoC4/CapSense_CSHL.c ****       (0u != (CapSense_RAW_FILTER_MASK & CapSense_AVERAGING_FILTER)) )
  29:Generated_Source\PSoC4/CapSense_CSHL.c **** 
  30:Generated_Source\PSoC4/CapSense_CSHL.c ****     uint16 CapSense_rawFilterData1[CapSense_TOTAL_SENSOR_COUNT];
ARM GAS  C:\Users\jagumiel\AppData\Local\Temp\ccx0gHK6.s 			page 2


  31:Generated_Source\PSoC4/CapSense_CSHL.c ****     uint16 CapSense_rawFilterData2[CapSense_TOTAL_SENSOR_COUNT];
  32:Generated_Source\PSoC4/CapSense_CSHL.c **** 
  33:Generated_Source\PSoC4/CapSense_CSHL.c **** #elif ( (0u != (CapSense_RAW_FILTER_MASK & CapSense_IIR2_FILTER))   || \
  34:Generated_Source\PSoC4/CapSense_CSHL.c ****         (0u != (CapSense_RAW_FILTER_MASK & CapSense_IIR4_FILTER))   || \
  35:Generated_Source\PSoC4/CapSense_CSHL.c ****         (0u != (CapSense_RAW_FILTER_MASK & CapSense_JITTER_FILTER)) || \
  36:Generated_Source\PSoC4/CapSense_CSHL.c ****         (0u != (CapSense_RAW_FILTER_MASK & CapSense_IIR8_FILTER))   || \
  37:Generated_Source\PSoC4/CapSense_CSHL.c ****         (0u != (CapSense_RAW_FILTER_MASK & CapSense_IIR16_FILTER)) )
  38:Generated_Source\PSoC4/CapSense_CSHL.c **** 
  39:Generated_Source\PSoC4/CapSense_CSHL.c ****     uint16 CapSense_rawFilterData1[CapSense_TOTAL_SENSOR_COUNT];
  40:Generated_Source\PSoC4/CapSense_CSHL.c **** #endif  /* ( (CapSense_RAW_FILTER_MASK & CapSense_MEDIAN_FILTER) || \
  41:Generated_Source\PSoC4/CapSense_CSHL.c ****         *    (CapSense_RAW_FILTER_MASK & CapSense_AVERAGING_FILTER) )
  42:Generated_Source\PSoC4/CapSense_CSHL.c ****         */
  43:Generated_Source\PSoC4/CapSense_CSHL.c **** 
  44:Generated_Source\PSoC4/CapSense_CSHL.c **** extern uint16 CapSense_sensorRaw[CapSense_TOTAL_SENSOR_COUNT];
  45:Generated_Source\PSoC4/CapSense_CSHL.c **** extern uint8 CapSense_sensorEnableMask[CapSense_TOTAL_SENSOR_MASK];
  46:Generated_Source\PSoC4/CapSense_CSHL.c **** extern const uint8 CapSense_widgetNumber[CapSense_TOTAL_SENSOR_COUNT];
  47:Generated_Source\PSoC4/CapSense_CSHL.c **** 
  48:Generated_Source\PSoC4/CapSense_CSHL.c **** #if (CapSense_TUNING_METHOD != CapSense__TUNING_NONE)
  49:Generated_Source\PSoC4/CapSense_CSHL.c ****     extern uint32 CapSense_widgetResolution[CapSense_RESOLUTIONS_TBL_SIZE];
  50:Generated_Source\PSoC4/CapSense_CSHL.c **** #endif /* (CapSense_TUNING_METHOD != CapSense__TUNING_NONE) */
  51:Generated_Source\PSoC4/CapSense_CSHL.c **** 
  52:Generated_Source\PSoC4/CapSense_CSHL.c **** uint16 CapSense_sensorBaseline[CapSense_TOTAL_SENSOR_COUNT] = {0u};
  53:Generated_Source\PSoC4/CapSense_CSHL.c **** uint8 CapSense_sensorBaselineLow[CapSense_TOTAL_SENSOR_COUNT] = {0u};
  54:Generated_Source\PSoC4/CapSense_CSHL.c **** uint8 CapSense_sensorSignal[CapSense_TOTAL_SENSOR_COUNT] = {0u};
  55:Generated_Source\PSoC4/CapSense_CSHL.c **** uint8 CapSense_sensorOnMask[CapSense_TOTAL_SENSOR_MASK] = {0u};
  56:Generated_Source\PSoC4/CapSense_CSHL.c **** 
  57:Generated_Source\PSoC4/CapSense_CSHL.c **** uint8 CapSense_lowBaselineResetCnt[CapSense_TOTAL_SENSOR_COUNT];
  58:Generated_Source\PSoC4/CapSense_CSHL.c **** uint8 CapSense_lowBaselineReset[CapSense_TOTAL_SENSOR_COUNT] = {
  59:Generated_Source\PSoC4/CapSense_CSHL.c ****     30u, 30u, 
  60:Generated_Source\PSoC4/CapSense_CSHL.c **** };
  61:Generated_Source\PSoC4/CapSense_CSHL.c **** 
  62:Generated_Source\PSoC4/CapSense_CSHL.c **** 
  63:Generated_Source\PSoC4/CapSense_CSHL.c **** 
  64:Generated_Source\PSoC4/CapSense_CSHL.c **** #if (CapSense_TUNING_METHOD == CapSense__TUNING_AUTO)
  65:Generated_Source\PSoC4/CapSense_CSHL.c ****     extern CapSense_CONFIG_TYPE_P4_v2_60 CapSense_config;
  66:Generated_Source\PSoC4/CapSense_CSHL.c **** #endif  /* (CapSense_TUNING_METHOD == CapSense__TUNING_AUTO) */
  67:Generated_Source\PSoC4/CapSense_CSHL.c **** 
  68:Generated_Source\PSoC4/CapSense_CSHL.c **** #if (CapSense_RAW_FILTER_MASK != 0u)
  69:Generated_Source\PSoC4/CapSense_CSHL.c **** uint8 CapSense_enableRawFilters = CapSense_RAW_FILTERS_ENABLED;
  70:Generated_Source\PSoC4/CapSense_CSHL.c **** #endif  /* (CapSense_RAW_FILTER_MASK != 0u) */
  71:Generated_Source\PSoC4/CapSense_CSHL.c **** 
  72:Generated_Source\PSoC4/CapSense_CSHL.c **** /* Generated by Customizer */
  73:Generated_Source\PSoC4/CapSense_CSHL.c **** uint8 CapSense_fingerThreshold[CapSense_THRESHOLD_TBL_SIZE];
  74:Generated_Source\PSoC4/CapSense_CSHL.c **** 
  75:Generated_Source\PSoC4/CapSense_CSHL.c **** uint8 CapSense_noiseThreshold[CapSense_THRESHOLD_TBL_SIZE];
  76:Generated_Source\PSoC4/CapSense_CSHL.c **** 
  77:Generated_Source\PSoC4/CapSense_CSHL.c **** uint8 CapSense_negativeNoiseThreshold[CapSense_THRESHOLD_TBL_SIZE];
  78:Generated_Source\PSoC4/CapSense_CSHL.c **** 
  79:Generated_Source\PSoC4/CapSense_CSHL.c **** uint8 CapSense_hysteresis[CapSense_WIDGET_PARAM_TBL_SIZE];
  80:Generated_Source\PSoC4/CapSense_CSHL.c **** 
  81:Generated_Source\PSoC4/CapSense_CSHL.c **** uint8 CapSense_debounce[] = {
  82:Generated_Source\PSoC4/CapSense_CSHL.c ****     5u, 5u, 
  83:Generated_Source\PSoC4/CapSense_CSHL.c **** };
  84:Generated_Source\PSoC4/CapSense_CSHL.c **** 
  85:Generated_Source\PSoC4/CapSense_CSHL.c **** static uint8 CapSense_debounceCounter[] = {
  86:Generated_Source\PSoC4/CapSense_CSHL.c ****     0u, 0u, 0u, 
  87:Generated_Source\PSoC4/CapSense_CSHL.c **** };
ARM GAS  C:\Users\jagumiel\AppData\Local\Temp\ccx0gHK6.s 			page 3


  88:Generated_Source\PSoC4/CapSense_CSHL.c **** 
  89:Generated_Source\PSoC4/CapSense_CSHL.c **** const uint8 CapSense_rawDataIndex[] = {
  90:Generated_Source\PSoC4/CapSense_CSHL.c ****     0u, /* Button0__BTN */
  91:Generated_Source\PSoC4/CapSense_CSHL.c ****     1u, /* Button1__BTN */
  92:Generated_Source\PSoC4/CapSense_CSHL.c **** };
  93:Generated_Source\PSoC4/CapSense_CSHL.c **** 
  94:Generated_Source\PSoC4/CapSense_CSHL.c **** const uint8 CapSense_numberOfSensors[] = {
  95:Generated_Source\PSoC4/CapSense_CSHL.c ****     1u, /* Button0__BTN */
  96:Generated_Source\PSoC4/CapSense_CSHL.c ****     1u, /* Button1__BTN */
  97:Generated_Source\PSoC4/CapSense_CSHL.c **** };
  98:Generated_Source\PSoC4/CapSense_CSHL.c **** 
  99:Generated_Source\PSoC4/CapSense_CSHL.c **** 
 100:Generated_Source\PSoC4/CapSense_CSHL.c **** 
 101:Generated_Source\PSoC4/CapSense_CSHL.c **** 
 102:Generated_Source\PSoC4/CapSense_CSHL.c **** /*******************************************************************************
 103:Generated_Source\PSoC4/CapSense_CSHL.c **** * Function Name: CapSense_BaseInit
 104:Generated_Source\PSoC4/CapSense_CSHL.c **** ********************************************************************************
 105:Generated_Source\PSoC4/CapSense_CSHL.c **** *
 106:Generated_Source\PSoC4/CapSense_CSHL.c **** * Summary:
 107:Generated_Source\PSoC4/CapSense_CSHL.c **** *  Loads the CapSense_sensorBaseline[sensor] array element with an
 108:Generated_Source\PSoC4/CapSense_CSHL.c **** *  initial value which is equal to the raw count value.
 109:Generated_Source\PSoC4/CapSense_CSHL.c **** *  Resets to zero CapSense_sensorBaselineLow[sensor] and
 110:Generated_Source\PSoC4/CapSense_CSHL.c **** *  CapSense_sensorSignal[sensor] array element.
 111:Generated_Source\PSoC4/CapSense_CSHL.c **** *  Loads the CapSense_rawFilterData2[sensor] and
 112:Generated_Source\PSoC4/CapSense_CSHL.c **** *  CapSense_rawFilterData2[sensor] array element with an
 113:Generated_Source\PSoC4/CapSense_CSHL.c **** *  initial value which is equal to the raw count value if the raw data filter is enabled.
 114:Generated_Source\PSoC4/CapSense_CSHL.c **** *
 115:Generated_Source\PSoC4/CapSense_CSHL.c **** * Parameters:
 116:Generated_Source\PSoC4/CapSense_CSHL.c **** *  sensor:  Sensor number.
 117:Generated_Source\PSoC4/CapSense_CSHL.c **** *
 118:Generated_Source\PSoC4/CapSense_CSHL.c **** * Return:
 119:Generated_Source\PSoC4/CapSense_CSHL.c **** *  None
 120:Generated_Source\PSoC4/CapSense_CSHL.c **** *
 121:Generated_Source\PSoC4/CapSense_CSHL.c **** * Global Variables:
 122:Generated_Source\PSoC4/CapSense_CSHL.c **** *  CapSense_sensorBaseline[]    - used to store the baseline value.
 123:Generated_Source\PSoC4/CapSense_CSHL.c **** *  CapSense_sensorBaselineLow[] - used to store the fraction byte of
 124:Generated_Source\PSoC4/CapSense_CSHL.c **** *  the baseline value.
 125:Generated_Source\PSoC4/CapSense_CSHL.c **** *  CapSense_sensorSignal[]      - used to store a difference between
 126:Generated_Source\PSoC4/CapSense_CSHL.c **** *  the current value of raw data and the previous value of the baseline.
 127:Generated_Source\PSoC4/CapSense_CSHL.c **** *  CapSense_rawFilterData1[]    - used to store a previous sample of
 128:Generated_Source\PSoC4/CapSense_CSHL.c **** *  any enabled raw data filter.
 129:Generated_Source\PSoC4/CapSense_CSHL.c **** *  CapSense_rawFilterData2[]    - used to store before a previous sample
 130:Generated_Source\PSoC4/CapSense_CSHL.c **** *  of the enabled raw data filter. Required only for median or average filters.
 131:Generated_Source\PSoC4/CapSense_CSHL.c **** *
 132:Generated_Source\PSoC4/CapSense_CSHL.c **** * Side Effects:
 133:Generated_Source\PSoC4/CapSense_CSHL.c **** *  None
 134:Generated_Source\PSoC4/CapSense_CSHL.c **** *
 135:Generated_Source\PSoC4/CapSense_CSHL.c **** *******************************************************************************/
 136:Generated_Source\PSoC4/CapSense_CSHL.c **** void CapSense_BaseInit(uint32 sensor)
 137:Generated_Source\PSoC4/CapSense_CSHL.c **** {
  28              		.loc 1 137 0
  29              		.cfi_startproc
  30              		@ args = 0, pretend = 0, frame = 0
  31              		@ frame_needed = 0, uses_anonymous_args = 0
  32              	.LVL0:
  33 0000 10B5     		push	{r4, lr}
  34              		.cfi_def_cfa_offset 8
ARM GAS  C:\Users\jagumiel\AppData\Local\Temp\ccx0gHK6.s 			page 4


  35              		.cfi_offset 4, -8
  36              		.cfi_offset 14, -4
 138:Generated_Source\PSoC4/CapSense_CSHL.c ****     #if ((CapSense_TOTAL_BUTTONS_COUNT) || (CapSense_TOTAL_MATRIX_BUTTONS_COUNT) || \
 139:Generated_Source\PSoC4/CapSense_CSHL.c ****          (CapSense_TOTAL_GENERICS_COUNT))
 140:Generated_Source\PSoC4/CapSense_CSHL.c ****         uint8 widget = CapSense_widgetNumber[sensor];
  37              		.loc 1 140 0
  38 0002 084B     		ldr	r3, .L2
  39 0004 1B5C     		ldrb	r3, [r3, r0]
  40              	.LVL1:
 141:Generated_Source\PSoC4/CapSense_CSHL.c ****     #endif /* ((CapSense_TOTAL_MATRIX_BUTTONS_COUNT) || (CapSense_TOTAL_MATRIX_BUTTONS_COUNT)) */
 142:Generated_Source\PSoC4/CapSense_CSHL.c **** 
 143:Generated_Source\PSoC4/CapSense_CSHL.c ****     #if (CapSense_TOTAL_MATRIX_BUTTONS_COUNT)
 144:Generated_Source\PSoC4/CapSense_CSHL.c ****         uint8 debounceIndex;
 145:Generated_Source\PSoC4/CapSense_CSHL.c ****     #endif  /* (CapSense_TOTAL_MATRIX_BUTTONS_COUNT) */
 146:Generated_Source\PSoC4/CapSense_CSHL.c **** 
 147:Generated_Source\PSoC4/CapSense_CSHL.c ****     #if (CapSense_TOTAL_GENERICS_COUNT)
 148:Generated_Source\PSoC4/CapSense_CSHL.c ****         /* Exclude generic widget */
 149:Generated_Source\PSoC4/CapSense_CSHL.c ****         if(widget < CapSense_END_OF_WIDGETS_INDEX)
 150:Generated_Source\PSoC4/CapSense_CSHL.c ****         {
 151:Generated_Source\PSoC4/CapSense_CSHL.c ****     #endif  /* CapSense_TOTAL_GENERICS_COUNT */
 152:Generated_Source\PSoC4/CapSense_CSHL.c **** 
 153:Generated_Source\PSoC4/CapSense_CSHL.c ****     /* Initialize Baseline */
 154:Generated_Source\PSoC4/CapSense_CSHL.c ****     CapSense_sensorBaseline[sensor] = CapSense_sensorRaw[sensor];
  41              		.loc 1 154 0
  42 0006 4100     		lsls	r1, r0, #1
  43 0008 074A     		ldr	r2, .L2+4
  44 000a 8C5A     		ldrh	r4, [r1, r2]
  45 000c 074A     		ldr	r2, .L2+8
  46 000e 8C52     		strh	r4, [r1, r2]
 155:Generated_Source\PSoC4/CapSense_CSHL.c ****     CapSense_sensorBaselineLow[sensor] = 0u;
  47              		.loc 1 155 0
  48 0010 1018     		adds	r0, r2, r0
  49              	.LVL2:
  50 0012 0021     		movs	r1, #0
  51 0014 0171     		strb	r1, [r0, #4]
 156:Generated_Source\PSoC4/CapSense_CSHL.c ****     CapSense_sensorSignal[sensor] = 0u;
  52              		.loc 1 156 0
  53 0016 0172     		strb	r1, [r0, #8]
 157:Generated_Source\PSoC4/CapSense_CSHL.c **** 
 158:Generated_Source\PSoC4/CapSense_CSHL.c ****     CapSense_debounceCounter[widget] =  CapSense_debounce[widget];
  54              		.loc 1 158 0
  55 0018 0549     		ldr	r1, .L2+12
  56 001a C95C     		ldrb	r1, [r1, r3]
  57 001c D318     		adds	r3, r2, r3
  58              	.LVL3:
  59 001e 1973     		strb	r1, [r3, #12]
 159:Generated_Source\PSoC4/CapSense_CSHL.c **** 
 160:Generated_Source\PSoC4/CapSense_CSHL.c **** 
 161:Generated_Source\PSoC4/CapSense_CSHL.c ****     #if ((0u != (CapSense_RAW_FILTER_MASK & CapSense_MEDIAN_FILTER)) ||\
 162:Generated_Source\PSoC4/CapSense_CSHL.c ****          (0u != (CapSense_RAW_FILTER_MASK & CapSense_AVERAGING_FILTER)))
 163:Generated_Source\PSoC4/CapSense_CSHL.c **** 
 164:Generated_Source\PSoC4/CapSense_CSHL.c ****         CapSense_rawFilterData1[sensor] = CapSense_sensorRaw[sensor];
 165:Generated_Source\PSoC4/CapSense_CSHL.c ****         CapSense_rawFilterData2[sensor] = CapSense_sensorRaw[sensor];
 166:Generated_Source\PSoC4/CapSense_CSHL.c **** 
 167:Generated_Source\PSoC4/CapSense_CSHL.c ****     #elif ((CapSense_RAW_FILTER_MASK & CapSense_IIR2_FILTER) ||\
 168:Generated_Source\PSoC4/CapSense_CSHL.c ****            (CapSense_RAW_FILTER_MASK & CapSense_IIR4_FILTER) ||\
 169:Generated_Source\PSoC4/CapSense_CSHL.c ****            (CapSense_RAW_FILTER_MASK & CapSense_JITTER_FILTER) ||\
ARM GAS  C:\Users\jagumiel\AppData\Local\Temp\ccx0gHK6.s 			page 5


 170:Generated_Source\PSoC4/CapSense_CSHL.c ****            (CapSense_RAW_FILTER_MASK & CapSense_IIR8_FILTER) ||\
 171:Generated_Source\PSoC4/CapSense_CSHL.c ****            (CapSense_RAW_FILTER_MASK & CapSense_IIR16_FILTER))
 172:Generated_Source\PSoC4/CapSense_CSHL.c **** 
 173:Generated_Source\PSoC4/CapSense_CSHL.c ****         CapSense_rawFilterData1[sensor] = CapSense_sensorRaw[sensor];
 174:Generated_Source\PSoC4/CapSense_CSHL.c **** 
 175:Generated_Source\PSoC4/CapSense_CSHL.c ****     #else
 176:Generated_Source\PSoC4/CapSense_CSHL.c ****         /* No Raw filters */
 177:Generated_Source\PSoC4/CapSense_CSHL.c ****     #endif  /* ((CapSense_RAW_FILTER_MASK & CapSense_MEDIAN_FILTER) || \
 178:Generated_Source\PSoC4/CapSense_CSHL.c ****             *   (CapSense_RAW_FILTER_MASK & CapSense_AVERAGING_FILTER))
 179:Generated_Source\PSoC4/CapSense_CSHL.c ****             */
 180:Generated_Source\PSoC4/CapSense_CSHL.c **** 
 181:Generated_Source\PSoC4/CapSense_CSHL.c ****     #if (CapSense_TOTAL_GENERICS_COUNT)
 182:Generated_Source\PSoC4/CapSense_CSHL.c ****         /* Exclude generic widget */
 183:Generated_Source\PSoC4/CapSense_CSHL.c ****         }
 184:Generated_Source\PSoC4/CapSense_CSHL.c ****     #endif  /* CapSense_TOTAL_GENERICS_COUNT */
 185:Generated_Source\PSoC4/CapSense_CSHL.c **** }
  60              		.loc 1 185 0
  61              		@ sp needed
  62 0020 10BD     		pop	{r4, pc}
  63              	.L3:
  64 0022 C046     		.align	2
  65              	.L2:
  66 0024 00000000 		.word	CapSense_widgetNumber
  67 0028 00000000 		.word	CapSense_sensorRaw
  68 002c 00000000 		.word	.LANCHOR0
  69 0030 00000000 		.word	.LANCHOR1
  70              		.cfi_endproc
  71              	.LFE34:
  72              		.size	CapSense_BaseInit, .-CapSense_BaseInit
  73              		.section	.text.CapSense_InitializeSensorBaseline,"ax",%progbits
  74              		.align	2
  75              		.global	CapSense_InitializeSensorBaseline
  76              		.code	16
  77              		.thumb_func
  78              		.type	CapSense_InitializeSensorBaseline, %function
  79              	CapSense_InitializeSensorBaseline:
  80              	.LFB35:
 186:Generated_Source\PSoC4/CapSense_CSHL.c **** 
 187:Generated_Source\PSoC4/CapSense_CSHL.c **** 
 188:Generated_Source\PSoC4/CapSense_CSHL.c **** /*******************************************************************************
 189:Generated_Source\PSoC4/CapSense_CSHL.c **** * Function Name: CapSense_InitializeSensorBaseline
 190:Generated_Source\PSoC4/CapSense_CSHL.c **** ********************************************************************************
 191:Generated_Source\PSoC4/CapSense_CSHL.c **** *
 192:Generated_Source\PSoC4/CapSense_CSHL.c **** * Summary:
 193:Generated_Source\PSoC4/CapSense_CSHL.c **** *  Loads the CapSense_sensorBaseline[sensor] array element with an
 194:Generated_Source\PSoC4/CapSense_CSHL.c **** *  initial value by scanning the selected sensor (one channel design) or a pair
 195:Generated_Source\PSoC4/CapSense_CSHL.c **** *  of sensors (two channels designs). The raw count value is copied into the
 196:Generated_Source\PSoC4/CapSense_CSHL.c **** *  baseline array for each sensor. The raw data filters are initialized if
 197:Generated_Source\PSoC4/CapSense_CSHL.c **** *  enabled.
 198:Generated_Source\PSoC4/CapSense_CSHL.c **** *
 199:Generated_Source\PSoC4/CapSense_CSHL.c **** * Parameters:
 200:Generated_Source\PSoC4/CapSense_CSHL.c **** *  sensor:  Sensor number.
 201:Generated_Source\PSoC4/CapSense_CSHL.c **** *
 202:Generated_Source\PSoC4/CapSense_CSHL.c **** * Return:
 203:Generated_Source\PSoC4/CapSense_CSHL.c **** *  None
 204:Generated_Source\PSoC4/CapSense_CSHL.c **** *
 205:Generated_Source\PSoC4/CapSense_CSHL.c **** * Global Variables:
ARM GAS  C:\Users\jagumiel\AppData\Local\Temp\ccx0gHK6.s 			page 6


 206:Generated_Source\PSoC4/CapSense_CSHL.c **** *  None
 207:Generated_Source\PSoC4/CapSense_CSHL.c **** *
 208:Generated_Source\PSoC4/CapSense_CSHL.c **** * Side Effects:
 209:Generated_Source\PSoC4/CapSense_CSHL.c **** *  None
 210:Generated_Source\PSoC4/CapSense_CSHL.c **** *
 211:Generated_Source\PSoC4/CapSense_CSHL.c **** *******************************************************************************/
 212:Generated_Source\PSoC4/CapSense_CSHL.c **** void CapSense_InitializeSensorBaseline(uint32 sensor)
 213:Generated_Source\PSoC4/CapSense_CSHL.c **** {
  81              		.loc 1 213 0
  82              		.cfi_startproc
  83              		@ args = 0, pretend = 0, frame = 0
  84              		@ frame_needed = 0, uses_anonymous_args = 0
  85              	.LVL4:
  86 0000 10B5     		push	{r4, lr}
  87              		.cfi_def_cfa_offset 8
  88              		.cfi_offset 4, -8
  89              		.cfi_offset 14, -4
  90 0002 0400     		movs	r4, r0
 214:Generated_Source\PSoC4/CapSense_CSHL.c ****     /* Scan sensor */
 215:Generated_Source\PSoC4/CapSense_CSHL.c ****     CapSense_ScanSensor(sensor);
  91              		.loc 1 215 0
  92 0004 FFF7FEFF 		bl	CapSense_ScanSensor
  93              	.LVL5:
  94              	.L5:
 216:Generated_Source\PSoC4/CapSense_CSHL.c ****     while(CapSense_IsBusy() != 0u)
  95              		.loc 1 216 0 discriminator 1
  96 0008 FFF7FEFF 		bl	CapSense_IsBusy
  97              	.LVL6:
  98 000c 0028     		cmp	r0, #0
  99 000e FBD1     		bne	.L5
 217:Generated_Source\PSoC4/CapSense_CSHL.c ****     {
 218:Generated_Source\PSoC4/CapSense_CSHL.c ****         /* Wait while sensor is busy */
 219:Generated_Source\PSoC4/CapSense_CSHL.c ****     }
 220:Generated_Source\PSoC4/CapSense_CSHL.c **** 
 221:Generated_Source\PSoC4/CapSense_CSHL.c ****     /* Initialize Baseline, Signal and debounce counters */
 222:Generated_Source\PSoC4/CapSense_CSHL.c ****     CapSense_BaseInit(sensor);
 100              		.loc 1 222 0
 101 0010 2000     		movs	r0, r4
 102 0012 FFF7FEFF 		bl	CapSense_BaseInit
 103              	.LVL7:
 223:Generated_Source\PSoC4/CapSense_CSHL.c **** }
 104              		.loc 1 223 0
 105              		@ sp needed
 106              	.LVL8:
 107 0016 10BD     		pop	{r4, pc}
 108              		.cfi_endproc
 109              	.LFE35:
 110              		.size	CapSense_InitializeSensorBaseline, .-CapSense_InitializeSensorBaseline
 111              		.section	.text.CapSense_InitializeAllBaselines,"ax",%progbits
 112              		.align	2
 113              		.global	CapSense_InitializeAllBaselines
 114              		.code	16
 115              		.thumb_func
 116              		.type	CapSense_InitializeAllBaselines, %function
 117              	CapSense_InitializeAllBaselines:
 118              	.LFB36:
 224:Generated_Source\PSoC4/CapSense_CSHL.c **** 
ARM GAS  C:\Users\jagumiel\AppData\Local\Temp\ccx0gHK6.s 			page 7


 225:Generated_Source\PSoC4/CapSense_CSHL.c **** 
 226:Generated_Source\PSoC4/CapSense_CSHL.c **** /*******************************************************************************
 227:Generated_Source\PSoC4/CapSense_CSHL.c **** * Function Name: CapSense_InitializeAllBaselines
 228:Generated_Source\PSoC4/CapSense_CSHL.c **** ********************************************************************************
 229:Generated_Source\PSoC4/CapSense_CSHL.c **** *
 230:Generated_Source\PSoC4/CapSense_CSHL.c **** * Summary:
 231:Generated_Source\PSoC4/CapSense_CSHL.c **** *  Uses the CapSense_InitializeSensorBaseline function to load the
 232:Generated_Source\PSoC4/CapSense_CSHL.c **** *  CapSense_sensorBaseline[] array with an initial values by scanning
 233:Generated_Source\PSoC4/CapSense_CSHL.c **** *  all the sensors. The raw count values are copied into the baseline array for
 234:Generated_Source\PSoC4/CapSense_CSHL.c **** *  all the sensors. The raw data filters are initialized if enabled.
 235:Generated_Source\PSoC4/CapSense_CSHL.c **** *
 236:Generated_Source\PSoC4/CapSense_CSHL.c **** * Parameters:
 237:Generated_Source\PSoC4/CapSense_CSHL.c **** *  None
 238:Generated_Source\PSoC4/CapSense_CSHL.c **** *
 239:Generated_Source\PSoC4/CapSense_CSHL.c **** * Return:
 240:Generated_Source\PSoC4/CapSense_CSHL.c **** *  None
 241:Generated_Source\PSoC4/CapSense_CSHL.c **** *
 242:Generated_Source\PSoC4/CapSense_CSHL.c **** * Global Variables:
 243:Generated_Source\PSoC4/CapSense_CSHL.c **** *  None
 244:Generated_Source\PSoC4/CapSense_CSHL.c **** *
 245:Generated_Source\PSoC4/CapSense_CSHL.c **** * Side Effects:
 246:Generated_Source\PSoC4/CapSense_CSHL.c **** *  None
 247:Generated_Source\PSoC4/CapSense_CSHL.c **** *
 248:Generated_Source\PSoC4/CapSense_CSHL.c **** *******************************************************************************/
 249:Generated_Source\PSoC4/CapSense_CSHL.c **** void CapSense_InitializeAllBaselines(void)
 250:Generated_Source\PSoC4/CapSense_CSHL.c **** {
 119              		.loc 1 250 0
 120              		.cfi_startproc
 121              		@ args = 0, pretend = 0, frame = 0
 122              		@ frame_needed = 0, uses_anonymous_args = 0
 123 0000 10B5     		push	{r4, lr}
 124              		.cfi_def_cfa_offset 8
 125              		.cfi_offset 4, -8
 126              		.cfi_offset 14, -4
 127              	.LVL9:
 251:Generated_Source\PSoC4/CapSense_CSHL.c ****     uint32 i;
 252:Generated_Source\PSoC4/CapSense_CSHL.c **** 
 253:Generated_Source\PSoC4/CapSense_CSHL.c ****     for(i = 0u; i < CapSense_TOTAL_SCANSLOT_COUNT; i++)
 128              		.loc 1 253 0
 129 0002 0024     		movs	r4, #0
 130 0004 03E0     		b	.L7
 131              	.LVL10:
 132              	.L8:
 254:Generated_Source\PSoC4/CapSense_CSHL.c ****     {
 255:Generated_Source\PSoC4/CapSense_CSHL.c ****         CapSense_InitializeSensorBaseline(i);
 133              		.loc 1 255 0 discriminator 3
 134 0006 2000     		movs	r0, r4
 135 0008 FFF7FEFF 		bl	CapSense_InitializeSensorBaseline
 136              	.LVL11:
 253:Generated_Source\PSoC4/CapSense_CSHL.c ****     {
 137              		.loc 1 253 0 discriminator 3
 138 000c 0134     		adds	r4, r4, #1
 139              	.LVL12:
 140              	.L7:
 253:Generated_Source\PSoC4/CapSense_CSHL.c ****     {
 141              		.loc 1 253 0 is_stmt 0 discriminator 1
 142 000e 012C     		cmp	r4, #1
ARM GAS  C:\Users\jagumiel\AppData\Local\Temp\ccx0gHK6.s 			page 8


 143 0010 F9D9     		bls	.L8
 256:Generated_Source\PSoC4/CapSense_CSHL.c ****     }
 257:Generated_Source\PSoC4/CapSense_CSHL.c **** }
 144              		.loc 1 257 0 is_stmt 1
 145              		@ sp needed
 146              	.LVL13:
 147 0012 10BD     		pop	{r4, pc}
 148              		.cfi_endproc
 149              	.LFE36:
 150              		.size	CapSense_InitializeAllBaselines, .-CapSense_InitializeAllBaselines
 151              		.section	.text.CapSense_InitializeEnabledBaselines,"ax",%progbits
 152              		.align	2
 153              		.global	CapSense_InitializeEnabledBaselines
 154              		.code	16
 155              		.thumb_func
 156              		.type	CapSense_InitializeEnabledBaselines, %function
 157              	CapSense_InitializeEnabledBaselines:
 158              	.LFB37:
 258:Generated_Source\PSoC4/CapSense_CSHL.c **** 
 259:Generated_Source\PSoC4/CapSense_CSHL.c **** 
 260:Generated_Source\PSoC4/CapSense_CSHL.c **** /*******************************************************************************
 261:Generated_Source\PSoC4/CapSense_CSHL.c **** * Function Name: CapSense_InitializeEnabledBaselines
 262:Generated_Source\PSoC4/CapSense_CSHL.c **** ********************************************************************************
 263:Generated_Source\PSoC4/CapSense_CSHL.c **** *
 264:Generated_Source\PSoC4/CapSense_CSHL.c **** * Summary:
 265:Generated_Source\PSoC4/CapSense_CSHL.c **** *  Scans all the enabled widgets and the raw count values are copied into the
 266:Generated_Source\PSoC4/CapSense_CSHL.c **** *  baseline array for all the sensors enabled in the scanning process. The baselines
 267:Generated_Source\PSoC4/CapSense_CSHL.c **** *  are initialized with zero values for sensors disabled from the scanning process.
 268:Generated_Source\PSoC4/CapSense_CSHL.c **** *  The raw data filters are initialized if enabled.
 269:Generated_Source\PSoC4/CapSense_CSHL.c **** *
 270:Generated_Source\PSoC4/CapSense_CSHL.c **** * Parameters:
 271:Generated_Source\PSoC4/CapSense_CSHL.c **** *  None
 272:Generated_Source\PSoC4/CapSense_CSHL.c **** *
 273:Generated_Source\PSoC4/CapSense_CSHL.c **** * Return:
 274:Generated_Source\PSoC4/CapSense_CSHL.c **** *  None
 275:Generated_Source\PSoC4/CapSense_CSHL.c **** *
 276:Generated_Source\PSoC4/CapSense_CSHL.c **** * Global Variables:
 277:Generated_Source\PSoC4/CapSense_CSHL.c **** *  CapSense_sensorRaw[] - used to store the sensors raw data.
 278:Generated_Source\PSoC4/CapSense_CSHL.c **** *  CapSense_sensorEnableMask[ ] - used to store bit masks of the enabled sensors.
 279:Generated_Source\PSoC4/CapSense_CSHL.c **** *
 280:Generated_Source\PSoC4/CapSense_CSHL.c **** * Side Effects:
 281:Generated_Source\PSoC4/CapSense_CSHL.c **** *  None
 282:Generated_Source\PSoC4/CapSense_CSHL.c **** *
 283:Generated_Source\PSoC4/CapSense_CSHL.c **** *******************************************************************************/
 284:Generated_Source\PSoC4/CapSense_CSHL.c **** void CapSense_InitializeEnabledBaselines(void)
 285:Generated_Source\PSoC4/CapSense_CSHL.c **** {
 159              		.loc 1 285 0
 160              		.cfi_startproc
 161              		@ args = 0, pretend = 0, frame = 0
 162              		@ frame_needed = 0, uses_anonymous_args = 0
 163 0000 10B5     		push	{r4, lr}
 164              		.cfi_def_cfa_offset 8
 165              		.cfi_offset 4, -8
 166              		.cfi_offset 14, -4
 286:Generated_Source\PSoC4/CapSense_CSHL.c ****     uint32 i;
 287:Generated_Source\PSoC4/CapSense_CSHL.c ****     uint32 isSensorEnabled;
 288:Generated_Source\PSoC4/CapSense_CSHL.c **** 
ARM GAS  C:\Users\jagumiel\AppData\Local\Temp\ccx0gHK6.s 			page 9


 289:Generated_Source\PSoC4/CapSense_CSHL.c ****     CapSense_ScanEnabledWidgets();
 167              		.loc 1 289 0
 168 0002 FFF7FEFF 		bl	CapSense_ScanEnabledWidgets
 169              	.LVL14:
 170              	.L10:
 290:Generated_Source\PSoC4/CapSense_CSHL.c ****     while(CapSense_IsBusy() != 0u)
 171              		.loc 1 290 0 discriminator 1
 172 0006 FFF7FEFF 		bl	CapSense_IsBusy
 173              	.LVL15:
 174 000a 0028     		cmp	r0, #0
 175 000c FBD1     		bne	.L10
 176 000e 0024     		movs	r4, #0
 177 0010 09E0     		b	.L11
 178              	.LVL16:
 179              	.L13:
 291:Generated_Source\PSoC4/CapSense_CSHL.c ****     {
 292:Generated_Source\PSoC4/CapSense_CSHL.c ****         /* Wait while sensor is busy */
 293:Generated_Source\PSoC4/CapSense_CSHL.c ****     }
 294:Generated_Source\PSoC4/CapSense_CSHL.c **** 
 295:Generated_Source\PSoC4/CapSense_CSHL.c ****     for(i = 0u; i < CapSense_TOTAL_SENSOR_COUNT; i++)
 296:Generated_Source\PSoC4/CapSense_CSHL.c ****     {
 297:Generated_Source\PSoC4/CapSense_CSHL.c ****         isSensorEnabled = CapSense_GetBitValue(CapSense_sensorEnableMask, i);
 180              		.loc 1 297 0
 181 0012 2100     		movs	r1, r4
 182 0014 0548     		ldr	r0, .L14
 183 0016 FFF7FEFF 		bl	CapSense_GetBitValue
 184              	.LVL17:
 298:Generated_Source\PSoC4/CapSense_CSHL.c **** 
 299:Generated_Source\PSoC4/CapSense_CSHL.c ****         /* Clear raw data if sensor is disabled from scanning process */
 300:Generated_Source\PSoC4/CapSense_CSHL.c ****         if(isSensorEnabled != 0u)
 185              		.loc 1 300 0
 186 001a 0028     		cmp	r0, #0
 187 001c 02D0     		beq	.L12
 301:Generated_Source\PSoC4/CapSense_CSHL.c ****         {
 302:Generated_Source\PSoC4/CapSense_CSHL.c ****             /* Initialize baselines */
 303:Generated_Source\PSoC4/CapSense_CSHL.c ****             CapSense_BaseInit(i);
 188              		.loc 1 303 0
 189 001e 2000     		movs	r0, r4
 190              	.LVL18:
 191 0020 FFF7FEFF 		bl	CapSense_BaseInit
 192              	.LVL19:
 193              	.L12:
 295:Generated_Source\PSoC4/CapSense_CSHL.c ****     {
 194              		.loc 1 295 0 discriminator 2
 195 0024 0134     		adds	r4, r4, #1
 196              	.LVL20:
 197              	.L11:
 295:Generated_Source\PSoC4/CapSense_CSHL.c ****     {
 198              		.loc 1 295 0 is_stmt 0 discriminator 1
 199 0026 012C     		cmp	r4, #1
 200 0028 F3D9     		bls	.L13
 304:Generated_Source\PSoC4/CapSense_CSHL.c ****         }
 305:Generated_Source\PSoC4/CapSense_CSHL.c ****     }
 306:Generated_Source\PSoC4/CapSense_CSHL.c **** }
 201              		.loc 1 306 0 is_stmt 1
 202              		@ sp needed
 203              	.LVL21:
ARM GAS  C:\Users\jagumiel\AppData\Local\Temp\ccx0gHK6.s 			page 10


 204 002a 10BD     		pop	{r4, pc}
 205              	.L15:
 206              		.align	2
 207              	.L14:
 208 002c 00000000 		.word	CapSense_sensorEnableMask
 209              		.cfi_endproc
 210              	.LFE37:
 211              		.size	CapSense_InitializeEnabledBaselines, .-CapSense_InitializeEnabledBaselines
 212              		.section	.text.CapSense_UpdateBaselineNoThreshold,"ax",%progbits
 213              		.align	2
 214              		.global	CapSense_UpdateBaselineNoThreshold
 215              		.code	16
 216              		.thumb_func
 217              		.type	CapSense_UpdateBaselineNoThreshold, %function
 218              	CapSense_UpdateBaselineNoThreshold:
 219              	.LFB38:
 307:Generated_Source\PSoC4/CapSense_CSHL.c **** 
 308:Generated_Source\PSoC4/CapSense_CSHL.c **** 
 309:Generated_Source\PSoC4/CapSense_CSHL.c **** /*******************************************************************************
 310:Generated_Source\PSoC4/CapSense_CSHL.c **** * Function Name: CapSense_UpdateBaselineNoThreshold
 311:Generated_Source\PSoC4/CapSense_CSHL.c **** ********************************************************************************
 312:Generated_Source\PSoC4/CapSense_CSHL.c **** *
 313:Generated_Source\PSoC4/CapSense_CSHL.c **** * Summary:
 314:Generated_Source\PSoC4/CapSense_CSHL.c **** *  Updates the CapSense_sensorBaseline[sensor] array element using the
 315:Generated_Source\PSoC4/CapSense_CSHL.c **** *  LP filter with k = 256. The signal calculates the difference of count by
 316:Generated_Source\PSoC4/CapSense_CSHL.c **** *  subtracting the previous baseline from the current raw count value and stores
 317:Generated_Source\PSoC4/CapSense_CSHL.c **** *  it in CapSense_sensorSignal[sensor].
 318:Generated_Source\PSoC4/CapSense_CSHL.c **** *  If the auto reset option is enabled, the baseline updated regards the noise threshold.
 319:Generated_Source\PSoC4/CapSense_CSHL.c **** *  If the auto reset option is disabled, the baseline stops updating; baseline is loaded
 320:Generated_Source\PSoC4/CapSense_CSHL.c **** *  with a raw count value if a signal is greater than zero and if signal is less
 321:Generated_Source\PSoC4/CapSense_CSHL.c **** *  than noise threshold.
 322:Generated_Source\PSoC4/CapSense_CSHL.c **** *  Raw data filters are applied to the values if enabled before baseline
 323:Generated_Source\PSoC4/CapSense_CSHL.c **** *  calculation.
 324:Generated_Source\PSoC4/CapSense_CSHL.c **** *
 325:Generated_Source\PSoC4/CapSense_CSHL.c **** *  This API does not update the thresholds in the Smartsense Mode.
 326:Generated_Source\PSoC4/CapSense_CSHL.c **** *
 327:Generated_Source\PSoC4/CapSense_CSHL.c **** * Parameters:
 328:Generated_Source\PSoC4/CapSense_CSHL.c **** *  sensor:  Sensor number.
 329:Generated_Source\PSoC4/CapSense_CSHL.c **** *
 330:Generated_Source\PSoC4/CapSense_CSHL.c **** * Return:
 331:Generated_Source\PSoC4/CapSense_CSHL.c **** *  None
 332:Generated_Source\PSoC4/CapSense_CSHL.c **** *
 333:Generated_Source\PSoC4/CapSense_CSHL.c **** * Global Variables:
 334:Generated_Source\PSoC4/CapSense_CSHL.c **** *  CapSense_widgetNumber[]  - stores widget numbers.
 335:Generated_Source\PSoC4/CapSense_CSHL.c **** *  CapSense_sensorBaseline[]    - used to store baseline value.
 336:Generated_Source\PSoC4/CapSense_CSHL.c **** *  CapSense_sensorBaselineLow[] - used to store fraction byte of
 337:Generated_Source\PSoC4/CapSense_CSHL.c **** *  baseline value.
 338:Generated_Source\PSoC4/CapSense_CSHL.c **** *  CapSense_sensorSignal[]      - used to store difference between
 339:Generated_Source\PSoC4/CapSense_CSHL.c **** *  current value of raw data and previous value of baseline.
 340:Generated_Source\PSoC4/CapSense_CSHL.c **** *  CapSense_rawFilterData1[]    - used to store previous sample of
 341:Generated_Source\PSoC4/CapSense_CSHL.c **** *  any enabled raw data filter.
 342:Generated_Source\PSoC4/CapSense_CSHL.c **** *  CapSense_rawFilterData2[]    - used to store before previous sample
 343:Generated_Source\PSoC4/CapSense_CSHL.c **** *  of enabled raw data filter. Only required for median or average filters.
 344:Generated_Source\PSoC4/CapSense_CSHL.c **** *
 345:Generated_Source\PSoC4/CapSense_CSHL.c **** * Side Effects:
 346:Generated_Source\PSoC4/CapSense_CSHL.c **** *  None
 347:Generated_Source\PSoC4/CapSense_CSHL.c **** *
ARM GAS  C:\Users\jagumiel\AppData\Local\Temp\ccx0gHK6.s 			page 11


 348:Generated_Source\PSoC4/CapSense_CSHL.c **** *******************************************************************************/
 349:Generated_Source\PSoC4/CapSense_CSHL.c **** void CapSense_UpdateBaselineNoThreshold(uint32 sensor)
 350:Generated_Source\PSoC4/CapSense_CSHL.c **** {
 220              		.loc 1 350 0
 221              		.cfi_startproc
 222              		@ args = 0, pretend = 0, frame = 8
 223              		@ frame_needed = 0, uses_anonymous_args = 0
 224              	.LVL22:
 225 0000 F0B5     		push	{r4, r5, r6, r7, lr}
 226              		.cfi_def_cfa_offset 20
 227              		.cfi_offset 4, -20
 228              		.cfi_offset 5, -16
 229              		.cfi_offset 6, -12
 230              		.cfi_offset 7, -8
 231              		.cfi_offset 14, -4
 232 0002 4F46     		mov	r7, r9
 233 0004 80B4     		push	{r7}
 234              		.cfi_def_cfa_offset 24
 235              		.cfi_offset 9, -24
 236 0006 82B0     		sub	sp, sp, #8
 237              		.cfi_def_cfa_offset 32
 238 0008 0400     		movs	r4, r0
 351:Generated_Source\PSoC4/CapSense_CSHL.c ****     uint32 calc;
 352:Generated_Source\PSoC4/CapSense_CSHL.c ****     uint32 sign;
 353:Generated_Source\PSoC4/CapSense_CSHL.c ****     uint16 tempRaw;
 354:Generated_Source\PSoC4/CapSense_CSHL.c ****     uint16 filteredRawData;
 355:Generated_Source\PSoC4/CapSense_CSHL.c ****     uint8 widget = CapSense_widgetNumber[sensor];
 239              		.loc 1 355 0
 240 000a 344B     		ldr	r3, .L26
 241 000c 1B5C     		ldrb	r3, [r3, r0]
 242 000e 9946     		mov	r9, r3
 356:Generated_Source\PSoC4/CapSense_CSHL.c ****     uint8 noiseThreshold;
 357:Generated_Source\PSoC4/CapSense_CSHL.c **** 
 358:Generated_Source\PSoC4/CapSense_CSHL.c ****     #if (CapSense_TOTAL_GENERICS_COUNT)
 359:Generated_Source\PSoC4/CapSense_CSHL.c ****         /* Exclude generic widget */
 360:Generated_Source\PSoC4/CapSense_CSHL.c ****         if(widget < CapSense_END_OF_WIDGETS_INDEX)
 361:Generated_Source\PSoC4/CapSense_CSHL.c ****         {
 362:Generated_Source\PSoC4/CapSense_CSHL.c ****     #endif  /* CapSense_TOTAL_GENERICS_COUNT */
 363:Generated_Source\PSoC4/CapSense_CSHL.c **** 
 364:Generated_Source\PSoC4/CapSense_CSHL.c ****     noiseThreshold = CapSense_noiseThreshold[widget];
 243              		.loc 1 364 0
 244 0010 334B     		ldr	r3, .L26+4
 245 0012 4A46     		mov	r2, r9
 246 0014 9B5C     		ldrb	r3, [r3, r2]
 247 0016 0193     		str	r3, [sp, #4]
 248              	.LVL23:
 365:Generated_Source\PSoC4/CapSense_CSHL.c ****     filteredRawData = CapSense_sensorRaw[sensor];
 249              		.loc 1 365 0
 250 0018 324A     		ldr	r2, .L26+8
 251 001a 4500     		lsls	r5, r0, #1
 252 001c AE5A     		ldrh	r6, [r5, r2]
 253              	.LVL24:
 366:Generated_Source\PSoC4/CapSense_CSHL.c **** 
 367:Generated_Source\PSoC4/CapSense_CSHL.c ****     #if (CapSense_RAW_FILTER_MASK != 0u)
 368:Generated_Source\PSoC4/CapSense_CSHL.c ****     if(CapSense_enableRawFilters != 0u)
 369:Generated_Source\PSoC4/CapSense_CSHL.c ****     {
 370:Generated_Source\PSoC4/CapSense_CSHL.c ****         #if (CapSense_RAW_FILTER_MASK & CapSense_MEDIAN_FILTER)
ARM GAS  C:\Users\jagumiel\AppData\Local\Temp\ccx0gHK6.s 			page 12


 371:Generated_Source\PSoC4/CapSense_CSHL.c ****             tempRaw = filteredRawData;
 372:Generated_Source\PSoC4/CapSense_CSHL.c ****             filteredRawData = CapSense_MedianFilter(filteredRawData, CapSense_rawFilterData1[sensor
 373:Generated_Source\PSoC4/CapSense_CSHL.c ****                                                             CapSense_rawFilterData2[sensor]);
 374:Generated_Source\PSoC4/CapSense_CSHL.c ****             CapSense_rawFilterData2[sensor] = CapSense_rawFilterData1[sensor];
 375:Generated_Source\PSoC4/CapSense_CSHL.c ****             CapSense_rawFilterData1[sensor] = tempRaw;
 376:Generated_Source\PSoC4/CapSense_CSHL.c **** 
 377:Generated_Source\PSoC4/CapSense_CSHL.c ****         #elif (CapSense_RAW_FILTER_MASK & CapSense_AVERAGING_FILTER)
 378:Generated_Source\PSoC4/CapSense_CSHL.c ****             tempRaw = filteredRawData;
 379:Generated_Source\PSoC4/CapSense_CSHL.c ****             filteredRawData = CapSense_AveragingFilter(filteredRawData, CapSense_rawFilterData1[sen
 380:Generated_Source\PSoC4/CapSense_CSHL.c ****                                                                CapSense_rawFilterData2[sensor]);
 381:Generated_Source\PSoC4/CapSense_CSHL.c ****             CapSense_rawFilterData2[sensor] = CapSense_rawFilterData1[sensor];
 382:Generated_Source\PSoC4/CapSense_CSHL.c ****             CapSense_rawFilterData1[sensor] = tempRaw;
 383:Generated_Source\PSoC4/CapSense_CSHL.c **** 
 384:Generated_Source\PSoC4/CapSense_CSHL.c ****         #elif (CapSense_RAW_FILTER_MASK & CapSense_IIR2_FILTER)
 385:Generated_Source\PSoC4/CapSense_CSHL.c ****             filteredRawData = CapSense_IIR2Filter(filteredRawData, CapSense_rawFilterData1[sensor])
 386:Generated_Source\PSoC4/CapSense_CSHL.c ****             CapSense_rawFilterData1[sensor] = filteredRawData;
 387:Generated_Source\PSoC4/CapSense_CSHL.c **** 
 388:Generated_Source\PSoC4/CapSense_CSHL.c ****         #elif (CapSense_RAW_FILTER_MASK & CapSense_IIR4_FILTER)
 389:Generated_Source\PSoC4/CapSense_CSHL.c ****             filteredRawData = CapSense_IIR4Filter(filteredRawData, CapSense_rawFilterData1[sensor])
 390:Generated_Source\PSoC4/CapSense_CSHL.c ****             CapSense_rawFilterData1[sensor] = filteredRawData;
 391:Generated_Source\PSoC4/CapSense_CSHL.c **** 
 392:Generated_Source\PSoC4/CapSense_CSHL.c ****         #elif (CapSense_RAW_FILTER_MASK & CapSense_JITTER_FILTER)
 393:Generated_Source\PSoC4/CapSense_CSHL.c ****             filteredRawData = CapSense_JitterFilter(filteredRawData, CapSense_rawFilterData1[sensor
 394:Generated_Source\PSoC4/CapSense_CSHL.c ****             CapSense_rawFilterData1[sensor] = filteredRawData;
 395:Generated_Source\PSoC4/CapSense_CSHL.c **** 
 396:Generated_Source\PSoC4/CapSense_CSHL.c ****         #elif (CapSense_RAW_FILTER_MASK & CapSense_IIR8_FILTER)
 397:Generated_Source\PSoC4/CapSense_CSHL.c ****             filteredRawData = CapSense_IIR8Filter(filteredRawData, CapSense_rawFilterData1[sensor])
 398:Generated_Source\PSoC4/CapSense_CSHL.c ****             CapSense_rawFilterData1[sensor] = filteredRawData;
 399:Generated_Source\PSoC4/CapSense_CSHL.c **** 
 400:Generated_Source\PSoC4/CapSense_CSHL.c ****         #elif (CapSense_RAW_FILTER_MASK & CapSense_IIR16_FILTER)
 401:Generated_Source\PSoC4/CapSense_CSHL.c ****             filteredRawData = CapSense_IIR16Filter(filteredRawData, CapSense_rawFilterData1[sensor]
 402:Generated_Source\PSoC4/CapSense_CSHL.c ****             CapSense_rawFilterData1[sensor] = filteredRawData;
 403:Generated_Source\PSoC4/CapSense_CSHL.c **** 
 404:Generated_Source\PSoC4/CapSense_CSHL.c ****         #else
 405:Generated_Source\PSoC4/CapSense_CSHL.c ****             /* No Raw filters */
 406:Generated_Source\PSoC4/CapSense_CSHL.c ****         #endif  /* (CapSense_RAW_FILTER_MASK & CapSense_MEDIAN_FILTER) */
 407:Generated_Source\PSoC4/CapSense_CSHL.c ****     }
 408:Generated_Source\PSoC4/CapSense_CSHL.c ****     #endif  /* (CapSense_RAW_FILTER_MASK != 0u) */
 409:Generated_Source\PSoC4/CapSense_CSHL.c **** 
 410:Generated_Source\PSoC4/CapSense_CSHL.c ****     #if (CapSense_TUNING_METHOD == CapSense__TUNING_AUTO)
 411:Generated_Source\PSoC4/CapSense_CSHL.c ****         MeasureNoiseEnvelope_P4_v2_60(&CapSense_config, (uint8)sensor, CapSense_sensorRaw);
 254              		.loc 1 411 0
 255 001e C1B2     		uxtb	r1, r0
 256 0020 3148     		ldr	r0, .L26+12
 257              	.LVL25:
 258 0022 FFF7FEFF 		bl	MeasureNoiseEnvelope_P4_v2_60
 259              	.LVL26:
 412:Generated_Source\PSoC4/CapSense_CSHL.c ****     #endif /* (CapSense_TUNING_METHOD == CapSense__TUNING_AUTO) */
 413:Generated_Source\PSoC4/CapSense_CSHL.c **** 
 414:Generated_Source\PSoC4/CapSense_CSHL.c ****     /* Baseline calculation */
 415:Generated_Source\PSoC4/CapSense_CSHL.c ****     /* Calculate difference RawData[cur] - Baseline[prev] */
 416:Generated_Source\PSoC4/CapSense_CSHL.c ****     if(filteredRawData >= CapSense_sensorBaseline[sensor])
 260              		.loc 1 416 0
 261 0026 314B     		ldr	r3, .L26+16
 262 0028 E95A     		ldrh	r1, [r5, r3]
 263 002a 8E42     		cmp	r6, r1
 264 002c 06D3     		bcc	.L17
ARM GAS  C:\Users\jagumiel\AppData\Local\Temp\ccx0gHK6.s 			page 13


 417:Generated_Source\PSoC4/CapSense_CSHL.c ****     {
 418:Generated_Source\PSoC4/CapSense_CSHL.c ****         CapSense_lowBaselineResetCnt[sensor] = 0u;
 265              		.loc 1 418 0
 266 002e 0022     		movs	r2, #0
 267 0030 2F4B     		ldr	r3, .L26+20
 268 0032 1A55     		strb	r2, [r3, r4]
 419:Generated_Source\PSoC4/CapSense_CSHL.c ****         tempRaw = filteredRawData - CapSense_sensorBaseline[sensor];
 269              		.loc 1 419 0
 270 0034 751A     		subs	r5, r6, r1
 271 0036 ADB2     		uxth	r5, r5
 272              	.LVL27:
 420:Generated_Source\PSoC4/CapSense_CSHL.c ****         sign = 1u;    /* Positive difference - Calculate the Signal */
 273              		.loc 1 420 0
 274 0038 0127     		movs	r7, #1
 275 003a 02E0     		b	.L18
 276              	.LVL28:
 277              	.L17:
 421:Generated_Source\PSoC4/CapSense_CSHL.c ****     }
 422:Generated_Source\PSoC4/CapSense_CSHL.c ****     else
 423:Generated_Source\PSoC4/CapSense_CSHL.c ****     {
 424:Generated_Source\PSoC4/CapSense_CSHL.c ****         tempRaw = CapSense_sensorBaseline[sensor] - filteredRawData;
 278              		.loc 1 424 0
 279 003c 8D1B     		subs	r5, r1, r6
 280 003e ADB2     		uxth	r5, r5
 281              	.LVL29:
 425:Generated_Source\PSoC4/CapSense_CSHL.c ****         sign = 0u;    /* Negative difference - Do NOT calculate the Signal */
 282              		.loc 1 425 0
 283 0040 0027     		movs	r7, #0
 284              	.LVL30:
 285              	.L18:
 426:Generated_Source\PSoC4/CapSense_CSHL.c ****     }
 427:Generated_Source\PSoC4/CapSense_CSHL.c **** 
 428:Generated_Source\PSoC4/CapSense_CSHL.c ****     #if (CapSense_TUNING_METHOD != CapSense__TUNING_NONE)
 429:Generated_Source\PSoC4/CapSense_CSHL.c ****     if((sign == 0u) && (tempRaw > (uint16) CapSense_negativeNoiseThreshold[widget]))
 286              		.loc 1 429 0
 287 0042 002F     		cmp	r7, #0
 288 0044 16D1     		bne	.L19
 289              		.loc 1 429 0 is_stmt 0 discriminator 1
 290 0046 2B4B     		ldr	r3, .L26+24
 291 0048 4A46     		mov	r2, r9
 292 004a 9B5C     		ldrb	r3, [r3, r2]
 293 004c 9D42     		cmp	r5, r3
 294 004e 11D9     		bls	.L19
 430:Generated_Source\PSoC4/CapSense_CSHL.c ****     #else
 431:Generated_Source\PSoC4/CapSense_CSHL.c ****     if((sign == 0u) && (tempRaw > (uint16) CapSense_NEGATIVE_NOISE_THRESHOLD))
 432:Generated_Source\PSoC4/CapSense_CSHL.c ****     #endif /* (CapSense_TUNING_METHOD != CapSense__TUNING_NONE) */
 433:Generated_Source\PSoC4/CapSense_CSHL.c ****     {
 434:Generated_Source\PSoC4/CapSense_CSHL.c ****         if(CapSense_lowBaselineResetCnt[sensor] >= CapSense_lowBaselineReset[sensor])
 295              		.loc 1 434 0 is_stmt 1
 296 0050 274B     		ldr	r3, .L26+20
 297 0052 1B5D     		ldrb	r3, [r3, r4]
 298 0054 284A     		ldr	r2, .L26+28
 299 0056 1219     		adds	r2, r2, r4
 300 0058 1279     		ldrb	r2, [r2, #4]
 301 005a 9342     		cmp	r3, r2
 302 005c 06D3     		bcc	.L20
 435:Generated_Source\PSoC4/CapSense_CSHL.c ****         {
ARM GAS  C:\Users\jagumiel\AppData\Local\Temp\ccx0gHK6.s 			page 14


 436:Generated_Source\PSoC4/CapSense_CSHL.c ****             CapSense_BaseInit(sensor);
 303              		.loc 1 436 0
 304 005e 2000     		movs	r0, r4
 305 0060 FFF7FEFF 		bl	CapSense_BaseInit
 306              	.LVL31:
 437:Generated_Source\PSoC4/CapSense_CSHL.c ****             CapSense_lowBaselineResetCnt[sensor] = 0u;
 307              		.loc 1 437 0
 308 0064 0022     		movs	r2, #0
 309 0066 224B     		ldr	r3, .L26+20
 310 0068 1A55     		strb	r2, [r3, r4]
 311 006a 1EE0     		b	.L21
 312              	.L20:
 438:Generated_Source\PSoC4/CapSense_CSHL.c ****         }
 439:Generated_Source\PSoC4/CapSense_CSHL.c ****         else
 440:Generated_Source\PSoC4/CapSense_CSHL.c ****         {
 441:Generated_Source\PSoC4/CapSense_CSHL.c ****             CapSense_lowBaselineResetCnt[sensor]++;
 313              		.loc 1 441 0
 314 006c 0133     		adds	r3, r3, #1
 315 006e 204A     		ldr	r2, .L26+20
 316 0070 1355     		strb	r3, [r2, r4]
 317 0072 1AE0     		b	.L21
 318              	.L19:
 442:Generated_Source\PSoC4/CapSense_CSHL.c ****         }
 443:Generated_Source\PSoC4/CapSense_CSHL.c ****     }
 444:Generated_Source\PSoC4/CapSense_CSHL.c ****     else
 445:Generated_Source\PSoC4/CapSense_CSHL.c ****     {
 446:Generated_Source\PSoC4/CapSense_CSHL.c ****         #if (CapSense_AUTO_RESET == CapSense_AUTO_RESET_DISABLE)
 447:Generated_Source\PSoC4/CapSense_CSHL.c ****         #if (CapSense_TUNING_METHOD != CapSense__TUNING_NONE)
 448:Generated_Source\PSoC4/CapSense_CSHL.c ****             /* Update Baseline if lower than noiseThreshold */
 449:Generated_Source\PSoC4/CapSense_CSHL.c ****             if ( (tempRaw <= noiseThreshold) ||
 319              		.loc 1 449 0
 320 0074 6B46     		mov	r3, sp
 321 0076 9B88     		ldrh	r3, [r3, #4]
 322 0078 9D42     		cmp	r5, r3
 323 007a 06D9     		bls	.L22
 450:Generated_Source\PSoC4/CapSense_CSHL.c ****              ((tempRaw < (uint16) CapSense_negativeNoiseThreshold[widget])
 324              		.loc 1 450 0 discriminator 1
 325 007c 1D4B     		ldr	r3, .L26+24
 326 007e 4A46     		mov	r2, r9
 327 0080 9B5C     		ldrb	r3, [r3, r2]
 449:Generated_Source\PSoC4/CapSense_CSHL.c ****              ((tempRaw < (uint16) CapSense_negativeNoiseThreshold[widget])
 328              		.loc 1 449 0 discriminator 1
 329 0082 9D42     		cmp	r5, r3
 330 0084 11D2     		bcs	.L21
 451:Generated_Source\PSoC4/CapSense_CSHL.c ****                && (sign == 0u)))
 331              		.loc 1 451 0
 332 0086 002F     		cmp	r7, #0
 333 0088 0FD1     		bne	.L21
 334              	.L22:
 452:Generated_Source\PSoC4/CapSense_CSHL.c ****             {
 453:Generated_Source\PSoC4/CapSense_CSHL.c ****         #else
 454:Generated_Source\PSoC4/CapSense_CSHL.c ****             /* Update Baseline if lower than noiseThreshold */
 455:Generated_Source\PSoC4/CapSense_CSHL.c ****             if ( (tempRaw <= noiseThreshold) ||
 456:Generated_Source\PSoC4/CapSense_CSHL.c ****                  ((tempRaw < (uint16) CapSense_NEGATIVE_NOISE_THRESHOLD)
 457:Generated_Source\PSoC4/CapSense_CSHL.c ****                    && (sign == 0u)))
 458:Generated_Source\PSoC4/CapSense_CSHL.c ****             {
 459:Generated_Source\PSoC4/CapSense_CSHL.c ****         #endif /* (CapSense_TUNING_METHOD != CapSense__TUNING_NONE) */
ARM GAS  C:\Users\jagumiel\AppData\Local\Temp\ccx0gHK6.s 			page 15


 460:Generated_Source\PSoC4/CapSense_CSHL.c ****         #endif /* (CapSense_AUTO_RESET == CapSense_AUTO_RESET_DISABLE) */
 461:Generated_Source\PSoC4/CapSense_CSHL.c ****                 /* Make full Baseline 23 bits */
 462:Generated_Source\PSoC4/CapSense_CSHL.c ****                 calc = (uint32) CapSense_sensorBaseline[sensor] << 8u;
 335              		.loc 1 462 0
 336 008a 0B02     		lsls	r3, r1, #8
 337              	.LVL32:
 463:Generated_Source\PSoC4/CapSense_CSHL.c ****                 calc |= (uint32) CapSense_sensorBaselineLow[sensor];
 338              		.loc 1 463 0
 339 008c 174A     		ldr	r2, .L26+16
 340 008e 9446     		mov	ip, r2
 341 0090 1019     		adds	r0, r2, r4
 342 0092 0279     		ldrb	r2, [r0, #4]
 343 0094 1343     		orrs	r3, r2
 344              	.LVL33:
 464:Generated_Source\PSoC4/CapSense_CSHL.c **** 
 465:Generated_Source\PSoC4/CapSense_CSHL.c ****                 /* Add Raw Data to Baseline */
 466:Generated_Source\PSoC4/CapSense_CSHL.c ****                 calc += filteredRawData;
 345              		.loc 1 466 0
 346 0096 F318     		adds	r3, r6, r3
 347              	.LVL34:
 467:Generated_Source\PSoC4/CapSense_CSHL.c **** 
 468:Generated_Source\PSoC4/CapSense_CSHL.c ****                 /* Sub the high Baseline */
 469:Generated_Source\PSoC4/CapSense_CSHL.c ****                 calc -= CapSense_sensorBaseline[sensor];
 348              		.loc 1 469 0
 349 0098 5B1A     		subs	r3, r3, r1
 350              	.LVL35:
 470:Generated_Source\PSoC4/CapSense_CSHL.c **** 
 471:Generated_Source\PSoC4/CapSense_CSHL.c ****                 /* Put Baseline and BaselineLow */
 472:Generated_Source\PSoC4/CapSense_CSHL.c ****                 CapSense_sensorBaseline[sensor] = ((uint16) (calc >> 8u));
 351              		.loc 1 472 0
 352 009a 190A     		lsrs	r1, r3, #8
 353 009c 6200     		lsls	r2, r4, #1
 354 009e 6646     		mov	r6, ip
 355              	.LVL36:
 356 00a0 B152     		strh	r1, [r6, r2]
 473:Generated_Source\PSoC4/CapSense_CSHL.c ****                 CapSense_sensorBaselineLow[sensor] = ((uint8) calc);
 357              		.loc 1 473 0
 358 00a2 0371     		strb	r3, [r0, #4]
 474:Generated_Source\PSoC4/CapSense_CSHL.c **** 
 475:Generated_Source\PSoC4/CapSense_CSHL.c ****                 CapSense_lowBaselineResetCnt[sensor] = 0u;
 359              		.loc 1 475 0
 360 00a4 0022     		movs	r2, #0
 361 00a6 124B     		ldr	r3, .L26+20
 362              	.LVL37:
 363 00a8 1A55     		strb	r2, [r3, r4]
 364              	.L21:
 476:Generated_Source\PSoC4/CapSense_CSHL.c ****         #if (CapSense_AUTO_RESET == CapSense_AUTO_RESET_DISABLE)
 477:Generated_Source\PSoC4/CapSense_CSHL.c ****             }
 478:Generated_Source\PSoC4/CapSense_CSHL.c ****         #endif /* (CapSense_AUTO_RESET == CapSense_AUTO_RESET_DISABLE) */
 479:Generated_Source\PSoC4/CapSense_CSHL.c ****     }
 480:Generated_Source\PSoC4/CapSense_CSHL.c **** 
 481:Generated_Source\PSoC4/CapSense_CSHL.c ****     /* Calculate Signal if positive difference > noiseThreshold */
 482:Generated_Source\PSoC4/CapSense_CSHL.c ****     if((tempRaw > (uint16) noiseThreshold) && (sign != 0u))
 365              		.loc 1 482 0
 366 00aa 6B46     		mov	r3, sp
 367 00ac 9E88     		ldrh	r6, [r3, #4]
 368 00ae B542     		cmp	r5, r6
ARM GAS  C:\Users\jagumiel\AppData\Local\Temp\ccx0gHK6.s 			page 16


 369 00b0 0CD9     		bls	.L23
 370              		.loc 1 482 0 is_stmt 0 discriminator 1
 371 00b2 002F     		cmp	r7, #0
 372 00b4 0AD0     		beq	.L23
 483:Generated_Source\PSoC4/CapSense_CSHL.c ****     {
 484:Generated_Source\PSoC4/CapSense_CSHL.c ****         #if (CapSense_SIGNAL_SIZE == CapSense_SIGNAL_SIZE_UINT8)
 485:Generated_Source\PSoC4/CapSense_CSHL.c ****             /* Over flow defence for uint8 */
 486:Generated_Source\PSoC4/CapSense_CSHL.c ****             if (tempRaw > 0xFFu)
 373              		.loc 1 486 0 is_stmt 1
 374 00b6 FF2D     		cmp	r5, #255
 375 00b8 04D9     		bls	.L24
 487:Generated_Source\PSoC4/CapSense_CSHL.c ****             {
 488:Generated_Source\PSoC4/CapSense_CSHL.c ****                 CapSense_sensorSignal[sensor] = 0xFFu;
 376              		.loc 1 488 0
 377 00ba 0C4B     		ldr	r3, .L26+16
 378 00bc 1C19     		adds	r4, r3, r4
 379              	.LVL38:
 380 00be FF23     		movs	r3, #255
 381 00c0 2372     		strb	r3, [r4, #8]
 382 00c2 07E0     		b	.L16
 383              	.LVL39:
 384              	.L24:
 489:Generated_Source\PSoC4/CapSense_CSHL.c ****             }
 490:Generated_Source\PSoC4/CapSense_CSHL.c ****             else
 491:Generated_Source\PSoC4/CapSense_CSHL.c ****             {
 492:Generated_Source\PSoC4/CapSense_CSHL.c ****                 CapSense_sensorSignal[sensor] = ((uint8) tempRaw);
 385              		.loc 1 492 0
 386 00c4 094B     		ldr	r3, .L26+16
 387 00c6 1C19     		adds	r4, r3, r4
 388              	.LVL40:
 389 00c8 2572     		strb	r5, [r4, #8]
 390 00ca 03E0     		b	.L16
 391              	.LVL41:
 392              	.L23:
 493:Generated_Source\PSoC4/CapSense_CSHL.c ****             }
 494:Generated_Source\PSoC4/CapSense_CSHL.c ****         #else
 495:Generated_Source\PSoC4/CapSense_CSHL.c ****             CapSense_sensorSignal[sensor] = ((uint16) tempRaw);
 496:Generated_Source\PSoC4/CapSense_CSHL.c ****         #endif  /* (CapSense_SIGNAL_SIZE == CapSense_SIGNAL_SIZE_UINT8) */
 497:Generated_Source\PSoC4/CapSense_CSHL.c ****     }
 498:Generated_Source\PSoC4/CapSense_CSHL.c ****     else
 499:Generated_Source\PSoC4/CapSense_CSHL.c ****     {
 500:Generated_Source\PSoC4/CapSense_CSHL.c ****         /* Signal is zero */
 501:Generated_Source\PSoC4/CapSense_CSHL.c ****         CapSense_sensorSignal[sensor] = 0u;
 393              		.loc 1 501 0
 394 00cc 074B     		ldr	r3, .L26+16
 395 00ce 1C19     		adds	r4, r3, r4
 396              	.LVL42:
 397 00d0 0023     		movs	r3, #0
 398 00d2 2372     		strb	r3, [r4, #8]
 399              	.L16:
 502:Generated_Source\PSoC4/CapSense_CSHL.c ****     }
 503:Generated_Source\PSoC4/CapSense_CSHL.c **** 
 504:Generated_Source\PSoC4/CapSense_CSHL.c ****     #if (CapSense_TOTAL_GENERICS_COUNT)
 505:Generated_Source\PSoC4/CapSense_CSHL.c ****         /* Exclude generic widget */
 506:Generated_Source\PSoC4/CapSense_CSHL.c ****         }
 507:Generated_Source\PSoC4/CapSense_CSHL.c ****     #endif  /* CapSense_TOTAL_GENERICS_COUNT */
 508:Generated_Source\PSoC4/CapSense_CSHL.c **** }
ARM GAS  C:\Users\jagumiel\AppData\Local\Temp\ccx0gHK6.s 			page 17


 400              		.loc 1 508 0
 401 00d4 02B0     		add	sp, sp, #8
 402              		@ sp needed
 403              	.LVL43:
 404              	.LVL44:
 405 00d6 04BC     		pop	{r2}
 406 00d8 9146     		mov	r9, r2
 407 00da F0BD     		pop	{r4, r5, r6, r7, pc}
 408              	.L27:
 409              		.align	2
 410              	.L26:
 411 00dc 00000000 		.word	CapSense_widgetNumber
 412 00e0 00000000 		.word	CapSense_noiseThreshold
 413 00e4 00000000 		.word	CapSense_sensorRaw
 414 00e8 00000000 		.word	CapSense_config
 415 00ec 00000000 		.word	.LANCHOR0
 416 00f0 00000000 		.word	CapSense_lowBaselineResetCnt
 417 00f4 00000000 		.word	CapSense_negativeNoiseThreshold
 418 00f8 00000000 		.word	.LANCHOR1
 419              		.cfi_endproc
 420              	.LFE38:
 421              		.size	CapSense_UpdateBaselineNoThreshold, .-CapSense_UpdateBaselineNoThreshold
 422              		.section	.text.CapSense_UpdateSensorBaseline,"ax",%progbits
 423              		.align	2
 424              		.global	CapSense_UpdateSensorBaseline
 425              		.code	16
 426              		.thumb_func
 427              		.type	CapSense_UpdateSensorBaseline, %function
 428              	CapSense_UpdateSensorBaseline:
 429              	.LFB39:
 509:Generated_Source\PSoC4/CapSense_CSHL.c **** 
 510:Generated_Source\PSoC4/CapSense_CSHL.c **** 
 511:Generated_Source\PSoC4/CapSense_CSHL.c **** /*******************************************************************************
 512:Generated_Source\PSoC4/CapSense_CSHL.c **** * Function Name: CapSense_UpdateSensorBaseline
 513:Generated_Source\PSoC4/CapSense_CSHL.c **** ********************************************************************************
 514:Generated_Source\PSoC4/CapSense_CSHL.c **** *
 515:Generated_Source\PSoC4/CapSense_CSHL.c **** * Summary:
 516:Generated_Source\PSoC4/CapSense_CSHL.c **** *  Updates the CapSense_sensorBaseline[sensor] array element using the
 517:Generated_Source\PSoC4/CapSense_CSHL.c **** *  LP filter with k = 256. The signal calculates the difference of count by
 518:Generated_Source\PSoC4/CapSense_CSHL.c **** *  subtracting the previous baseline from the current raw count value and stores
 519:Generated_Source\PSoC4/CapSense_CSHL.c **** *  it in CapSense_sensorSignal[sensor].
 520:Generated_Source\PSoC4/CapSense_CSHL.c **** *  If the auto reset option is enabled, the baseline updated regards the noise threshold.
 521:Generated_Source\PSoC4/CapSense_CSHL.c **** *  If the auto reset option is disabled, the baseline stops updating.
 522:Generated_Source\PSoC4/CapSense_CSHL.c **** *  Baseline is loaded with raw count value if a signal is greater than zero and
 523:Generated_Source\PSoC4/CapSense_CSHL.c **** *  if signal is less than noise threshold.
 524:Generated_Source\PSoC4/CapSense_CSHL.c **** *  Raw data filters are applied to the values if enabled before baseline
 525:Generated_Source\PSoC4/CapSense_CSHL.c **** *  calculation.
 526:Generated_Source\PSoC4/CapSense_CSHL.c **** *  This API updates the thresholds in the Smartsense Mode.
 527:Generated_Source\PSoC4/CapSense_CSHL.c **** *
 528:Generated_Source\PSoC4/CapSense_CSHL.c **** * Parameters:
 529:Generated_Source\PSoC4/CapSense_CSHL.c **** *  sensor:  Sensor number.
 530:Generated_Source\PSoC4/CapSense_CSHL.c **** *
 531:Generated_Source\PSoC4/CapSense_CSHL.c **** * Return:
 532:Generated_Source\PSoC4/CapSense_CSHL.c **** *  None
 533:Generated_Source\PSoC4/CapSense_CSHL.c **** *
 534:Generated_Source\PSoC4/CapSense_CSHL.c **** * Global Variables:
 535:Generated_Source\PSoC4/CapSense_CSHL.c **** *  CapSense_widgetNumber[]  - stores widget numbers.
ARM GAS  C:\Users\jagumiel\AppData\Local\Temp\ccx0gHK6.s 			page 18


 536:Generated_Source\PSoC4/CapSense_CSHL.c **** *
 537:Generated_Source\PSoC4/CapSense_CSHL.c **** * Side Effects:
 538:Generated_Source\PSoC4/CapSense_CSHL.c **** *  None
 539:Generated_Source\PSoC4/CapSense_CSHL.c **** *
 540:Generated_Source\PSoC4/CapSense_CSHL.c **** *******************************************************************************/
 541:Generated_Source\PSoC4/CapSense_CSHL.c ****  void CapSense_UpdateSensorBaseline(uint32 sensor)
 542:Generated_Source\PSoC4/CapSense_CSHL.c **** {
 430              		.loc 1 542 0
 431              		.cfi_startproc
 432              		@ args = 0, pretend = 0, frame = 0
 433              		@ frame_needed = 0, uses_anonymous_args = 0
 434              	.LVL45:
 435 0000 10B5     		push	{r4, lr}
 436              		.cfi_def_cfa_offset 8
 437              		.cfi_offset 4, -8
 438              		.cfi_offset 14, -4
 439 0002 0400     		movs	r4, r0
 543:Generated_Source\PSoC4/CapSense_CSHL.c ****     #if (CapSense_TOTAL_GENERICS_COUNT)
 544:Generated_Source\PSoC4/CapSense_CSHL.c ****         uint32 widget;
 545:Generated_Source\PSoC4/CapSense_CSHL.c **** 
 546:Generated_Source\PSoC4/CapSense_CSHL.c ****         widget = CapSense_widgetNumber[sensor];
 547:Generated_Source\PSoC4/CapSense_CSHL.c **** 
 548:Generated_Source\PSoC4/CapSense_CSHL.c ****         /* Exclude generic widget */
 549:Generated_Source\PSoC4/CapSense_CSHL.c ****         if(widget < CapSense_END_OF_WIDGETS_INDEX)
 550:Generated_Source\PSoC4/CapSense_CSHL.c ****         {
 551:Generated_Source\PSoC4/CapSense_CSHL.c ****     #endif  /* CapSense_TOTAL_GENERICS_COUNT */
 552:Generated_Source\PSoC4/CapSense_CSHL.c **** 
 553:Generated_Source\PSoC4/CapSense_CSHL.c ****     #if (CapSense_TUNING_METHOD == CapSense__TUNING_AUTO)
 554:Generated_Source\PSoC4/CapSense_CSHL.c ****         CapSense_UpdateThresholds(sensor);
 440              		.loc 1 554 0
 441 0004 FFF7FEFF 		bl	CapSense_UpdateThresholds
 442              	.LVL46:
 555:Generated_Source\PSoC4/CapSense_CSHL.c ****     #endif /* (CapSense_TUNING_METHOD == CapSense__TUNING_AUTO) */
 556:Generated_Source\PSoC4/CapSense_CSHL.c **** 
 557:Generated_Source\PSoC4/CapSense_CSHL.c ****     CapSense_UpdateBaselineNoThreshold(sensor);
 443              		.loc 1 557 0
 444 0008 2000     		movs	r0, r4
 445 000a FFF7FEFF 		bl	CapSense_UpdateBaselineNoThreshold
 446              	.LVL47:
 558:Generated_Source\PSoC4/CapSense_CSHL.c **** 
 559:Generated_Source\PSoC4/CapSense_CSHL.c ****     #if (CapSense_TOTAL_GENERICS_COUNT)
 560:Generated_Source\PSoC4/CapSense_CSHL.c ****         /* Exclude generic widget */
 561:Generated_Source\PSoC4/CapSense_CSHL.c ****         }
 562:Generated_Source\PSoC4/CapSense_CSHL.c ****     #endif  /* CapSense_TOTAL_GENERICS_COUNT */
 563:Generated_Source\PSoC4/CapSense_CSHL.c **** }
 447              		.loc 1 563 0
 448              		@ sp needed
 449              	.LVL48:
 450 000e 10BD     		pop	{r4, pc}
 451              		.cfi_endproc
 452              	.LFE39:
 453              		.size	CapSense_UpdateSensorBaseline, .-CapSense_UpdateSensorBaseline
 454              		.section	.text.CapSense_UpdateEnabledBaselines,"ax",%progbits
 455              		.align	2
 456              		.global	CapSense_UpdateEnabledBaselines
 457              		.code	16
 458              		.thumb_func
ARM GAS  C:\Users\jagumiel\AppData\Local\Temp\ccx0gHK6.s 			page 19


 459              		.type	CapSense_UpdateEnabledBaselines, %function
 460              	CapSense_UpdateEnabledBaselines:
 461              	.LFB40:
 564:Generated_Source\PSoC4/CapSense_CSHL.c **** 
 565:Generated_Source\PSoC4/CapSense_CSHL.c **** 
 566:Generated_Source\PSoC4/CapSense_CSHL.c **** /*******************************************************************************
 567:Generated_Source\PSoC4/CapSense_CSHL.c **** * Function Name: CapSense_UpdateEnabledBaselines
 568:Generated_Source\PSoC4/CapSense_CSHL.c **** ********************************************************************************
 569:Generated_Source\PSoC4/CapSense_CSHL.c **** *
 570:Generated_Source\PSoC4/CapSense_CSHL.c **** * Summary:
 571:Generated_Source\PSoC4/CapSense_CSHL.c **** *  Checks CapSense_sensorEnableMask[] array and calls the
 572:Generated_Source\PSoC4/CapSense_CSHL.c **** *  CapSense_UpdateSensorBaseline function to update the baselines
 573:Generated_Source\PSoC4/CapSense_CSHL.c **** *  for the enabled sensors.
 574:Generated_Source\PSoC4/CapSense_CSHL.c **** *
 575:Generated_Source\PSoC4/CapSense_CSHL.c **** * Parameters:
 576:Generated_Source\PSoC4/CapSense_CSHL.c **** *  None
 577:Generated_Source\PSoC4/CapSense_CSHL.c **** *
 578:Generated_Source\PSoC4/CapSense_CSHL.c **** * Return:
 579:Generated_Source\PSoC4/CapSense_CSHL.c **** *  None
 580:Generated_Source\PSoC4/CapSense_CSHL.c **** *
 581:Generated_Source\PSoC4/CapSense_CSHL.c **** * Global Variables:
 582:Generated_Source\PSoC4/CapSense_CSHL.c **** *  CapSense_sensorEnableMask[] - used to store the sensor scanning
 583:Generated_Source\PSoC4/CapSense_CSHL.c **** *  state.
 584:Generated_Source\PSoC4/CapSense_CSHL.c **** *  CapSense_sensorEnableMask[0] contains the masked bits for sensors
 585:Generated_Source\PSoC4/CapSense_CSHL.c **** *   0 through 7 (sensor 0 is bit 0, sensor 1 is bit 1).
 586:Generated_Source\PSoC4/CapSense_CSHL.c **** *  CapSense_sensorEnableMask[1] contains the masked bits for
 587:Generated_Source\PSoC4/CapSense_CSHL.c **** *  sensors 8 through 15 (if needed), and so on.
 588:Generated_Source\PSoC4/CapSense_CSHL.c **** *  0 - sensor doesn't scan by CapSense_ScanEnabledWidgets().
 589:Generated_Source\PSoC4/CapSense_CSHL.c **** *  1 - sensor scans by CapSense_ScanEnabledWidgets().
 590:Generated_Source\PSoC4/CapSense_CSHL.c **** *
 591:Generated_Source\PSoC4/CapSense_CSHL.c **** * Side Effects:
 592:Generated_Source\PSoC4/CapSense_CSHL.c **** *  None
 593:Generated_Source\PSoC4/CapSense_CSHL.c **** *
 594:Generated_Source\PSoC4/CapSense_CSHL.c **** *******************************************************************************/
 595:Generated_Source\PSoC4/CapSense_CSHL.c ****  void CapSense_UpdateEnabledBaselines(void)
 596:Generated_Source\PSoC4/CapSense_CSHL.c **** {
 462              		.loc 1 596 0
 463              		.cfi_startproc
 464              		@ args = 0, pretend = 0, frame = 0
 465              		@ frame_needed = 0, uses_anonymous_args = 0
 466 0000 10B5     		push	{r4, lr}
 467              		.cfi_def_cfa_offset 8
 468              		.cfi_offset 4, -8
 469              		.cfi_offset 14, -4
 470              	.LVL49:
 597:Generated_Source\PSoC4/CapSense_CSHL.c ****     uint32 i;
 598:Generated_Source\PSoC4/CapSense_CSHL.c ****     uint32 isSensorEnabled;
 599:Generated_Source\PSoC4/CapSense_CSHL.c **** 
 600:Generated_Source\PSoC4/CapSense_CSHL.c ****     for(i = 0u; i < CapSense_TOTAL_SENSOR_COUNT; i++)
 471              		.loc 1 600 0
 472 0002 0024     		movs	r4, #0
 473 0004 09E0     		b	.L30
 474              	.LVL50:
 475              	.L32:
 601:Generated_Source\PSoC4/CapSense_CSHL.c ****     {
 602:Generated_Source\PSoC4/CapSense_CSHL.c ****         isSensorEnabled = CapSense_GetBitValue(CapSense_sensorEnableMask, i);
 476              		.loc 1 602 0
ARM GAS  C:\Users\jagumiel\AppData\Local\Temp\ccx0gHK6.s 			page 20


 477 0006 2100     		movs	r1, r4
 478 0008 0548     		ldr	r0, .L33
 479 000a FFF7FEFF 		bl	CapSense_GetBitValue
 480              	.LVL51:
 603:Generated_Source\PSoC4/CapSense_CSHL.c **** 
 604:Generated_Source\PSoC4/CapSense_CSHL.c ****         if(0u != isSensorEnabled)
 481              		.loc 1 604 0
 482 000e 0028     		cmp	r0, #0
 483 0010 02D0     		beq	.L31
 605:Generated_Source\PSoC4/CapSense_CSHL.c ****         {
 606:Generated_Source\PSoC4/CapSense_CSHL.c ****             CapSense_UpdateSensorBaseline(i);
 484              		.loc 1 606 0
 485 0012 2000     		movs	r0, r4
 486              	.LVL52:
 487 0014 FFF7FEFF 		bl	CapSense_UpdateSensorBaseline
 488              	.LVL53:
 489              	.L31:
 600:Generated_Source\PSoC4/CapSense_CSHL.c ****     {
 490              		.loc 1 600 0 discriminator 2
 491 0018 0134     		adds	r4, r4, #1
 492              	.LVL54:
 493              	.L30:
 600:Generated_Source\PSoC4/CapSense_CSHL.c ****     {
 494              		.loc 1 600 0 is_stmt 0 discriminator 1
 495 001a 012C     		cmp	r4, #1
 496 001c F3D9     		bls	.L32
 607:Generated_Source\PSoC4/CapSense_CSHL.c ****         }
 608:Generated_Source\PSoC4/CapSense_CSHL.c ****     }
 609:Generated_Source\PSoC4/CapSense_CSHL.c **** }
 497              		.loc 1 609 0 is_stmt 1
 498              		@ sp needed
 499              	.LVL55:
 500 001e 10BD     		pop	{r4, pc}
 501              	.L34:
 502              		.align	2
 503              	.L33:
 504 0020 00000000 		.word	CapSense_sensorEnableMask
 505              		.cfi_endproc
 506              	.LFE40:
 507              		.size	CapSense_UpdateEnabledBaselines, .-CapSense_UpdateEnabledBaselines
 508              		.section	.text.CapSense_UpdateWidgetBaseline,"ax",%progbits
 509              		.align	2
 510              		.global	CapSense_UpdateWidgetBaseline
 511              		.code	16
 512              		.thumb_func
 513              		.type	CapSense_UpdateWidgetBaseline, %function
 514              	CapSense_UpdateWidgetBaseline:
 515              	.LFB41:
 610:Generated_Source\PSoC4/CapSense_CSHL.c **** 
 611:Generated_Source\PSoC4/CapSense_CSHL.c **** /*******************************************************************************
 612:Generated_Source\PSoC4/CapSense_CSHL.c **** * Function Name: CapSense_UpdateWidgetBaseline
 613:Generated_Source\PSoC4/CapSense_CSHL.c **** ********************************************************************************
 614:Generated_Source\PSoC4/CapSense_CSHL.c **** *
 615:Generated_Source\PSoC4/CapSense_CSHL.c **** * Summary:
 616:Generated_Source\PSoC4/CapSense_CSHL.c **** *  Checks CapSense_sensorEnableMask[] array and calls the
 617:Generated_Source\PSoC4/CapSense_CSHL.c **** *  CapSense_UpdateSensorBaseline function to update the baselines
 618:Generated_Source\PSoC4/CapSense_CSHL.c **** *  for the enabled sensors that belong to widget.
ARM GAS  C:\Users\jagumiel\AppData\Local\Temp\ccx0gHK6.s 			page 21


 619:Generated_Source\PSoC4/CapSense_CSHL.c **** *
 620:Generated_Source\PSoC4/CapSense_CSHL.c **** * Parameters:
 621:Generated_Source\PSoC4/CapSense_CSHL.c **** *  widget:  Widget number.
 622:Generated_Source\PSoC4/CapSense_CSHL.c **** *
 623:Generated_Source\PSoC4/CapSense_CSHL.c **** * Return:
 624:Generated_Source\PSoC4/CapSense_CSHL.c **** *  None
 625:Generated_Source\PSoC4/CapSense_CSHL.c **** *
 626:Generated_Source\PSoC4/CapSense_CSHL.c **** * Global Variables:
 627:Generated_Source\PSoC4/CapSense_CSHL.c **** *  CapSense_sensorEnableMask[] - used to store the sensor scanning
 628:Generated_Source\PSoC4/CapSense_CSHL.c **** *  state.
 629:Generated_Source\PSoC4/CapSense_CSHL.c **** *  CapSense_sensorEnableMask[0] contains the masked bits for sensors
 630:Generated_Source\PSoC4/CapSense_CSHL.c **** *   0 through 7 (sensor 0 is bit 0, sensor 1 is bit 1).
 631:Generated_Source\PSoC4/CapSense_CSHL.c **** *  CapSense_sensorEnableMask[1] contains the masked bits for
 632:Generated_Source\PSoC4/CapSense_CSHL.c **** *  sensors 8 through 15 (if needed), and so on.
 633:Generated_Source\PSoC4/CapSense_CSHL.c **** *  0 - sensor doesn't scan by CapSense_ScanEnabledWidgets().
 634:Generated_Source\PSoC4/CapSense_CSHL.c **** *  1 - sensor scans by CapSense_ScanEnabledWidgets().
 635:Generated_Source\PSoC4/CapSense_CSHL.c **** *
 636:Generated_Source\PSoC4/CapSense_CSHL.c **** * Side Effects:
 637:Generated_Source\PSoC4/CapSense_CSHL.c **** *  None
 638:Generated_Source\PSoC4/CapSense_CSHL.c **** *
 639:Generated_Source\PSoC4/CapSense_CSHL.c **** *******************************************************************************/
 640:Generated_Source\PSoC4/CapSense_CSHL.c **** void CapSense_UpdateWidgetBaseline(uint32 widget)
 641:Generated_Source\PSoC4/CapSense_CSHL.c **** {
 516              		.loc 1 641 0
 517              		.cfi_startproc
 518              		@ args = 0, pretend = 0, frame = 0
 519              		@ frame_needed = 0, uses_anonymous_args = 0
 520              	.LVL56:
 521 0000 70B5     		push	{r4, r5, r6, lr}
 522              		.cfi_def_cfa_offset 16
 523              		.cfi_offset 4, -16
 524              		.cfi_offset 5, -12
 525              		.cfi_offset 6, -8
 526              		.cfi_offset 14, -4
 642:Generated_Source\PSoC4/CapSense_CSHL.c ****     uint32 sensorsPerWidget;
 643:Generated_Source\PSoC4/CapSense_CSHL.c ****     uint32 firstSensor;
 644:Generated_Source\PSoC4/CapSense_CSHL.c ****     uint32 lastSensor;
 645:Generated_Source\PSoC4/CapSense_CSHL.c ****     uint32 i;
 646:Generated_Source\PSoC4/CapSense_CSHL.c ****     uint32 isSensorEnabled;
 647:Generated_Source\PSoC4/CapSense_CSHL.c **** 
 648:Generated_Source\PSoC4/CapSense_CSHL.c ****     /* Get number of sensors in widget */
 649:Generated_Source\PSoC4/CapSense_CSHL.c ****     sensorsPerWidget = CapSense_numberOfSensors[widget];
 527              		.loc 1 649 0
 528 0002 094B     		ldr	r3, .L39
 529 0004 1D5C     		ldrb	r5, [r3, r0]
 530              	.LVL57:
 650:Generated_Source\PSoC4/CapSense_CSHL.c **** 
 651:Generated_Source\PSoC4/CapSense_CSHL.c ****     /* Get first sensor in widget */
 652:Generated_Source\PSoC4/CapSense_CSHL.c ****     firstSensor = CapSense_rawDataIndex[widget];
 531              		.loc 1 652 0
 532 0006 1818     		adds	r0, r3, r0
 533              	.LVL58:
 534 0008 0479     		ldrb	r4, [r0, #4]
 535              	.LVL59:
 653:Generated_Source\PSoC4/CapSense_CSHL.c **** 
 654:Generated_Source\PSoC4/CapSense_CSHL.c ****     /* Get last sensor in widget */
 655:Generated_Source\PSoC4/CapSense_CSHL.c ****     lastSensor = (CapSense_rawDataIndex[widget] + sensorsPerWidget);
ARM GAS  C:\Users\jagumiel\AppData\Local\Temp\ccx0gHK6.s 			page 22


 536              		.loc 1 655 0
 537 000a 2D19     		adds	r5, r5, r4
 538              	.LVL60:
 656:Generated_Source\PSoC4/CapSense_CSHL.c **** 
 657:Generated_Source\PSoC4/CapSense_CSHL.c ****     for(i = firstSensor; i < lastSensor; i++)
 539              		.loc 1 657 0
 540 000c 09E0     		b	.L36
 541              	.LVL61:
 542              	.L38:
 658:Generated_Source\PSoC4/CapSense_CSHL.c ****     {
 659:Generated_Source\PSoC4/CapSense_CSHL.c ****         isSensorEnabled = CapSense_GetBitValue(CapSense_sensorEnableMask, i);
 543              		.loc 1 659 0
 544 000e 2100     		movs	r1, r4
 545 0010 0648     		ldr	r0, .L39+4
 546 0012 FFF7FEFF 		bl	CapSense_GetBitValue
 547              	.LVL62:
 660:Generated_Source\PSoC4/CapSense_CSHL.c **** 
 661:Generated_Source\PSoC4/CapSense_CSHL.c ****         if(0u != isSensorEnabled)
 548              		.loc 1 661 0
 549 0016 0028     		cmp	r0, #0
 550 0018 02D0     		beq	.L37
 662:Generated_Source\PSoC4/CapSense_CSHL.c ****         {
 663:Generated_Source\PSoC4/CapSense_CSHL.c ****             CapSense_UpdateSensorBaseline(i);
 551              		.loc 1 663 0
 552 001a 2000     		movs	r0, r4
 553              	.LVL63:
 554 001c FFF7FEFF 		bl	CapSense_UpdateSensorBaseline
 555              	.LVL64:
 556              	.L37:
 657:Generated_Source\PSoC4/CapSense_CSHL.c ****     {
 557              		.loc 1 657 0 discriminator 2
 558 0020 0134     		adds	r4, r4, #1
 559              	.LVL65:
 560              	.L36:
 657:Generated_Source\PSoC4/CapSense_CSHL.c ****     {
 561              		.loc 1 657 0 is_stmt 0 discriminator 1
 562 0022 AC42     		cmp	r4, r5
 563 0024 F3D3     		bcc	.L38
 664:Generated_Source\PSoC4/CapSense_CSHL.c ****         }
 665:Generated_Source\PSoC4/CapSense_CSHL.c ****     }
 666:Generated_Source\PSoC4/CapSense_CSHL.c **** }
 564              		.loc 1 666 0 is_stmt 1
 565              		@ sp needed
 566              	.LVL66:
 567              	.LVL67:
 568 0026 70BD     		pop	{r4, r5, r6, pc}
 569              	.L40:
 570              		.align	2
 571              	.L39:
 572 0028 00000000 		.word	.LANCHOR2
 573 002c 00000000 		.word	CapSense_sensorEnableMask
 574              		.cfi_endproc
 575              	.LFE41:
 576              		.size	CapSense_UpdateWidgetBaseline, .-CapSense_UpdateWidgetBaseline
 577              		.section	.text.CapSense_GetBaselineData,"ax",%progbits
 578              		.align	2
 579              		.global	CapSense_GetBaselineData
ARM GAS  C:\Users\jagumiel\AppData\Local\Temp\ccx0gHK6.s 			page 23


 580              		.code	16
 581              		.thumb_func
 582              		.type	CapSense_GetBaselineData, %function
 583              	CapSense_GetBaselineData:
 584              	.LFB42:
 667:Generated_Source\PSoC4/CapSense_CSHL.c **** 
 668:Generated_Source\PSoC4/CapSense_CSHL.c **** 
 669:Generated_Source\PSoC4/CapSense_CSHL.c **** /*******************************************************************************
 670:Generated_Source\PSoC4/CapSense_CSHL.c **** * Function Name: CapSense_GetBaselineData
 671:Generated_Source\PSoC4/CapSense_CSHL.c **** ********************************************************************************
 672:Generated_Source\PSoC4/CapSense_CSHL.c **** *
 673:Generated_Source\PSoC4/CapSense_CSHL.c **** * Summary:
 674:Generated_Source\PSoC4/CapSense_CSHL.c **** *  This function reads the sensor baseline from the component.
 675:Generated_Source\PSoC4/CapSense_CSHL.c **** *
 676:Generated_Source\PSoC4/CapSense_CSHL.c **** * Parameters:
 677:Generated_Source\PSoC4/CapSense_CSHL.c **** *  sensor:  Sensor number.
 678:Generated_Source\PSoC4/CapSense_CSHL.c **** *
 679:Generated_Source\PSoC4/CapSense_CSHL.c **** * Return:
 680:Generated_Source\PSoC4/CapSense_CSHL.c **** *  This API returns the baseline value of the sensor indicated by an argument.
 681:Generated_Source\PSoC4/CapSense_CSHL.c **** *
 682:Generated_Source\PSoC4/CapSense_CSHL.c **** * Global Variables:
 683:Generated_Source\PSoC4/CapSense_CSHL.c **** *  CapSense_sensorBaseline[] - the array with an initial values by scanning
 684:Generated_Source\PSoC4/CapSense_CSHL.c **** *
 685:Generated_Source\PSoC4/CapSense_CSHL.c **** * Side Effects:
 686:Generated_Source\PSoC4/CapSense_CSHL.c **** *  None
 687:Generated_Source\PSoC4/CapSense_CSHL.c **** *
 688:Generated_Source\PSoC4/CapSense_CSHL.c **** *******************************************************************************/
 689:Generated_Source\PSoC4/CapSense_CSHL.c **** uint16 CapSense_GetBaselineData(uint32 sensor)
 690:Generated_Source\PSoC4/CapSense_CSHL.c **** {
 585              		.loc 1 690 0
 586              		.cfi_startproc
 587              		@ args = 0, pretend = 0, frame = 0
 588              		@ frame_needed = 0, uses_anonymous_args = 0
 589              		@ link register save eliminated.
 590              	.LVL68:
 691:Generated_Source\PSoC4/CapSense_CSHL.c ****     return (CapSense_sensorBaseline[sensor]);
 591              		.loc 1 691 0
 592 0000 4000     		lsls	r0, r0, #1
 593              	.LVL69:
 594 0002 014B     		ldr	r3, .L42
 595 0004 185A     		ldrh	r0, [r3, r0]
 692:Generated_Source\PSoC4/CapSense_CSHL.c **** }
 596              		.loc 1 692 0
 597              		@ sp needed
 598 0006 7047     		bx	lr
 599              	.L43:
 600              		.align	2
 601              	.L42:
 602 0008 00000000 		.word	.LANCHOR0
 603              		.cfi_endproc
 604              	.LFE42:
 605              		.size	CapSense_GetBaselineData, .-CapSense_GetBaselineData
 606              		.section	.text.CapSense_SetBaselineData,"ax",%progbits
 607              		.align	2
 608              		.global	CapSense_SetBaselineData
 609              		.code	16
 610              		.thumb_func
ARM GAS  C:\Users\jagumiel\AppData\Local\Temp\ccx0gHK6.s 			page 24


 611              		.type	CapSense_SetBaselineData, %function
 612              	CapSense_SetBaselineData:
 613              	.LFB43:
 693:Generated_Source\PSoC4/CapSense_CSHL.c **** 
 694:Generated_Source\PSoC4/CapSense_CSHL.c **** 
 695:Generated_Source\PSoC4/CapSense_CSHL.c **** /*******************************************************************************
 696:Generated_Source\PSoC4/CapSense_CSHL.c **** * Function Name: CapSense_SetBaselineData
 697:Generated_Source\PSoC4/CapSense_CSHL.c **** ********************************************************************************
 698:Generated_Source\PSoC4/CapSense_CSHL.c **** *
 699:Generated_Source\PSoC4/CapSense_CSHL.c **** * Summary:
 700:Generated_Source\PSoC4/CapSense_CSHL.c **** *  This API writes the data value passed as an argument to the sensor baseline array.
 701:Generated_Source\PSoC4/CapSense_CSHL.c **** *
 702:Generated_Source\PSoC4/CapSense_CSHL.c **** * Parameters:
 703:Generated_Source\PSoC4/CapSense_CSHL.c **** *  sensor:  Sensor number.
 704:Generated_Source\PSoC4/CapSense_CSHL.c **** *  data:    Sensor baseline.
 705:Generated_Source\PSoC4/CapSense_CSHL.c **** *
 706:Generated_Source\PSoC4/CapSense_CSHL.c **** * Return:
 707:Generated_Source\PSoC4/CapSense_CSHL.c **** *  None.
 708:Generated_Source\PSoC4/CapSense_CSHL.c **** *
 709:Generated_Source\PSoC4/CapSense_CSHL.c **** * Global Variables:
 710:Generated_Source\PSoC4/CapSense_CSHL.c **** *  CapSense_sensorBaseline[] - the array with initial values by scanning
 711:Generated_Source\PSoC4/CapSense_CSHL.c **** *
 712:Generated_Source\PSoC4/CapSense_CSHL.c **** * Side Effects:
 713:Generated_Source\PSoC4/CapSense_CSHL.c **** *  None
 714:Generated_Source\PSoC4/CapSense_CSHL.c **** *
 715:Generated_Source\PSoC4/CapSense_CSHL.c **** *******************************************************************************/
 716:Generated_Source\PSoC4/CapSense_CSHL.c **** void CapSense_SetBaselineData(uint32 sensor, uint16 data)
 717:Generated_Source\PSoC4/CapSense_CSHL.c **** {
 614              		.loc 1 717 0
 615              		.cfi_startproc
 616              		@ args = 0, pretend = 0, frame = 0
 617              		@ frame_needed = 0, uses_anonymous_args = 0
 618              		@ link register save eliminated.
 619              	.LVL70:
 718:Generated_Source\PSoC4/CapSense_CSHL.c ****     CapSense_sensorBaseline[sensor] = data;
 620              		.loc 1 718 0
 621 0000 4000     		lsls	r0, r0, #1
 622              	.LVL71:
 623 0002 014B     		ldr	r3, .L45
 624 0004 C152     		strh	r1, [r0, r3]
 719:Generated_Source\PSoC4/CapSense_CSHL.c **** }
 625              		.loc 1 719 0
 626              		@ sp needed
 627 0006 7047     		bx	lr
 628              	.L46:
 629              		.align	2
 630              	.L45:
 631 0008 00000000 		.word	.LANCHOR0
 632              		.cfi_endproc
 633              	.LFE43:
 634              		.size	CapSense_SetBaselineData, .-CapSense_SetBaselineData
 635              		.section	.text.CapSense_GetDiffCountData,"ax",%progbits
 636              		.align	2
 637              		.global	CapSense_GetDiffCountData
 638              		.code	16
 639              		.thumb_func
 640              		.type	CapSense_GetDiffCountData, %function
ARM GAS  C:\Users\jagumiel\AppData\Local\Temp\ccx0gHK6.s 			page 25


 641              	CapSense_GetDiffCountData:
 642              	.LFB44:
 720:Generated_Source\PSoC4/CapSense_CSHL.c **** 
 721:Generated_Source\PSoC4/CapSense_CSHL.c **** 
 722:Generated_Source\PSoC4/CapSense_CSHL.c **** /*******************************************************************************
 723:Generated_Source\PSoC4/CapSense_CSHL.c **** * Function Name: CapSense_GetDiffCountData
 724:Generated_Source\PSoC4/CapSense_CSHL.c **** ********************************************************************************
 725:Generated_Source\PSoC4/CapSense_CSHL.c **** *
 726:Generated_Source\PSoC4/CapSense_CSHL.c **** * Summary:
 727:Generated_Source\PSoC4/CapSense_CSHL.c **** *  This function returns the Sensor Signal from the component.
 728:Generated_Source\PSoC4/CapSense_CSHL.c **** *
 729:Generated_Source\PSoC4/CapSense_CSHL.c **** * Parameters:
 730:Generated_Source\PSoC4/CapSense_CSHL.c **** *  sensor:  Sensor number.
 731:Generated_Source\PSoC4/CapSense_CSHL.c **** *
 732:Generated_Source\PSoC4/CapSense_CSHL.c **** * Return:
 733:Generated_Source\PSoC4/CapSense_CSHL.c **** *  This API returns the difference count value of the sensor indicated by the
 734:Generated_Source\PSoC4/CapSense_CSHL.c **** *  argument.
 735:Generated_Source\PSoC4/CapSense_CSHL.c **** *
 736:Generated_Source\PSoC4/CapSense_CSHL.c **** * Global Variables:
 737:Generated_Source\PSoC4/CapSense_CSHL.c **** *  CapSense_sensorSignal[] - the array with difference counts for sensors
 738:Generated_Source\PSoC4/CapSense_CSHL.c **** *
 739:Generated_Source\PSoC4/CapSense_CSHL.c **** * Side Effects:
 740:Generated_Source\PSoC4/CapSense_CSHL.c **** *  None
 741:Generated_Source\PSoC4/CapSense_CSHL.c **** *
 742:Generated_Source\PSoC4/CapSense_CSHL.c **** *******************************************************************************/
 743:Generated_Source\PSoC4/CapSense_CSHL.c **** uint8 CapSense_GetDiffCountData(uint32 sensor)
 744:Generated_Source\PSoC4/CapSense_CSHL.c **** {
 643              		.loc 1 744 0
 644              		.cfi_startproc
 645              		@ args = 0, pretend = 0, frame = 0
 646              		@ frame_needed = 0, uses_anonymous_args = 0
 647              		@ link register save eliminated.
 648              	.LVL72:
 745:Generated_Source\PSoC4/CapSense_CSHL.c ****     return (CapSense_sensorSignal[sensor]);
 649              		.loc 1 745 0
 650 0000 014B     		ldr	r3, .L48
 651 0002 1818     		adds	r0, r3, r0
 652              	.LVL73:
 653 0004 007A     		ldrb	r0, [r0, #8]
 746:Generated_Source\PSoC4/CapSense_CSHL.c **** }
 654              		.loc 1 746 0
 655              		@ sp needed
 656 0006 7047     		bx	lr
 657              	.L49:
 658              		.align	2
 659              	.L48:
 660 0008 00000000 		.word	.LANCHOR0
 661              		.cfi_endproc
 662              	.LFE44:
 663              		.size	CapSense_GetDiffCountData, .-CapSense_GetDiffCountData
 664              		.section	.text.CapSense_SetDiffCountData,"ax",%progbits
 665              		.align	2
 666              		.global	CapSense_SetDiffCountData
 667              		.code	16
 668              		.thumb_func
 669              		.type	CapSense_SetDiffCountData, %function
 670              	CapSense_SetDiffCountData:
ARM GAS  C:\Users\jagumiel\AppData\Local\Temp\ccx0gHK6.s 			page 26


 671              	.LFB45:
 747:Generated_Source\PSoC4/CapSense_CSHL.c **** 
 748:Generated_Source\PSoC4/CapSense_CSHL.c **** 
 749:Generated_Source\PSoC4/CapSense_CSHL.c **** /*******************************************************************************
 750:Generated_Source\PSoC4/CapSense_CSHL.c **** * Function Name: CapSense_SetDiffCountData
 751:Generated_Source\PSoC4/CapSense_CSHL.c **** ********************************************************************************
 752:Generated_Source\PSoC4/CapSense_CSHL.c **** *
 753:Generated_Source\PSoC4/CapSense_CSHL.c **** * Summary:
 754:Generated_Source\PSoC4/CapSense_CSHL.c **** *  This API writes the data value passed as an argument to the sensor signal array.
 755:Generated_Source\PSoC4/CapSense_CSHL.c **** *
 756:Generated_Source\PSoC4/CapSense_CSHL.c **** * Parameters:
 757:Generated_Source\PSoC4/CapSense_CSHL.c **** *  sensor:  Sensor number.
 758:Generated_Source\PSoC4/CapSense_CSHL.c **** *  value:   Sensor signal.
 759:Generated_Source\PSoC4/CapSense_CSHL.c **** *
 760:Generated_Source\PSoC4/CapSense_CSHL.c **** * Return:
 761:Generated_Source\PSoC4/CapSense_CSHL.c **** *  None.
 762:Generated_Source\PSoC4/CapSense_CSHL.c **** *
 763:Generated_Source\PSoC4/CapSense_CSHL.c **** * Global Variables:
 764:Generated_Source\PSoC4/CapSense_CSHL.c **** *  CapSense_sensorSignal[] - the array with difference counts for sensors
 765:Generated_Source\PSoC4/CapSense_CSHL.c **** *
 766:Generated_Source\PSoC4/CapSense_CSHL.c **** * Side Effects:
 767:Generated_Source\PSoC4/CapSense_CSHL.c **** *  None
 768:Generated_Source\PSoC4/CapSense_CSHL.c **** *
 769:Generated_Source\PSoC4/CapSense_CSHL.c **** *******************************************************************************/
 770:Generated_Source\PSoC4/CapSense_CSHL.c **** void CapSense_SetDiffCountData(uint32 sensor, uint8 value)
 771:Generated_Source\PSoC4/CapSense_CSHL.c **** {
 672              		.loc 1 771 0
 673              		.cfi_startproc
 674              		@ args = 0, pretend = 0, frame = 0
 675              		@ frame_needed = 0, uses_anonymous_args = 0
 676              		@ link register save eliminated.
 677              	.LVL74:
 772:Generated_Source\PSoC4/CapSense_CSHL.c ****     CapSense_sensorSignal[sensor] = value;
 678              		.loc 1 772 0
 679 0000 014B     		ldr	r3, .L51
 680 0002 1818     		adds	r0, r3, r0
 681              	.LVL75:
 682 0004 0172     		strb	r1, [r0, #8]
 773:Generated_Source\PSoC4/CapSense_CSHL.c **** }
 683              		.loc 1 773 0
 684              		@ sp needed
 685 0006 7047     		bx	lr
 686              	.L52:
 687              		.align	2
 688              	.L51:
 689 0008 00000000 		.word	.LANCHOR0
 690              		.cfi_endproc
 691              	.LFE45:
 692              		.size	CapSense_SetDiffCountData, .-CapSense_SetDiffCountData
 693              		.section	.text.CapSense_GetFingerThreshold,"ax",%progbits
 694              		.align	2
 695              		.global	CapSense_GetFingerThreshold
 696              		.code	16
 697              		.thumb_func
 698              		.type	CapSense_GetFingerThreshold, %function
 699              	CapSense_GetFingerThreshold:
 700              	.LFB46:
ARM GAS  C:\Users\jagumiel\AppData\Local\Temp\ccx0gHK6.s 			page 27


 774:Generated_Source\PSoC4/CapSense_CSHL.c **** 
 775:Generated_Source\PSoC4/CapSense_CSHL.c **** 
 776:Generated_Source\PSoC4/CapSense_CSHL.c **** /*******************************************************************************
 777:Generated_Source\PSoC4/CapSense_CSHL.c **** * Function Name: CapSense_GetFingerThreshold
 778:Generated_Source\PSoC4/CapSense_CSHL.c **** ********************************************************************************
 779:Generated_Source\PSoC4/CapSense_CSHL.c **** *
 780:Generated_Source\PSoC4/CapSense_CSHL.c **** * Summary:
 781:Generated_Source\PSoC4/CapSense_CSHL.c **** *  This function reads the finger threshold from the component.
 782:Generated_Source\PSoC4/CapSense_CSHL.c **** *
 783:Generated_Source\PSoC4/CapSense_CSHL.c **** * Parameters:
 784:Generated_Source\PSoC4/CapSense_CSHL.c **** *  widget:  widget number.
 785:Generated_Source\PSoC4/CapSense_CSHL.c **** *
 786:Generated_Source\PSoC4/CapSense_CSHL.c **** * Return:
 787:Generated_Source\PSoC4/CapSense_CSHL.c **** *  This API returns the finger threshold of the widget indicated by the argument.
 788:Generated_Source\PSoC4/CapSense_CSHL.c **** *
 789:Generated_Source\PSoC4/CapSense_CSHL.c **** * Global Variables:
 790:Generated_Source\PSoC4/CapSense_CSHL.c **** *  CapSense_fingerThreshold[] - This array contains the level of signal
 791:Generated_Source\PSoC4/CapSense_CSHL.c **** *  for each widget that is determined if a finger is present on the widget.
 792:Generated_Source\PSoC4/CapSense_CSHL.c **** *
 793:Generated_Source\PSoC4/CapSense_CSHL.c **** * Side Effects:
 794:Generated_Source\PSoC4/CapSense_CSHL.c **** *  None
 795:Generated_Source\PSoC4/CapSense_CSHL.c **** *
 796:Generated_Source\PSoC4/CapSense_CSHL.c **** *******************************************************************************/
 797:Generated_Source\PSoC4/CapSense_CSHL.c **** uint8 CapSense_GetFingerThreshold(uint32 widget)
 798:Generated_Source\PSoC4/CapSense_CSHL.c **** {
 701              		.loc 1 798 0
 702              		.cfi_startproc
 703              		@ args = 0, pretend = 0, frame = 0
 704              		@ frame_needed = 0, uses_anonymous_args = 0
 705              		@ link register save eliminated.
 706              	.LVL76:
 799:Generated_Source\PSoC4/CapSense_CSHL.c ****     return(CapSense_fingerThreshold[widget]);
 707              		.loc 1 799 0
 708 0000 014B     		ldr	r3, .L54
 709 0002 185C     		ldrb	r0, [r3, r0]
 710              	.LVL77:
 800:Generated_Source\PSoC4/CapSense_CSHL.c **** }
 711              		.loc 1 800 0
 712              		@ sp needed
 713 0004 7047     		bx	lr
 714              	.L55:
 715 0006 C046     		.align	2
 716              	.L54:
 717 0008 00000000 		.word	CapSense_fingerThreshold
 718              		.cfi_endproc
 719              	.LFE46:
 720              		.size	CapSense_GetFingerThreshold, .-CapSense_GetFingerThreshold
 721              		.section	.text.CapSense_GetNoiseThreshold,"ax",%progbits
 722              		.align	2
 723              		.global	CapSense_GetNoiseThreshold
 724              		.code	16
 725              		.thumb_func
 726              		.type	CapSense_GetNoiseThreshold, %function
 727              	CapSense_GetNoiseThreshold:
 728              	.LFB47:
 801:Generated_Source\PSoC4/CapSense_CSHL.c **** 
 802:Generated_Source\PSoC4/CapSense_CSHL.c **** 
ARM GAS  C:\Users\jagumiel\AppData\Local\Temp\ccx0gHK6.s 			page 28


 803:Generated_Source\PSoC4/CapSense_CSHL.c **** /*******************************************************************************
 804:Generated_Source\PSoC4/CapSense_CSHL.c **** * Function Name: CapSense_GetNoiseThreshold
 805:Generated_Source\PSoC4/CapSense_CSHL.c **** ********************************************************************************
 806:Generated_Source\PSoC4/CapSense_CSHL.c **** *
 807:Generated_Source\PSoC4/CapSense_CSHL.c **** * Summary:
 808:Generated_Source\PSoC4/CapSense_CSHL.c **** *  This function reads the noise threshold from the component.
 809:Generated_Source\PSoC4/CapSense_CSHL.c **** *
 810:Generated_Source\PSoC4/CapSense_CSHL.c **** * Parameters:
 811:Generated_Source\PSoC4/CapSense_CSHL.c **** *  widget:  widget number.
 812:Generated_Source\PSoC4/CapSense_CSHL.c **** *
 813:Generated_Source\PSoC4/CapSense_CSHL.c **** * Return:
 814:Generated_Source\PSoC4/CapSense_CSHL.c **** *  This API returns the noise threshold of the widget indicated by the argument.
 815:Generated_Source\PSoC4/CapSense_CSHL.c **** *
 816:Generated_Source\PSoC4/CapSense_CSHL.c **** * Global Variables:
 817:Generated_Source\PSoC4/CapSense_CSHL.c **** *  CapSense_noiseThreshold[] - This array contains the level of signal
 818:Generated_Source\PSoC4/CapSense_CSHL.c **** *  for each widget that determines the level of noise in the capacitive scan.
 819:Generated_Source\PSoC4/CapSense_CSHL.c **** *
 820:Generated_Source\PSoC4/CapSense_CSHL.c **** * Side Effects:
 821:Generated_Source\PSoC4/CapSense_CSHL.c **** *  None
 822:Generated_Source\PSoC4/CapSense_CSHL.c **** *
 823:Generated_Source\PSoC4/CapSense_CSHL.c **** *******************************************************************************/
 824:Generated_Source\PSoC4/CapSense_CSHL.c **** uint8 CapSense_GetNoiseThreshold(uint32 widget)
 825:Generated_Source\PSoC4/CapSense_CSHL.c **** {
 729              		.loc 1 825 0
 730              		.cfi_startproc
 731              		@ args = 0, pretend = 0, frame = 0
 732              		@ frame_needed = 0, uses_anonymous_args = 0
 733              		@ link register save eliminated.
 734              	.LVL78:
 826:Generated_Source\PSoC4/CapSense_CSHL.c ****     return (CapSense_noiseThreshold[widget]);
 735              		.loc 1 826 0
 736 0000 014B     		ldr	r3, .L57
 737 0002 185C     		ldrb	r0, [r3, r0]
 738              	.LVL79:
 827:Generated_Source\PSoC4/CapSense_CSHL.c **** }
 739              		.loc 1 827 0
 740              		@ sp needed
 741 0004 7047     		bx	lr
 742              	.L58:
 743 0006 C046     		.align	2
 744              	.L57:
 745 0008 00000000 		.word	CapSense_noiseThreshold
 746              		.cfi_endproc
 747              	.LFE47:
 748              		.size	CapSense_GetNoiseThreshold, .-CapSense_GetNoiseThreshold
 749              		.section	.text.CapSense_GetFingerHysteresis,"ax",%progbits
 750              		.align	2
 751              		.global	CapSense_GetFingerHysteresis
 752              		.code	16
 753              		.thumb_func
 754              		.type	CapSense_GetFingerHysteresis, %function
 755              	CapSense_GetFingerHysteresis:
 756              	.LFB48:
 828:Generated_Source\PSoC4/CapSense_CSHL.c **** 
 829:Generated_Source\PSoC4/CapSense_CSHL.c **** 
 830:Generated_Source\PSoC4/CapSense_CSHL.c **** /*******************************************************************************
 831:Generated_Source\PSoC4/CapSense_CSHL.c **** * Function Name: CapSense_GetFingerHysteresis
ARM GAS  C:\Users\jagumiel\AppData\Local\Temp\ccx0gHK6.s 			page 29


 832:Generated_Source\PSoC4/CapSense_CSHL.c **** ********************************************************************************
 833:Generated_Source\PSoC4/CapSense_CSHL.c **** *
 834:Generated_Source\PSoC4/CapSense_CSHL.c **** * Summary:
 835:Generated_Source\PSoC4/CapSense_CSHL.c **** *  This function reads the Hysteresis value from the component.
 836:Generated_Source\PSoC4/CapSense_CSHL.c **** *
 837:Generated_Source\PSoC4/CapSense_CSHL.c **** * Parameters:
 838:Generated_Source\PSoC4/CapSense_CSHL.c **** *  widget:  widget number.
 839:Generated_Source\PSoC4/CapSense_CSHL.c **** *
 840:Generated_Source\PSoC4/CapSense_CSHL.c **** * Return:
 841:Generated_Source\PSoC4/CapSense_CSHL.c **** *  This API returns the Hysteresis of the widget indicated by the argument.
 842:Generated_Source\PSoC4/CapSense_CSHL.c **** *
 843:Generated_Source\PSoC4/CapSense_CSHL.c **** * Global Variables:
 844:Generated_Source\PSoC4/CapSense_CSHL.c **** *  CapSense_hysteresis[] - This array contains the hysteresis value
 845:Generated_Source\PSoC4/CapSense_CSHL.c **** *   for each widget.
 846:Generated_Source\PSoC4/CapSense_CSHL.c **** *  CapSense_widgetNumberSld - structure with dynamic sliders' parameters.
 847:Generated_Source\PSoC4/CapSense_CSHL.c **** *
 848:Generated_Source\PSoC4/CapSense_CSHL.c **** * Side Effects:
 849:Generated_Source\PSoC4/CapSense_CSHL.c **** *  None
 850:Generated_Source\PSoC4/CapSense_CSHL.c **** *
 851:Generated_Source\PSoC4/CapSense_CSHL.c **** *******************************************************************************/
 852:Generated_Source\PSoC4/CapSense_CSHL.c **** uint8 CapSense_GetFingerHysteresis(uint32 widget)
 853:Generated_Source\PSoC4/CapSense_CSHL.c **** {
 757              		.loc 1 853 0
 758              		.cfi_startproc
 759              		@ args = 0, pretend = 0, frame = 0
 760              		@ frame_needed = 0, uses_anonymous_args = 0
 761              		@ link register save eliminated.
 762              	.LVL80:
 854:Generated_Source\PSoC4/CapSense_CSHL.c ****     return(CapSense_hysteresis[widget]);
 763              		.loc 1 854 0
 764 0000 014B     		ldr	r3, .L60
 765 0002 185C     		ldrb	r0, [r3, r0]
 766              	.LVL81:
 855:Generated_Source\PSoC4/CapSense_CSHL.c **** }
 767              		.loc 1 855 0
 768              		@ sp needed
 769 0004 7047     		bx	lr
 770              	.L61:
 771 0006 C046     		.align	2
 772              	.L60:
 773 0008 00000000 		.word	CapSense_hysteresis
 774              		.cfi_endproc
 775              	.LFE48:
 776              		.size	CapSense_GetFingerHysteresis, .-CapSense_GetFingerHysteresis
 777              		.section	.text.CapSense_GetNegativeNoiseThreshold,"ax",%progbits
 778              		.align	2
 779              		.global	CapSense_GetNegativeNoiseThreshold
 780              		.code	16
 781              		.thumb_func
 782              		.type	CapSense_GetNegativeNoiseThreshold, %function
 783              	CapSense_GetNegativeNoiseThreshold:
 784              	.LFB49:
 856:Generated_Source\PSoC4/CapSense_CSHL.c **** 
 857:Generated_Source\PSoC4/CapSense_CSHL.c **** 
 858:Generated_Source\PSoC4/CapSense_CSHL.c **** /*******************************************************************************
 859:Generated_Source\PSoC4/CapSense_CSHL.c **** * Function Name: CapSense_GetNegativeNoiseThreshold
 860:Generated_Source\PSoC4/CapSense_CSHL.c **** ********************************************************************************
ARM GAS  C:\Users\jagumiel\AppData\Local\Temp\ccx0gHK6.s 			page 30


 861:Generated_Source\PSoC4/CapSense_CSHL.c **** *
 862:Generated_Source\PSoC4/CapSense_CSHL.c **** * Summary:
 863:Generated_Source\PSoC4/CapSense_CSHL.c **** *  This function reads the negative noise threshold from the component.
 864:Generated_Source\PSoC4/CapSense_CSHL.c **** *
 865:Generated_Source\PSoC4/CapSense_CSHL.c **** * Parameters:
 866:Generated_Source\PSoC4/CapSense_CSHL.c **** *  None.
 867:Generated_Source\PSoC4/CapSense_CSHL.c **** *
 868:Generated_Source\PSoC4/CapSense_CSHL.c **** * Return Value:
 869:Generated_Source\PSoC4/CapSense_CSHL.c **** *  This API returns the negative noise threshold
 870:Generated_Source\PSoC4/CapSense_CSHL.c **** *
 871:Generated_Source\PSoC4/CapSense_CSHL.c **** * Global Variables:
 872:Generated_Source\PSoC4/CapSense_CSHL.c **** *  CapSense_negativeNoiseThreshold - This variable specifies the negative
 873:Generated_Source\PSoC4/CapSense_CSHL.c **** *   difference between the raw count and baseline levels for Baseline resetting
 874:Generated_Source\PSoC4/CapSense_CSHL.c **** *   to the raw count level.
 875:Generated_Source\PSoC4/CapSense_CSHL.c **** *
 876:Generated_Source\PSoC4/CapSense_CSHL.c **** * Side Effects:
 877:Generated_Source\PSoC4/CapSense_CSHL.c **** *  None
 878:Generated_Source\PSoC4/CapSense_CSHL.c **** *
 879:Generated_Source\PSoC4/CapSense_CSHL.c **** *******************************************************************************/
 880:Generated_Source\PSoC4/CapSense_CSHL.c **** uint8 CapSense_GetNegativeNoiseThreshold(uint32 widget)
 881:Generated_Source\PSoC4/CapSense_CSHL.c **** {
 785              		.loc 1 881 0
 786              		.cfi_startproc
 787              		@ args = 0, pretend = 0, frame = 0
 788              		@ frame_needed = 0, uses_anonymous_args = 0
 789              		@ link register save eliminated.
 790              	.LVL82:
 882:Generated_Source\PSoC4/CapSense_CSHL.c **** #if (CapSense_TUNING_METHOD != CapSense__TUNING_NONE)
 883:Generated_Source\PSoC4/CapSense_CSHL.c ****     return(CapSense_negativeNoiseThreshold[widget]);
 791              		.loc 1 883 0
 792 0000 014B     		ldr	r3, .L63
 793 0002 185C     		ldrb	r0, [r3, r0]
 794              	.LVL83:
 884:Generated_Source\PSoC4/CapSense_CSHL.c **** #else
 885:Generated_Source\PSoC4/CapSense_CSHL.c ****     return(CapSense_NEGATIVE_NOISE_THRESHOLD);
 886:Generated_Source\PSoC4/CapSense_CSHL.c **** #endif /* (CapSense_TUNING_METHOD != CapSense__TUNING_NONE) */
 887:Generated_Source\PSoC4/CapSense_CSHL.c **** }
 795              		.loc 1 887 0
 796              		@ sp needed
 797 0004 7047     		bx	lr
 798              	.L64:
 799 0006 C046     		.align	2
 800              	.L63:
 801 0008 00000000 		.word	CapSense_negativeNoiseThreshold
 802              		.cfi_endproc
 803              	.LFE49:
 804              		.size	CapSense_GetNegativeNoiseThreshold, .-CapSense_GetNegativeNoiseThreshold
 805              		.section	.text.CapSense_SetFingerThreshold,"ax",%progbits
 806              		.align	2
 807              		.global	CapSense_SetFingerThreshold
 808              		.code	16
 809              		.thumb_func
 810              		.type	CapSense_SetFingerThreshold, %function
 811              	CapSense_SetFingerThreshold:
 812              	.LFB50:
 888:Generated_Source\PSoC4/CapSense_CSHL.c **** 
 889:Generated_Source\PSoC4/CapSense_CSHL.c **** 
ARM GAS  C:\Users\jagumiel\AppData\Local\Temp\ccx0gHK6.s 			page 31


 890:Generated_Source\PSoC4/CapSense_CSHL.c **** #if(CapSense_TUNING_METHOD != CapSense__TUNING_NONE)
 891:Generated_Source\PSoC4/CapSense_CSHL.c ****     /*******************************************************************************
 892:Generated_Source\PSoC4/CapSense_CSHL.c ****     * Function Name: CapSense_SetFingerThreshold
 893:Generated_Source\PSoC4/CapSense_CSHL.c ****     ********************************************************************************
 894:Generated_Source\PSoC4/CapSense_CSHL.c ****     *
 895:Generated_Source\PSoC4/CapSense_CSHL.c ****     * Summary:
 896:Generated_Source\PSoC4/CapSense_CSHL.c ****     *  This API sets the finger threshold value for a widget.
 897:Generated_Source\PSoC4/CapSense_CSHL.c ****     *
 898:Generated_Source\PSoC4/CapSense_CSHL.c ****     * Parameters:
 899:Generated_Source\PSoC4/CapSense_CSHL.c ****     *  sensorNumber:  widget index.
 900:Generated_Source\PSoC4/CapSense_CSHL.c ****     *  value:  Finger threshold value for the widget.
 901:Generated_Source\PSoC4/CapSense_CSHL.c ****     *
 902:Generated_Source\PSoC4/CapSense_CSHL.c ****     * Return Value:
 903:Generated_Source\PSoC4/CapSense_CSHL.c ****     *  None
 904:Generated_Source\PSoC4/CapSense_CSHL.c ****     *
 905:Generated_Source\PSoC4/CapSense_CSHL.c ****     * Global Variables:
 906:Generated_Source\PSoC4/CapSense_CSHL.c ****     *  CapSense_fingerThreshold[] - This array contains the level of signal
 907:Generated_Source\PSoC4/CapSense_CSHL.c ****     *   for each widget that determines if a finger is present on the widget.
 908:Generated_Source\PSoC4/CapSense_CSHL.c ****     *
 909:Generated_Source\PSoC4/CapSense_CSHL.c ****     * Side Effects:
 910:Generated_Source\PSoC4/CapSense_CSHL.c ****     *  None
 911:Generated_Source\PSoC4/CapSense_CSHL.c ****     *
 912:Generated_Source\PSoC4/CapSense_CSHL.c ****     *******************************************************************************/
 913:Generated_Source\PSoC4/CapSense_CSHL.c ****     void CapSense_SetFingerThreshold(uint32 widget, uint8 value)
 914:Generated_Source\PSoC4/CapSense_CSHL.c ****     {
 813              		.loc 1 914 0
 814              		.cfi_startproc
 815              		@ args = 0, pretend = 0, frame = 0
 816              		@ frame_needed = 0, uses_anonymous_args = 0
 817              		@ link register save eliminated.
 818              	.LVL84:
 915:Generated_Source\PSoC4/CapSense_CSHL.c ****         CapSense_fingerThreshold[widget] = value;
 819              		.loc 1 915 0
 820 0000 014B     		ldr	r3, .L66
 821 0002 1954     		strb	r1, [r3, r0]
 916:Generated_Source\PSoC4/CapSense_CSHL.c ****     }
 822              		.loc 1 916 0
 823              		@ sp needed
 824 0004 7047     		bx	lr
 825              	.L67:
 826 0006 C046     		.align	2
 827              	.L66:
 828 0008 00000000 		.word	CapSense_fingerThreshold
 829              		.cfi_endproc
 830              	.LFE50:
 831              		.size	CapSense_SetFingerThreshold, .-CapSense_SetFingerThreshold
 832              		.section	.text.CapSense_SetNoiseThreshold,"ax",%progbits
 833              		.align	2
 834              		.global	CapSense_SetNoiseThreshold
 835              		.code	16
 836              		.thumb_func
 837              		.type	CapSense_SetNoiseThreshold, %function
 838              	CapSense_SetNoiseThreshold:
 839              	.LFB51:
 917:Generated_Source\PSoC4/CapSense_CSHL.c **** 
 918:Generated_Source\PSoC4/CapSense_CSHL.c **** 
 919:Generated_Source\PSoC4/CapSense_CSHL.c ****     /*******************************************************************************
ARM GAS  C:\Users\jagumiel\AppData\Local\Temp\ccx0gHK6.s 			page 32


 920:Generated_Source\PSoC4/CapSense_CSHL.c ****     * Function Name: CapSense_SetNoiseThreshold
 921:Generated_Source\PSoC4/CapSense_CSHL.c ****     ********************************************************************************
 922:Generated_Source\PSoC4/CapSense_CSHL.c ****     *
 923:Generated_Source\PSoC4/CapSense_CSHL.c ****     * Summary:
 924:Generated_Source\PSoC4/CapSense_CSHL.c ****     *  This API sets the Noise Threshold value for each widget.
 925:Generated_Source\PSoC4/CapSense_CSHL.c ****     *
 926:Generated_Source\PSoC4/CapSense_CSHL.c ****     * Parameters:
 927:Generated_Source\PSoC4/CapSense_CSHL.c ****     *  widget:  Sensor index number.
 928:Generated_Source\PSoC4/CapSense_CSHL.c ****     *  value:   Noise Threshold value for widget.
 929:Generated_Source\PSoC4/CapSense_CSHL.c ****     *
 930:Generated_Source\PSoC4/CapSense_CSHL.c ****     * Return Value:
 931:Generated_Source\PSoC4/CapSense_CSHL.c ****     *  None
 932:Generated_Source\PSoC4/CapSense_CSHL.c ****     *
 933:Generated_Source\PSoC4/CapSense_CSHL.c ****     * Global Variables:
 934:Generated_Source\PSoC4/CapSense_CSHL.c ****     *  CapSense_noiseThreshold[] - This array contains the level of signal
 935:Generated_Source\PSoC4/CapSense_CSHL.c ****     *   for each widget that determines the level of noise in the capacitive scan.
 936:Generated_Source\PSoC4/CapSense_CSHL.c ****     *
 937:Generated_Source\PSoC4/CapSense_CSHL.c ****     * Side Effects:
 938:Generated_Source\PSoC4/CapSense_CSHL.c ****     *  None
 939:Generated_Source\PSoC4/CapSense_CSHL.c ****     *
 940:Generated_Source\PSoC4/CapSense_CSHL.c ****     *******************************************************************************/
 941:Generated_Source\PSoC4/CapSense_CSHL.c ****     void CapSense_SetNoiseThreshold(uint32 widget, uint8 value)
 942:Generated_Source\PSoC4/CapSense_CSHL.c ****     {
 840              		.loc 1 942 0
 841              		.cfi_startproc
 842              		@ args = 0, pretend = 0, frame = 0
 843              		@ frame_needed = 0, uses_anonymous_args = 0
 844              		@ link register save eliminated.
 845              	.LVL85:
 943:Generated_Source\PSoC4/CapSense_CSHL.c ****         CapSense_noiseThreshold[widget] = value;
 846              		.loc 1 943 0
 847 0000 014B     		ldr	r3, .L69
 848 0002 1954     		strb	r1, [r3, r0]
 944:Generated_Source\PSoC4/CapSense_CSHL.c ****     }
 849              		.loc 1 944 0
 850              		@ sp needed
 851 0004 7047     		bx	lr
 852              	.L70:
 853 0006 C046     		.align	2
 854              	.L69:
 855 0008 00000000 		.word	CapSense_noiseThreshold
 856              		.cfi_endproc
 857              	.LFE51:
 858              		.size	CapSense_SetNoiseThreshold, .-CapSense_SetNoiseThreshold
 859              		.section	.text.CapSense_SetFingerHysteresis,"ax",%progbits
 860              		.align	2
 861              		.global	CapSense_SetFingerHysteresis
 862              		.code	16
 863              		.thumb_func
 864              		.type	CapSense_SetFingerHysteresis, %function
 865              	CapSense_SetFingerHysteresis:
 866              	.LFB52:
 945:Generated_Source\PSoC4/CapSense_CSHL.c **** 
 946:Generated_Source\PSoC4/CapSense_CSHL.c **** 
 947:Generated_Source\PSoC4/CapSense_CSHL.c ****     /*******************************************************************************
 948:Generated_Source\PSoC4/CapSense_CSHL.c ****     * Function Name: CapSense_SetFingerHysteresis
 949:Generated_Source\PSoC4/CapSense_CSHL.c ****     ********************************************************************************
ARM GAS  C:\Users\jagumiel\AppData\Local\Temp\ccx0gHK6.s 			page 33


 950:Generated_Source\PSoC4/CapSense_CSHL.c ****     *
 951:Generated_Source\PSoC4/CapSense_CSHL.c ****     * Summary:
 952:Generated_Source\PSoC4/CapSense_CSHL.c ****     *  This API sets the Hysteresis value of a widget
 953:Generated_Source\PSoC4/CapSense_CSHL.c ****     *
 954:Generated_Source\PSoC4/CapSense_CSHL.c ****     * Parameters:
 955:Generated_Source\PSoC4/CapSense_CSHL.c ****     *  value:  Hysteresis value for widgets.
 956:Generated_Source\PSoC4/CapSense_CSHL.c ****     *  widget:  widget number
 957:Generated_Source\PSoC4/CapSense_CSHL.c ****     *
 958:Generated_Source\PSoC4/CapSense_CSHL.c ****     * Return Value:
 959:Generated_Source\PSoC4/CapSense_CSHL.c ****     *  None
 960:Generated_Source\PSoC4/CapSense_CSHL.c ****     *
 961:Generated_Source\PSoC4/CapSense_CSHL.c ****     * Global Variables:
 962:Generated_Source\PSoC4/CapSense_CSHL.c ****     *  CapSense_hysteresis[] - This array contains the hysteresis value for each widget.
 963:Generated_Source\PSoC4/CapSense_CSHL.c ****     *  CapSense_widgetNumberSld - structure with dynamic sliders' parameters.
 964:Generated_Source\PSoC4/CapSense_CSHL.c ****     *
 965:Generated_Source\PSoC4/CapSense_CSHL.c ****     * Side Effects:
 966:Generated_Source\PSoC4/CapSense_CSHL.c ****     *  None
 967:Generated_Source\PSoC4/CapSense_CSHL.c ****     *
 968:Generated_Source\PSoC4/CapSense_CSHL.c ****     *******************************************************************************/
 969:Generated_Source\PSoC4/CapSense_CSHL.c ****     void CapSense_SetFingerHysteresis(uint32 widget, uint8 value)
 970:Generated_Source\PSoC4/CapSense_CSHL.c ****     {
 867              		.loc 1 970 0
 868              		.cfi_startproc
 869              		@ args = 0, pretend = 0, frame = 0
 870              		@ frame_needed = 0, uses_anonymous_args = 0
 871              		@ link register save eliminated.
 872              	.LVL86:
 971:Generated_Source\PSoC4/CapSense_CSHL.c ****         CapSense_hysteresis[widget] = value;
 873              		.loc 1 971 0
 874 0000 014B     		ldr	r3, .L72
 875 0002 1954     		strb	r1, [r3, r0]
 972:Generated_Source\PSoC4/CapSense_CSHL.c ****     }
 876              		.loc 1 972 0
 877              		@ sp needed
 878 0004 7047     		bx	lr
 879              	.L73:
 880 0006 C046     		.align	2
 881              	.L72:
 882 0008 00000000 		.word	CapSense_hysteresis
 883              		.cfi_endproc
 884              	.LFE52:
 885              		.size	CapSense_SetFingerHysteresis, .-CapSense_SetFingerHysteresis
 886              		.section	.text.CapSense_SetNegativeNoiseThreshold,"ax",%progbits
 887              		.align	2
 888              		.global	CapSense_SetNegativeNoiseThreshold
 889              		.code	16
 890              		.thumb_func
 891              		.type	CapSense_SetNegativeNoiseThreshold, %function
 892              	CapSense_SetNegativeNoiseThreshold:
 893              	.LFB53:
 973:Generated_Source\PSoC4/CapSense_CSHL.c **** 
 974:Generated_Source\PSoC4/CapSense_CSHL.c **** 
 975:Generated_Source\PSoC4/CapSense_CSHL.c ****     /*******************************************************************************
 976:Generated_Source\PSoC4/CapSense_CSHL.c ****     * Function Name: CapSense_SetNegativeNoiseThreshold
 977:Generated_Source\PSoC4/CapSense_CSHL.c ****     ********************************************************************************
 978:Generated_Source\PSoC4/CapSense_CSHL.c ****     *
 979:Generated_Source\PSoC4/CapSense_CSHL.c ****     * Summary:
ARM GAS  C:\Users\jagumiel\AppData\Local\Temp\ccx0gHK6.s 			page 34


 980:Generated_Source\PSoC4/CapSense_CSHL.c ****     *  This API sets the Negative Noise Threshold value of a widget
 981:Generated_Source\PSoC4/CapSense_CSHL.c ****     *
 982:Generated_Source\PSoC4/CapSense_CSHL.c ****     * Parameters:
 983:Generated_Source\PSoC4/CapSense_CSHL.c ****     *  value:  Negative Noise Threshold value for widgets.
 984:Generated_Source\PSoC4/CapSense_CSHL.c ****     *  widget: widget number
 985:Generated_Source\PSoC4/CapSense_CSHL.c ****     *
 986:Generated_Source\PSoC4/CapSense_CSHL.c ****     * Return Value:
 987:Generated_Source\PSoC4/CapSense_CSHL.c ****     *  None
 988:Generated_Source\PSoC4/CapSense_CSHL.c ****     *
 989:Generated_Source\PSoC4/CapSense_CSHL.c ****     * Global Variables:
 990:Generated_Source\PSoC4/CapSense_CSHL.c ****     *  CapSense_negativeNoiseThreshold  - This parameter specifies the negative
 991:Generated_Source\PSoC4/CapSense_CSHL.c ****     *   difference between the raw count and baseline levels for Baseline resetting to
 992:Generated_Source\PSoC4/CapSense_CSHL.c ****     *   the raw count level.
 993:Generated_Source\PSoC4/CapSense_CSHL.c ****     *
 994:Generated_Source\PSoC4/CapSense_CSHL.c ****     * Side Effects:
 995:Generated_Source\PSoC4/CapSense_CSHL.c ****     *  None
 996:Generated_Source\PSoC4/CapSense_CSHL.c ****     *
 997:Generated_Source\PSoC4/CapSense_CSHL.c ****     *******************************************************************************/
 998:Generated_Source\PSoC4/CapSense_CSHL.c ****     void CapSense_SetNegativeNoiseThreshold(uint32 widget, uint8 value)
 999:Generated_Source\PSoC4/CapSense_CSHL.c ****     {
 894              		.loc 1 999 0
 895              		.cfi_startproc
 896              		@ args = 0, pretend = 0, frame = 0
 897              		@ frame_needed = 0, uses_anonymous_args = 0
 898              		@ link register save eliminated.
 899              	.LVL87:
1000:Generated_Source\PSoC4/CapSense_CSHL.c ****         CapSense_negativeNoiseThreshold[widget] = value;
 900              		.loc 1 1000 0
 901 0000 014B     		ldr	r3, .L75
 902 0002 1954     		strb	r1, [r3, r0]
1001:Generated_Source\PSoC4/CapSense_CSHL.c ****     }
 903              		.loc 1 1001 0
 904              		@ sp needed
 905 0004 7047     		bx	lr
 906              	.L76:
 907 0006 C046     		.align	2
 908              	.L75:
 909 0008 00000000 		.word	CapSense_negativeNoiseThreshold
 910              		.cfi_endproc
 911              	.LFE53:
 912              		.size	CapSense_SetNegativeNoiseThreshold, .-CapSense_SetNegativeNoiseThreshold
 913              		.section	.text.CapSense_SetDebounce,"ax",%progbits
 914              		.align	2
 915              		.global	CapSense_SetDebounce
 916              		.code	16
 917              		.thumb_func
 918              		.type	CapSense_SetDebounce, %function
 919              	CapSense_SetDebounce:
 920              	.LFB54:
1002:Generated_Source\PSoC4/CapSense_CSHL.c **** 
1003:Generated_Source\PSoC4/CapSense_CSHL.c **** 
1004:Generated_Source\PSoC4/CapSense_CSHL.c ****     /*******************************************************************************
1005:Generated_Source\PSoC4/CapSense_CSHL.c ****     * Function Name: CapSense_SetDebounce
1006:Generated_Source\PSoC4/CapSense_CSHL.c ****     ********************************************************************************
1007:Generated_Source\PSoC4/CapSense_CSHL.c ****     *
1008:Generated_Source\PSoC4/CapSense_CSHL.c ****     * Summary:
1009:Generated_Source\PSoC4/CapSense_CSHL.c ****     *  This API sets the debounce value for a widget.
ARM GAS  C:\Users\jagumiel\AppData\Local\Temp\ccx0gHK6.s 			page 35


1010:Generated_Source\PSoC4/CapSense_CSHL.c ****     *
1011:Generated_Source\PSoC4/CapSense_CSHL.c ****     * Parameters:
1012:Generated_Source\PSoC4/CapSense_CSHL.c ****     *  value:  Debounce value for widget.
1013:Generated_Source\PSoC4/CapSense_CSHL.c ****     *  widget: widget index.
1014:Generated_Source\PSoC4/CapSense_CSHL.c ****     *
1015:Generated_Source\PSoC4/CapSense_CSHL.c ****     * Return Value:
1016:Generated_Source\PSoC4/CapSense_CSHL.c ****     *  None
1017:Generated_Source\PSoC4/CapSense_CSHL.c ****     *
1018:Generated_Source\PSoC4/CapSense_CSHL.c ****     * Global Variables:
1019:Generated_Source\PSoC4/CapSense_CSHL.c ****     *  CapSense_debounce[] - This array contains the debounce value for each widget.
1020:Generated_Source\PSoC4/CapSense_CSHL.c ****     *  CapSense_widgetNumberSld - structure with dynamic sliders' parameters.
1021:Generated_Source\PSoC4/CapSense_CSHL.c ****     *
1022:Generated_Source\PSoC4/CapSense_CSHL.c ****     * Side Effects:
1023:Generated_Source\PSoC4/CapSense_CSHL.c ****     *  None
1024:Generated_Source\PSoC4/CapSense_CSHL.c ****     *
1025:Generated_Source\PSoC4/CapSense_CSHL.c ****     *******************************************************************************/
1026:Generated_Source\PSoC4/CapSense_CSHL.c ****     void CapSense_SetDebounce(uint32 widget, uint8 value)
1027:Generated_Source\PSoC4/CapSense_CSHL.c ****     {
 921              		.loc 1 1027 0
 922              		.cfi_startproc
 923              		@ args = 0, pretend = 0, frame = 0
 924              		@ frame_needed = 0, uses_anonymous_args = 0
 925              		@ link register save eliminated.
 926              	.LVL88:
1028:Generated_Source\PSoC4/CapSense_CSHL.c ****         CapSense_debounce[widget] = value;
 927              		.loc 1 1028 0
 928 0000 014B     		ldr	r3, .L78
 929 0002 1954     		strb	r1, [r3, r0]
1029:Generated_Source\PSoC4/CapSense_CSHL.c ****     }
 930              		.loc 1 1029 0
 931              		@ sp needed
 932 0004 7047     		bx	lr
 933              	.L79:
 934 0006 C046     		.align	2
 935              	.L78:
 936 0008 00000000 		.word	.LANCHOR1
 937              		.cfi_endproc
 938              	.LFE54:
 939              		.size	CapSense_SetDebounce, .-CapSense_SetDebounce
 940              		.section	.text.CapSense_SetLowBaselineReset,"ax",%progbits
 941              		.align	2
 942              		.global	CapSense_SetLowBaselineReset
 943              		.code	16
 944              		.thumb_func
 945              		.type	CapSense_SetLowBaselineReset, %function
 946              	CapSense_SetLowBaselineReset:
 947              	.LFB55:
1030:Generated_Source\PSoC4/CapSense_CSHL.c **** 
1031:Generated_Source\PSoC4/CapSense_CSHL.c **** 
1032:Generated_Source\PSoC4/CapSense_CSHL.c ****     /*******************************************************************************
1033:Generated_Source\PSoC4/CapSense_CSHL.c ****     * Function Name: CapSense_SetLowBaselineReset
1034:Generated_Source\PSoC4/CapSense_CSHL.c ****     ********************************************************************************
1035:Generated_Source\PSoC4/CapSense_CSHL.c ****     *
1036:Generated_Source\PSoC4/CapSense_CSHL.c ****     * Summary:
1037:Generated_Source\PSoC4/CapSense_CSHL.c ****     *  This API sets the low baseline reset threshold value for the sensor.
1038:Generated_Source\PSoC4/CapSense_CSHL.c ****     *
1039:Generated_Source\PSoC4/CapSense_CSHL.c ****     * Parameters:
ARM GAS  C:\Users\jagumiel\AppData\Local\Temp\ccx0gHK6.s 			page 36


1040:Generated_Source\PSoC4/CapSense_CSHL.c ****     *  value: low baseline reset threshold value.
1041:Generated_Source\PSoC4/CapSense_CSHL.c ****     *  sensor: Sensor index.
1042:Generated_Source\PSoC4/CapSense_CSHL.c ****     *
1043:Generated_Source\PSoC4/CapSense_CSHL.c ****     * Return Value:
1044:Generated_Source\PSoC4/CapSense_CSHL.c ****     *  None
1045:Generated_Source\PSoC4/CapSense_CSHL.c ****     *
1046:Generated_Source\PSoC4/CapSense_CSHL.c ****     * Global Variables:
1047:Generated_Source\PSoC4/CapSense_CSHL.c ****     *  CapSense_lowBaselineReset[] - This array contains the Baseline update
1048:Generated_Source\PSoC4/CapSense_CSHL.c ****     *  threshold value for each sensor.
1049:Generated_Source\PSoC4/CapSense_CSHL.c ****     *
1050:Generated_Source\PSoC4/CapSense_CSHL.c ****     * Side Effects:
1051:Generated_Source\PSoC4/CapSense_CSHL.c ****     *  None
1052:Generated_Source\PSoC4/CapSense_CSHL.c ****     *
1053:Generated_Source\PSoC4/CapSense_CSHL.c ****     *******************************************************************************/
1054:Generated_Source\PSoC4/CapSense_CSHL.c ****     void CapSense_SetLowBaselineReset(uint32 sensor, uint8 value)
1055:Generated_Source\PSoC4/CapSense_CSHL.c ****     {
 948              		.loc 1 1055 0
 949              		.cfi_startproc
 950              		@ args = 0, pretend = 0, frame = 0
 951              		@ frame_needed = 0, uses_anonymous_args = 0
 952              		@ link register save eliminated.
 953              	.LVL89:
1056:Generated_Source\PSoC4/CapSense_CSHL.c ****         CapSense_lowBaselineReset[sensor] = value;
 954              		.loc 1 1056 0
 955 0000 014B     		ldr	r3, .L81
 956 0002 1818     		adds	r0, r3, r0
 957              	.LVL90:
 958 0004 0171     		strb	r1, [r0, #4]
1057:Generated_Source\PSoC4/CapSense_CSHL.c ****     }
 959              		.loc 1 1057 0
 960              		@ sp needed
 961 0006 7047     		bx	lr
 962              	.L82:
 963              		.align	2
 964              	.L81:
 965 0008 00000000 		.word	.LANCHOR1
 966              		.cfi_endproc
 967              	.LFE55:
 968              		.size	CapSense_SetLowBaselineReset, .-CapSense_SetLowBaselineReset
 969              		.section	.text.CapSense_CheckIsSensorActive,"ax",%progbits
 970              		.align	2
 971              		.global	CapSense_CheckIsSensorActive
 972              		.code	16
 973              		.thumb_func
 974              		.type	CapSense_CheckIsSensorActive, %function
 975              	CapSense_CheckIsSensorActive:
 976              	.LFB56:
1058:Generated_Source\PSoC4/CapSense_CSHL.c **** #endif /* (CapSense_TUNING_METHOD != CapSense__TUNING_NONE) */
1059:Generated_Source\PSoC4/CapSense_CSHL.c **** 
1060:Generated_Source\PSoC4/CapSense_CSHL.c **** 
1061:Generated_Source\PSoC4/CapSense_CSHL.c **** /*******************************************************************************
1062:Generated_Source\PSoC4/CapSense_CSHL.c **** * Function Name: CapSense_CheckIsSensorActive
1063:Generated_Source\PSoC4/CapSense_CSHL.c **** ********************************************************************************
1064:Generated_Source\PSoC4/CapSense_CSHL.c **** *
1065:Generated_Source\PSoC4/CapSense_CSHL.c **** * Summary:
1066:Generated_Source\PSoC4/CapSense_CSHL.c **** *  Compares the CapSense_sensorSignal[sensor] array element to the finger
1067:Generated_Source\PSoC4/CapSense_CSHL.c **** *  threshold of the widget it belongs to. The hysteresis and debounce are taken into
ARM GAS  C:\Users\jagumiel\AppData\Local\Temp\ccx0gHK6.s 			page 37


1068:Generated_Source\PSoC4/CapSense_CSHL.c **** *  account. The hysteresis is added or subtracted from the finger threshold
1069:Generated_Source\PSoC4/CapSense_CSHL.c **** *  based on whether the sensor is currently active.
1070:Generated_Source\PSoC4/CapSense_CSHL.c **** *  If the sensor is active, the threshold is lowered by the hysteresis amount.
1071:Generated_Source\PSoC4/CapSense_CSHL.c **** *  If the sensor is inactive, the threshold is raised by the hysteresis amount.
1072:Generated_Source\PSoC4/CapSense_CSHL.c **** *  The debounce counter is added to the sensor active transition.
1073:Generated_Source\PSoC4/CapSense_CSHL.c **** *  This function updates the CapSense_sensorOnMask[] array element.
1074:Generated_Source\PSoC4/CapSense_CSHL.c **** *
1075:Generated_Source\PSoC4/CapSense_CSHL.c **** * Parameters:
1076:Generated_Source\PSoC4/CapSense_CSHL.c **** *  sensor:  Sensor number.
1077:Generated_Source\PSoC4/CapSense_CSHL.c **** *
1078:Generated_Source\PSoC4/CapSense_CSHL.c **** * Return:
1079:Generated_Source\PSoC4/CapSense_CSHL.c **** *  Returns sensor state 1 if active, 0 if not active.
1080:Generated_Source\PSoC4/CapSense_CSHL.c **** *
1081:Generated_Source\PSoC4/CapSense_CSHL.c **** * Global Variables:
1082:Generated_Source\PSoC4/CapSense_CSHL.c **** *  CapSense_sensorSignal[] - used to store the difference between
1083:Generated_Source\PSoC4/CapSense_CSHL.c **** *  the current value of raw data and a previous value of the baseline.
1084:Generated_Source\PSoC4/CapSense_CSHL.c **** *  CapSense_debounceCounter[]   - used to store the current debounce
1085:Generated_Source\PSoC4/CapSense_CSHL.c **** *  counter of the sensor. the widget which have this parameter are buttons, matrix
1086:Generated_Source\PSoC4/CapSense_CSHL.c **** *  buttons, proximity, and guard. All other widgets don't have the  debounce parameter
1087:Generated_Source\PSoC4/CapSense_CSHL.c **** *  and use the last element of this array with value 0 (it means no debounce).
1088:Generated_Source\PSoC4/CapSense_CSHL.c **** *  CapSense_sensorOnMask[] - used to store the sensors on/off state.
1089:Generated_Source\PSoC4/CapSense_CSHL.c **** *  CapSense_sensorOnMask[0] contains the masked bits for sensors
1090:Generated_Source\PSoC4/CapSense_CSHL.c **** *   0 through 7 (sensor 0 is bit 0, sensor 1 is bit 1).
1091:Generated_Source\PSoC4/CapSense_CSHL.c **** *  CapSense_sensorEnableMask[1] contains the masked bits for
1092:Generated_Source\PSoC4/CapSense_CSHL.c **** *  sensors 8 through 15 (if needed), and so on.
1093:Generated_Source\PSoC4/CapSense_CSHL.c **** *  0 - sensor is inactive.
1094:Generated_Source\PSoC4/CapSense_CSHL.c **** *  1 - sensor is active.
1095:Generated_Source\PSoC4/CapSense_CSHL.c **** *
1096:Generated_Source\PSoC4/CapSense_CSHL.c **** * Side Effects:
1097:Generated_Source\PSoC4/CapSense_CSHL.c **** *  None
1098:Generated_Source\PSoC4/CapSense_CSHL.c **** *
1099:Generated_Source\PSoC4/CapSense_CSHL.c **** *******************************************************************************/
1100:Generated_Source\PSoC4/CapSense_CSHL.c **** uint32 CapSense_CheckIsSensorActive(uint32 sensor)
1101:Generated_Source\PSoC4/CapSense_CSHL.c **** {
 977              		.loc 1 1101 0
 978              		.cfi_startproc
 979              		@ args = 0, pretend = 0, frame = 0
 980              		@ frame_needed = 0, uses_anonymous_args = 0
 981              	.LVL91:
 982 0000 F0B5     		push	{r4, r5, r6, r7, lr}
 983              		.cfi_def_cfa_offset 20
 984              		.cfi_offset 4, -20
 985              		.cfi_offset 5, -16
 986              		.cfi_offset 6, -12
 987              		.cfi_offset 7, -8
 988              		.cfi_offset 14, -4
 989 0002 4746     		mov	r7, r8
 990 0004 80B4     		push	{r7}
 991              		.cfi_def_cfa_offset 24
 992              		.cfi_offset 8, -24
 993 0006 0400     		movs	r4, r0
1102:Generated_Source\PSoC4/CapSense_CSHL.c ****     uint8 widget;
1103:Generated_Source\PSoC4/CapSense_CSHL.c ****     uint8 debounce;
1104:Generated_Source\PSoC4/CapSense_CSHL.c ****     uint8 debounceIndex;
1105:Generated_Source\PSoC4/CapSense_CSHL.c **** 
1106:Generated_Source\PSoC4/CapSense_CSHL.c ****     uint8 fingerThreshold;
1107:Generated_Source\PSoC4/CapSense_CSHL.c ****     uint8 hysteresis;
ARM GAS  C:\Users\jagumiel\AppData\Local\Temp\ccx0gHK6.s 			page 38


1108:Generated_Source\PSoC4/CapSense_CSHL.c ****     
1109:Generated_Source\PSoC4/CapSense_CSHL.c **** 
1110:Generated_Source\PSoC4/CapSense_CSHL.c ****     /* Prepare to find debounce counter index */
1111:Generated_Source\PSoC4/CapSense_CSHL.c ****     widget = CapSense_widgetNumber[sensor];
 994              		.loc 1 1111 0
 995 0008 224B     		ldr	r3, .L88
 996 000a 1D5C     		ldrb	r5, [r3, r0]
1112:Generated_Source\PSoC4/CapSense_CSHL.c **** 
1113:Generated_Source\PSoC4/CapSense_CSHL.c ****     fingerThreshold = CapSense_fingerThreshold[widget];
 997              		.loc 1 1113 0
 998 000c 224B     		ldr	r3, .L88+4
 999 000e 5F5D     		ldrb	r7, [r3, r5]
 1000              	.LVL92:
1114:Generated_Source\PSoC4/CapSense_CSHL.c ****     hysteresis = CapSense_hysteresis[widget];
 1001              		.loc 1 1114 0
 1002 0010 224B     		ldr	r3, .L88+8
 1003 0012 5E5D     		ldrb	r6, [r3, r5]
 1004              	.LVL93:
1115:Generated_Source\PSoC4/CapSense_CSHL.c ****     debounce = CapSense_debounce[widget];
 1005              		.loc 1 1115 0
 1006 0014 224B     		ldr	r3, .L88+12
 1007 0016 5B5D     		ldrb	r3, [r3, r5]
 1008 0018 9846     		mov	r8, r3
 1009              	.LVL94:
1116:Generated_Source\PSoC4/CapSense_CSHL.c **** 
1117:Generated_Source\PSoC4/CapSense_CSHL.c ****         debounceIndex = widget;
1118:Generated_Source\PSoC4/CapSense_CSHL.c **** 
1119:Generated_Source\PSoC4/CapSense_CSHL.c **** 
1120:Generated_Source\PSoC4/CapSense_CSHL.c ****     /* Was on */
1121:Generated_Source\PSoC4/CapSense_CSHL.c ****     if (0u != CapSense_GetBitValue(CapSense_sensorOnMask, sensor))
 1010              		.loc 1 1121 0
 1011 001a 0100     		movs	r1, r0
 1012 001c 2148     		ldr	r0, .L88+16
 1013              	.LVL95:
 1014 001e 1030     		adds	r0, r0, #16
 1015 0020 FFF7FEFF 		bl	CapSense_GetBitValue
 1016              	.LVL96:
 1017 0024 0028     		cmp	r0, #0
 1018 0026 10D0     		beq	.L84
1122:Generated_Source\PSoC4/CapSense_CSHL.c ****     {
1123:Generated_Source\PSoC4/CapSense_CSHL.c ****         /* Hysteresis minus */
1124:Generated_Source\PSoC4/CapSense_CSHL.c ****         if (CapSense_sensorSignal[sensor] < (fingerThreshold - hysteresis))
 1019              		.loc 1 1124 0
 1020 0028 1E4B     		ldr	r3, .L88+16
 1021 002a 1B19     		adds	r3, r3, r4
 1022 002c 1B7A     		ldrb	r3, [r3, #8]
 1023 002e BE1B     		subs	r6, r7, r6
 1024              	.LVL97:
 1025 0030 B342     		cmp	r3, r6
 1026 0032 23DA     		bge	.L85
1125:Generated_Source\PSoC4/CapSense_CSHL.c ****         {
1126:Generated_Source\PSoC4/CapSense_CSHL.c ****             CapSense_SetBitValue(CapSense_sensorOnMask, sensor, 0u);
 1027              		.loc 1 1126 0
 1028 0034 1B4E     		ldr	r6, .L88+16
 1029 0036 3000     		movs	r0, r6
 1030 0038 1030     		adds	r0, r0, #16
 1031 003a 0022     		movs	r2, #0
ARM GAS  C:\Users\jagumiel\AppData\Local\Temp\ccx0gHK6.s 			page 39


 1032 003c 2100     		movs	r1, r4
 1033 003e FFF7FEFF 		bl	CapSense_SetBitValue
 1034              	.LVL98:
1127:Generated_Source\PSoC4/CapSense_CSHL.c ****             /* Sensor inactive - reset Debounce counter */
1128:Generated_Source\PSoC4/CapSense_CSHL.c ****             CapSense_debounceCounter[debounceIndex] = debounce;
 1035              		.loc 1 1128 0
 1036 0042 7519     		adds	r5, r6, r5
 1037 0044 4346     		mov	r3, r8
 1038 0046 2B73     		strb	r3, [r5, #12]
 1039 0048 18E0     		b	.L85
 1040              	.LVL99:
 1041              	.L84:
1129:Generated_Source\PSoC4/CapSense_CSHL.c ****         }
1130:Generated_Source\PSoC4/CapSense_CSHL.c ****     }
1131:Generated_Source\PSoC4/CapSense_CSHL.c ****     else    /* Was off */
1132:Generated_Source\PSoC4/CapSense_CSHL.c ****     {
1133:Generated_Source\PSoC4/CapSense_CSHL.c ****         /* Hysteresis plus */
1134:Generated_Source\PSoC4/CapSense_CSHL.c ****         if (CapSense_sensorSignal[sensor] >= (fingerThreshold + hysteresis))
 1042              		.loc 1 1134 0
 1043 004a 164B     		ldr	r3, .L88+16
 1044 004c 1B19     		adds	r3, r3, r4
 1045 004e 1B7A     		ldrb	r3, [r3, #8]
 1046 0050 BE19     		adds	r6, r7, r6
 1047              	.LVL100:
 1048 0052 B342     		cmp	r3, r6
 1049 0054 0EDB     		blt	.L86
1135:Generated_Source\PSoC4/CapSense_CSHL.c ****         {
1136:Generated_Source\PSoC4/CapSense_CSHL.c ****             CapSense_debounceCounter[debounceIndex]--;
 1050              		.loc 1 1136 0
 1051 0056 134B     		ldr	r3, .L88+16
 1052 0058 5D19     		adds	r5, r3, r5
 1053 005a 2B7B     		ldrb	r3, [r5, #12]
 1054 005c 013B     		subs	r3, r3, #1
 1055 005e DBB2     		uxtb	r3, r3
 1056 0060 2B73     		strb	r3, [r5, #12]
1137:Generated_Source\PSoC4/CapSense_CSHL.c ****             /* Sensor active, decrement debounce counter */
1138:Generated_Source\PSoC4/CapSense_CSHL.c ****             if(CapSense_debounceCounter[debounceIndex] == 0u)
 1057              		.loc 1 1138 0
 1058 0062 002B     		cmp	r3, #0
 1059 0064 0AD1     		bne	.L85
1139:Generated_Source\PSoC4/CapSense_CSHL.c ****             {
1140:Generated_Source\PSoC4/CapSense_CSHL.c ****                 CapSense_SetBitValue(CapSense_sensorOnMask, sensor, 1u);
 1060              		.loc 1 1140 0
 1061 0066 0122     		movs	r2, #1
 1062 0068 2100     		movs	r1, r4
 1063 006a 0E48     		ldr	r0, .L88+16
 1064 006c 1030     		adds	r0, r0, #16
 1065 006e FFF7FEFF 		bl	CapSense_SetBitValue
 1066              	.LVL101:
 1067 0072 03E0     		b	.L85
 1068              	.L86:
1141:Generated_Source\PSoC4/CapSense_CSHL.c ****             }
1142:Generated_Source\PSoC4/CapSense_CSHL.c ****         }
1143:Generated_Source\PSoC4/CapSense_CSHL.c ****         else
1144:Generated_Source\PSoC4/CapSense_CSHL.c ****         {
1145:Generated_Source\PSoC4/CapSense_CSHL.c ****             /* Sensor inactive - reset Debounce counter */
1146:Generated_Source\PSoC4/CapSense_CSHL.c ****             CapSense_debounceCounter[debounceIndex] = debounce;
ARM GAS  C:\Users\jagumiel\AppData\Local\Temp\ccx0gHK6.s 			page 40


 1069              		.loc 1 1146 0
 1070 0074 0B4B     		ldr	r3, .L88+16
 1071 0076 5D19     		adds	r5, r3, r5
 1072 0078 4346     		mov	r3, r8
 1073 007a 2B73     		strb	r3, [r5, #12]
 1074              	.L85:
1147:Generated_Source\PSoC4/CapSense_CSHL.c ****         }
1148:Generated_Source\PSoC4/CapSense_CSHL.c ****     }
1149:Generated_Source\PSoC4/CapSense_CSHL.c **** 
1150:Generated_Source\PSoC4/CapSense_CSHL.c ****     return ((uint32)((0u != CapSense_GetBitValue(CapSense_sensorOnMask, sensor)) ? 1u : 0u));
 1075              		.loc 1 1150 0
 1076 007c 2100     		movs	r1, r4
 1077 007e 0948     		ldr	r0, .L88+16
 1078 0080 1030     		adds	r0, r0, #16
 1079 0082 FFF7FEFF 		bl	CapSense_GetBitValue
 1080              	.LVL102:
 1081 0086 0028     		cmp	r0, #0
 1082 0088 00D0     		beq	.L87
 1083 008a 0120     		movs	r0, #1
 1084              	.L87:
1151:Generated_Source\PSoC4/CapSense_CSHL.c **** }
 1085              		.loc 1 1151 0 discriminator 4
 1086              		@ sp needed
 1087              	.LVL103:
 1088              	.LVL104:
 1089              	.LVL105:
 1090 008c 04BC     		pop	{r2}
 1091 008e 9046     		mov	r8, r2
 1092 0090 F0BD     		pop	{r4, r5, r6, r7, pc}
 1093              	.L89:
 1094 0092 C046     		.align	2
 1095              	.L88:
 1096 0094 00000000 		.word	CapSense_widgetNumber
 1097 0098 00000000 		.word	CapSense_fingerThreshold
 1098 009c 00000000 		.word	CapSense_hysteresis
 1099 00a0 00000000 		.word	.LANCHOR1
 1100 00a4 00000000 		.word	.LANCHOR0
 1101              		.cfi_endproc
 1102              	.LFE56:
 1103              		.size	CapSense_CheckIsSensorActive, .-CapSense_CheckIsSensorActive
 1104              		.section	.text.CapSense_CheckIsWidgetActive,"ax",%progbits
 1105              		.align	2
 1106              		.global	CapSense_CheckIsWidgetActive
 1107              		.code	16
 1108              		.thumb_func
 1109              		.type	CapSense_CheckIsWidgetActive, %function
 1110              	CapSense_CheckIsWidgetActive:
 1111              	.LFB57:
1152:Generated_Source\PSoC4/CapSense_CSHL.c **** 
1153:Generated_Source\PSoC4/CapSense_CSHL.c **** 
1154:Generated_Source\PSoC4/CapSense_CSHL.c **** /*******************************************************************************
1155:Generated_Source\PSoC4/CapSense_CSHL.c **** * Function Name: CapSense_CheckIsWidgetActive
1156:Generated_Source\PSoC4/CapSense_CSHL.c **** ********************************************************************************
1157:Generated_Source\PSoC4/CapSense_CSHL.c **** *
1158:Generated_Source\PSoC4/CapSense_CSHL.c **** * Summary:
1159:Generated_Source\PSoC4/CapSense_CSHL.c **** *  Compares the CapSense_sensorSignal[] array element to the finger threshold of
1160:Generated_Source\PSoC4/CapSense_CSHL.c **** * the widget it belongs to. The hysteresis and debounce are taken into account.
ARM GAS  C:\Users\jagumiel\AppData\Local\Temp\ccx0gHK6.s 			page 41


1161:Generated_Source\PSoC4/CapSense_CSHL.c **** * The hysteresis is added or subtracted from the finger threshold based on whether
1162:Generated_Source\PSoC4/CapSense_CSHL.c **** *  the sensor is currently active. If the sensor is active, the threshold is
1163:Generated_Source\PSoC4/CapSense_CSHL.c **** *  lowered by the hysteresis amount. If the sensor is inactive, the threshold
1164:Generated_Source\PSoC4/CapSense_CSHL.c **** *  is raised by the hysteresis amount.
1165:Generated_Source\PSoC4/CapSense_CSHL.c **** * The debounce counter added to the sensor active transition.
1166:Generated_Source\PSoC4/CapSense_CSHL.c **** * This function updates CapSense_sensorOnMask[] array element
1167:Generated_Source\PSoC4/CapSense_CSHL.c **** *
1168:Generated_Source\PSoC4/CapSense_CSHL.c **** * Parameters:
1169:Generated_Source\PSoC4/CapSense_CSHL.c **** *  widget:  widget number.
1170:Generated_Source\PSoC4/CapSense_CSHL.c **** *
1171:Generated_Source\PSoC4/CapSense_CSHL.c **** * Return:
1172:Generated_Source\PSoC4/CapSense_CSHL.c **** *  Returns widget sensor state 1 if one or more sensors within widget is/are
1173:Generated_Source\PSoC4/CapSense_CSHL.c **** *  active, 0 if all sensors within widget are inactive.
1174:Generated_Source\PSoC4/CapSense_CSHL.c **** *
1175:Generated_Source\PSoC4/CapSense_CSHL.c **** * Global Variables:
1176:Generated_Source\PSoC4/CapSense_CSHL.c **** *  rawDataIndex[]: Contains the  1st sensor position in the widget
1177:Generated_Source\PSoC4/CapSense_CSHL.c **** *
1178:Generated_Source\PSoC4/CapSense_CSHL.c **** * Side Effects:
1179:Generated_Source\PSoC4/CapSense_CSHL.c **** *  None
1180:Generated_Source\PSoC4/CapSense_CSHL.c **** *
1181:Generated_Source\PSoC4/CapSense_CSHL.c **** *******************************************************************************/
1182:Generated_Source\PSoC4/CapSense_CSHL.c **** uint32 CapSense_CheckIsWidgetActive(uint32 widget)
1183:Generated_Source\PSoC4/CapSense_CSHL.c **** {
 1112              		.loc 1 1183 0
 1113              		.cfi_startproc
 1114              		@ args = 0, pretend = 0, frame = 0
 1115              		@ frame_needed = 0, uses_anonymous_args = 0
 1116              	.LVL106:
 1117 0000 70B5     		push	{r4, r5, r6, lr}
 1118              		.cfi_def_cfa_offset 16
 1119              		.cfi_offset 4, -16
 1120              		.cfi_offset 5, -12
 1121              		.cfi_offset 6, -8
 1122              		.cfi_offset 14, -4
1184:Generated_Source\PSoC4/CapSense_CSHL.c ****     uint32 rawIndex = (uint32)CapSense_rawDataIndex[widget];
 1123              		.loc 1 1184 0
 1124 0002 084B     		ldr	r3, .L94
 1125 0004 1A18     		adds	r2, r3, r0
 1126 0006 1479     		ldrb	r4, [r2, #4]
 1127              	.LVL107:
1185:Generated_Source\PSoC4/CapSense_CSHL.c ****     uint32 numOfSensors = (uint32)CapSense_numberOfSensors[widget] + rawIndex;
 1128              		.loc 1 1185 0
 1129 0008 1D5C     		ldrb	r5, [r3, r0]
 1130 000a 6519     		adds	r5, r4, r5
 1131              	.LVL108:
1186:Generated_Source\PSoC4/CapSense_CSHL.c ****     uint32 state = 0u;
 1132              		.loc 1 1186 0
 1133 000c 0026     		movs	r6, #0
 1134              	.LVL109:
 1135              	.L92:
1187:Generated_Source\PSoC4/CapSense_CSHL.c **** 
1188:Generated_Source\PSoC4/CapSense_CSHL.c ****     /* Check all sensors of widget */
1189:Generated_Source\PSoC4/CapSense_CSHL.c ****     do
1190:Generated_Source\PSoC4/CapSense_CSHL.c ****     {
1191:Generated_Source\PSoC4/CapSense_CSHL.c ****         if(CapSense_CheckIsSensorActive((uint32)rawIndex) != 0u)
 1136              		.loc 1 1191 0
 1137 000e 2000     		movs	r0, r4
ARM GAS  C:\Users\jagumiel\AppData\Local\Temp\ccx0gHK6.s 			page 42


 1138 0010 FFF7FEFF 		bl	CapSense_CheckIsSensorActive
 1139              	.LVL110:
 1140 0014 0028     		cmp	r0, #0
 1141 0016 00D0     		beq	.L91
1192:Generated_Source\PSoC4/CapSense_CSHL.c ****         {
1193:Generated_Source\PSoC4/CapSense_CSHL.c ****             state = CapSense_SENSOR_IS_ACTIVE;
 1142              		.loc 1 1193 0
 1143 0018 0126     		movs	r6, #1
 1144              	.LVL111:
 1145              	.L91:
1194:Generated_Source\PSoC4/CapSense_CSHL.c ****         }
1195:Generated_Source\PSoC4/CapSense_CSHL.c ****         rawIndex++;
 1146              		.loc 1 1195 0
 1147 001a 0134     		adds	r4, r4, #1
 1148              	.LVL112:
1196:Generated_Source\PSoC4/CapSense_CSHL.c ****     }
1197:Generated_Source\PSoC4/CapSense_CSHL.c ****     while(rawIndex < numOfSensors);
 1149              		.loc 1 1197 0
 1150 001c A542     		cmp	r5, r4
 1151 001e F6D8     		bhi	.L92
1198:Generated_Source\PSoC4/CapSense_CSHL.c **** 
1199:Generated_Source\PSoC4/CapSense_CSHL.c **** 
1200:Generated_Source\PSoC4/CapSense_CSHL.c **** 
1201:Generated_Source\PSoC4/CapSense_CSHL.c ****     return state;
1202:Generated_Source\PSoC4/CapSense_CSHL.c **** }
 1152              		.loc 1 1202 0
 1153 0020 3000     		movs	r0, r6
 1154              		@ sp needed
 1155              	.LVL113:
 1156              	.LVL114:
 1157              	.LVL115:
 1158 0022 70BD     		pop	{r4, r5, r6, pc}
 1159              	.L95:
 1160              		.align	2
 1161              	.L94:
 1162 0024 00000000 		.word	.LANCHOR2
 1163              		.cfi_endproc
 1164              	.LFE57:
 1165              		.size	CapSense_CheckIsWidgetActive, .-CapSense_CheckIsWidgetActive
 1166              		.section	.text.CapSense_CheckIsAnyWidgetActive,"ax",%progbits
 1167              		.align	2
 1168              		.global	CapSense_CheckIsAnyWidgetActive
 1169              		.code	16
 1170              		.thumb_func
 1171              		.type	CapSense_CheckIsAnyWidgetActive, %function
 1172              	CapSense_CheckIsAnyWidgetActive:
 1173              	.LFB58:
1203:Generated_Source\PSoC4/CapSense_CSHL.c **** 
1204:Generated_Source\PSoC4/CapSense_CSHL.c **** 
1205:Generated_Source\PSoC4/CapSense_CSHL.c **** /*******************************************************************************
1206:Generated_Source\PSoC4/CapSense_CSHL.c **** * Function Name: CapSense_CheckIsAnyWidgetActive
1207:Generated_Source\PSoC4/CapSense_CSHL.c **** ********************************************************************************
1208:Generated_Source\PSoC4/CapSense_CSHL.c **** *
1209:Generated_Source\PSoC4/CapSense_CSHL.c **** * Summary:
1210:Generated_Source\PSoC4/CapSense_CSHL.c **** *  Compares all the sensors of the CapSense_Signal[] array to their finger
1211:Generated_Source\PSoC4/CapSense_CSHL.c **** *  threshold. Calls CapSense_CheckIsWidgetActive() for each widget so
1212:Generated_Source\PSoC4/CapSense_CSHL.c **** *  the CapSense_sensorOnMask[] array is up to date after calling this
ARM GAS  C:\Users\jagumiel\AppData\Local\Temp\ccx0gHK6.s 			page 43


1213:Generated_Source\PSoC4/CapSense_CSHL.c **** *  function.
1214:Generated_Source\PSoC4/CapSense_CSHL.c **** *
1215:Generated_Source\PSoC4/CapSense_CSHL.c **** * Parameters:
1216:Generated_Source\PSoC4/CapSense_CSHL.c **** *  widget:  widget number.
1217:Generated_Source\PSoC4/CapSense_CSHL.c **** *
1218:Generated_Source\PSoC4/CapSense_CSHL.c **** * Return:
1219:Generated_Source\PSoC4/CapSense_CSHL.c **** *  Returns 1 if any widget is active, 0 none of widgets are active.
1220:Generated_Source\PSoC4/CapSense_CSHL.c **** *
1221:Generated_Source\PSoC4/CapSense_CSHL.c **** * Global Variables:
1222:Generated_Source\PSoC4/CapSense_CSHL.c **** *  None
1223:Generated_Source\PSoC4/CapSense_CSHL.c **** *
1224:Generated_Source\PSoC4/CapSense_CSHL.c **** * Side Effects:
1225:Generated_Source\PSoC4/CapSense_CSHL.c **** *  None
1226:Generated_Source\PSoC4/CapSense_CSHL.c **** *
1227:Generated_Source\PSoC4/CapSense_CSHL.c **** *******************************************************************************/
1228:Generated_Source\PSoC4/CapSense_CSHL.c **** uint32 CapSense_CheckIsAnyWidgetActive(void)
1229:Generated_Source\PSoC4/CapSense_CSHL.c **** {
 1174              		.loc 1 1229 0
 1175              		.cfi_startproc
 1176              		@ args = 0, pretend = 0, frame = 0
 1177              		@ frame_needed = 0, uses_anonymous_args = 0
 1178 0000 70B5     		push	{r4, r5, r6, lr}
 1179              		.cfi_def_cfa_offset 16
 1180              		.cfi_offset 4, -16
 1181              		.cfi_offset 5, -12
 1182              		.cfi_offset 6, -8
 1183              		.cfi_offset 14, -4
 1184              	.LVL116:
1230:Generated_Source\PSoC4/CapSense_CSHL.c **** 
1231:Generated_Source\PSoC4/CapSense_CSHL.c ****         uint32 i;
1232:Generated_Source\PSoC4/CapSense_CSHL.c ****     uint32 state = 0u;
 1185              		.loc 1 1232 0
 1186 0002 0025     		movs	r5, #0
1233:Generated_Source\PSoC4/CapSense_CSHL.c ****     
1234:Generated_Source\PSoC4/CapSense_CSHL.c ****     for(i = 0u; i < CapSense_TOTAL_WIDGET_COUNT; i++)
 1187              		.loc 1 1234 0
 1188 0004 0024     		movs	r4, #0
 1189 0006 06E0     		b	.L97
 1190              	.LVL117:
 1191              	.L99:
1235:Generated_Source\PSoC4/CapSense_CSHL.c ****     {
1236:Generated_Source\PSoC4/CapSense_CSHL.c ****         if (CapSense_CheckIsWidgetActive(i) != 0u)
 1192              		.loc 1 1236 0
 1193 0008 2000     		movs	r0, r4
 1194 000a FFF7FEFF 		bl	CapSense_CheckIsWidgetActive
 1195              	.LVL118:
 1196 000e 0028     		cmp	r0, #0
 1197 0010 00D0     		beq	.L98
1237:Generated_Source\PSoC4/CapSense_CSHL.c ****         {
1238:Generated_Source\PSoC4/CapSense_CSHL.c ****             state = CapSense_WIDGET_IS_ACTIVE;
 1198              		.loc 1 1238 0
 1199 0012 0125     		movs	r5, #1
 1200              	.LVL119:
 1201              	.L98:
1234:Generated_Source\PSoC4/CapSense_CSHL.c ****     {
 1202              		.loc 1 1234 0 discriminator 2
 1203 0014 0134     		adds	r4, r4, #1
ARM GAS  C:\Users\jagumiel\AppData\Local\Temp\ccx0gHK6.s 			page 44


 1204              	.LVL120:
 1205              	.L97:
1234:Generated_Source\PSoC4/CapSense_CSHL.c ****     {
 1206              		.loc 1 1234 0 is_stmt 0 discriminator 1
 1207 0016 012C     		cmp	r4, #1
 1208 0018 F6D9     		bls	.L99
1239:Generated_Source\PSoC4/CapSense_CSHL.c ****         }
1240:Generated_Source\PSoC4/CapSense_CSHL.c ****     }
1241:Generated_Source\PSoC4/CapSense_CSHL.c ****     
1242:Generated_Source\PSoC4/CapSense_CSHL.c **** 
1243:Generated_Source\PSoC4/CapSense_CSHL.c **** 
1244:Generated_Source\PSoC4/CapSense_CSHL.c ****     return state;
1245:Generated_Source\PSoC4/CapSense_CSHL.c **** }
 1209              		.loc 1 1245 0 is_stmt 1
 1210 001a 2800     		movs	r0, r5
 1211              		@ sp needed
 1212              	.LVL121:
 1213              	.LVL122:
 1214 001c 70BD     		pop	{r4, r5, r6, pc}
 1215              		.cfi_endproc
 1216              	.LFE58:
 1217              		.size	CapSense_CheckIsAnyWidgetActive, .-CapSense_CheckIsAnyWidgetActive
 1218 001e C046     		.section	.text.CapSense_EnableWidget,"ax",%progbits
 1219              		.align	2
 1220              		.global	CapSense_EnableWidget
 1221              		.code	16
 1222              		.thumb_func
 1223              		.type	CapSense_EnableWidget, %function
 1224              	CapSense_EnableWidget:
 1225              	.LFB59:
1246:Generated_Source\PSoC4/CapSense_CSHL.c **** 
1247:Generated_Source\PSoC4/CapSense_CSHL.c **** 
1248:Generated_Source\PSoC4/CapSense_CSHL.c **** /*******************************************************************************
1249:Generated_Source\PSoC4/CapSense_CSHL.c **** * Function Name: CapSense_EnableWidget
1250:Generated_Source\PSoC4/CapSense_CSHL.c **** ********************************************************************************
1251:Generated_Source\PSoC4/CapSense_CSHL.c **** *
1252:Generated_Source\PSoC4/CapSense_CSHL.c **** * Summary:
1253:Generated_Source\PSoC4/CapSense_CSHL.c **** *  Enables all the widget elements (sensors) to the scanning process.
1254:Generated_Source\PSoC4/CapSense_CSHL.c **** *
1255:Generated_Source\PSoC4/CapSense_CSHL.c **** * Parameters:
1256:Generated_Source\PSoC4/CapSense_CSHL.c **** *  widget:  widget number.
1257:Generated_Source\PSoC4/CapSense_CSHL.c **** *
1258:Generated_Source\PSoC4/CapSense_CSHL.c **** * Return:
1259:Generated_Source\PSoC4/CapSense_CSHL.c **** *  None
1260:Generated_Source\PSoC4/CapSense_CSHL.c **** *
1261:Generated_Source\PSoC4/CapSense_CSHL.c **** * Global Variables:
1262:Generated_Source\PSoC4/CapSense_CSHL.c **** *  CapSense_sensorEnableMask[] - used to store the sensor scanning
1263:Generated_Source\PSoC4/CapSense_CSHL.c **** *  state.
1264:Generated_Source\PSoC4/CapSense_CSHL.c **** *  CapSense_sensorEnableMask[0] contains the masked bits for sensors
1265:Generated_Source\PSoC4/CapSense_CSHL.c **** *  0 through 7 (sensor 0 is bit 0, sensor 1 is bit 1).
1266:Generated_Source\PSoC4/CapSense_CSHL.c **** *  CapSense_sensorEnableMask[1] contains the masked bits for
1267:Generated_Source\PSoC4/CapSense_CSHL.c **** *  sensors 8 through 15 (if needed), and so on.
1268:Generated_Source\PSoC4/CapSense_CSHL.c **** *  0 - sensor doesn't scan by CapSense_ScanEnabledWidgets().
1269:Generated_Source\PSoC4/CapSense_CSHL.c **** *  1 - sensor scans by CapSense_ScanEnabledWidgets().
1270:Generated_Source\PSoC4/CapSense_CSHL.c **** *
1271:Generated_Source\PSoC4/CapSense_CSHL.c **** * Side Effects:
1272:Generated_Source\PSoC4/CapSense_CSHL.c **** *  None
ARM GAS  C:\Users\jagumiel\AppData\Local\Temp\ccx0gHK6.s 			page 45


1273:Generated_Source\PSoC4/CapSense_CSHL.c **** *
1274:Generated_Source\PSoC4/CapSense_CSHL.c **** *******************************************************************************/
1275:Generated_Source\PSoC4/CapSense_CSHL.c **** void CapSense_EnableWidget(uint32 widget)
1276:Generated_Source\PSoC4/CapSense_CSHL.c **** {
 1226              		.loc 1 1276 0
 1227              		.cfi_startproc
 1228              		@ args = 0, pretend = 0, frame = 0
 1229              		@ frame_needed = 0, uses_anonymous_args = 0
 1230              	.LVL123:
 1231 0000 70B5     		push	{r4, r5, r6, lr}
 1232              		.cfi_def_cfa_offset 16
 1233              		.cfi_offset 4, -16
 1234              		.cfi_offset 5, -12
 1235              		.cfi_offset 6, -8
 1236              		.cfi_offset 14, -4
1277:Generated_Source\PSoC4/CapSense_CSHL.c **** 
1278:Generated_Source\PSoC4/CapSense_CSHL.c ****     uint8 rawIndex = CapSense_rawDataIndex[widget];
 1237              		.loc 1 1278 0
 1238 0002 084B     		ldr	r3, .L103
 1239 0004 1A18     		adds	r2, r3, r0
 1240 0006 1479     		ldrb	r4, [r2, #4]
 1241              	.LVL124:
1279:Generated_Source\PSoC4/CapSense_CSHL.c ****     uint8 numOfSensors = CapSense_numberOfSensors[widget] + rawIndex;
 1242              		.loc 1 1279 0
 1243 0008 1D5C     		ldrb	r5, [r3, r0]
 1244 000a 6519     		adds	r5, r4, r5
 1245 000c EDB2     		uxtb	r5, r5
 1246              	.LVL125:
 1247              	.L102:
1280:Generated_Source\PSoC4/CapSense_CSHL.c **** 
1281:Generated_Source\PSoC4/CapSense_CSHL.c ****     /* Enable all sensors of widget */
1282:Generated_Source\PSoC4/CapSense_CSHL.c ****     do
1283:Generated_Source\PSoC4/CapSense_CSHL.c ****     {
1284:Generated_Source\PSoC4/CapSense_CSHL.c ****         CapSense_SetBitValue(CapSense_sensorEnableMask, (uint32)rawIndex, 1u);
 1248              		.loc 1 1284 0 discriminator 1
 1249 000e 0122     		movs	r2, #1
 1250 0010 2100     		movs	r1, r4
 1251 0012 0548     		ldr	r0, .L103+4
 1252 0014 FFF7FEFF 		bl	CapSense_SetBitValue
 1253              	.LVL126:
1285:Generated_Source\PSoC4/CapSense_CSHL.c ****         rawIndex++;
 1254              		.loc 1 1285 0 discriminator 1
 1255 0018 0134     		adds	r4, r4, #1
 1256              	.LVL127:
 1257 001a E4B2     		uxtb	r4, r4
 1258              	.LVL128:
1286:Generated_Source\PSoC4/CapSense_CSHL.c ****     }
1287:Generated_Source\PSoC4/CapSense_CSHL.c ****     while(rawIndex < numOfSensors);
 1259              		.loc 1 1287 0 discriminator 1
 1260 001c A542     		cmp	r5, r4
 1261 001e F6D8     		bhi	.L102
1288:Generated_Source\PSoC4/CapSense_CSHL.c **** }
 1262              		.loc 1 1288 0
 1263              		@ sp needed
 1264              	.LVL129:
 1265              	.LVL130:
 1266 0020 70BD     		pop	{r4, r5, r6, pc}
ARM GAS  C:\Users\jagumiel\AppData\Local\Temp\ccx0gHK6.s 			page 46


 1267              	.L104:
 1268 0022 C046     		.align	2
 1269              	.L103:
 1270 0024 00000000 		.word	.LANCHOR2
 1271 0028 00000000 		.word	CapSense_sensorEnableMask
 1272              		.cfi_endproc
 1273              	.LFE59:
 1274              		.size	CapSense_EnableWidget, .-CapSense_EnableWidget
 1275              		.section	.text.CapSense_DisableWidget,"ax",%progbits
 1276              		.align	2
 1277              		.global	CapSense_DisableWidget
 1278              		.code	16
 1279              		.thumb_func
 1280              		.type	CapSense_DisableWidget, %function
 1281              	CapSense_DisableWidget:
 1282              	.LFB60:
1289:Generated_Source\PSoC4/CapSense_CSHL.c **** 
1290:Generated_Source\PSoC4/CapSense_CSHL.c **** 
1291:Generated_Source\PSoC4/CapSense_CSHL.c **** /*******************************************************************************
1292:Generated_Source\PSoC4/CapSense_CSHL.c **** * Function Name: CapSense_DisableWidget
1293:Generated_Source\PSoC4/CapSense_CSHL.c **** ********************************************************************************
1294:Generated_Source\PSoC4/CapSense_CSHL.c **** *
1295:Generated_Source\PSoC4/CapSense_CSHL.c **** * Summary:
1296:Generated_Source\PSoC4/CapSense_CSHL.c **** *  Disables all the widget elements (sensors) from the scanning process.
1297:Generated_Source\PSoC4/CapSense_CSHL.c **** *
1298:Generated_Source\PSoC4/CapSense_CSHL.c **** * Parameters:
1299:Generated_Source\PSoC4/CapSense_CSHL.c **** *  widget:  widget number.
1300:Generated_Source\PSoC4/CapSense_CSHL.c **** *
1301:Generated_Source\PSoC4/CapSense_CSHL.c **** * Return:
1302:Generated_Source\PSoC4/CapSense_CSHL.c **** *  None
1303:Generated_Source\PSoC4/CapSense_CSHL.c **** *
1304:Generated_Source\PSoC4/CapSense_CSHL.c **** * Global Variables:
1305:Generated_Source\PSoC4/CapSense_CSHL.c **** *  CapSense_sensorEnableMask[] - used to store the sensor scanning
1306:Generated_Source\PSoC4/CapSense_CSHL.c **** *  state.
1307:Generated_Source\PSoC4/CapSense_CSHL.c **** *  CapSense_sensorEnableMask[0] contains the masked bits for sensors
1308:Generated_Source\PSoC4/CapSense_CSHL.c **** *  0 through 7 (sensor 0 is bit 0, sensor 1 is bit 1).
1309:Generated_Source\PSoC4/CapSense_CSHL.c **** *  CapSense_sensorEnableMask[1] contains the masked bits for
1310:Generated_Source\PSoC4/CapSense_CSHL.c **** *  sensors 8 through 15 (if needed), and so on.
1311:Generated_Source\PSoC4/CapSense_CSHL.c **** *  0 - sensor isn't scanned by CapSense_ScanEnabledWidgets().
1312:Generated_Source\PSoC4/CapSense_CSHL.c **** *  1 - sensor is scanned by CapSense_ScanEnabledWidgets().
1313:Generated_Source\PSoC4/CapSense_CSHL.c **** *
1314:Generated_Source\PSoC4/CapSense_CSHL.c **** * Side Effects:
1315:Generated_Source\PSoC4/CapSense_CSHL.c **** *  None
1316:Generated_Source\PSoC4/CapSense_CSHL.c **** *
1317:Generated_Source\PSoC4/CapSense_CSHL.c **** *******************************************************************************/
1318:Generated_Source\PSoC4/CapSense_CSHL.c **** void CapSense_DisableWidget(uint32 widget)
1319:Generated_Source\PSoC4/CapSense_CSHL.c **** {
 1283              		.loc 1 1319 0
 1284              		.cfi_startproc
 1285              		@ args = 0, pretend = 0, frame = 0
 1286              		@ frame_needed = 0, uses_anonymous_args = 0
 1287              	.LVL131:
 1288 0000 70B5     		push	{r4, r5, r6, lr}
 1289              		.cfi_def_cfa_offset 16
 1290              		.cfi_offset 4, -16
 1291              		.cfi_offset 5, -12
 1292              		.cfi_offset 6, -8
ARM GAS  C:\Users\jagumiel\AppData\Local\Temp\ccx0gHK6.s 			page 47


 1293              		.cfi_offset 14, -4
1320:Generated_Source\PSoC4/CapSense_CSHL.c ****     uint8 rawIndex = CapSense_rawDataIndex[widget];
 1294              		.loc 1 1320 0
 1295 0002 084B     		ldr	r3, .L107
 1296 0004 1A18     		adds	r2, r3, r0
 1297 0006 1479     		ldrb	r4, [r2, #4]
 1298              	.LVL132:
1321:Generated_Source\PSoC4/CapSense_CSHL.c ****     uint8 numOfSensors = CapSense_numberOfSensors[widget] + rawIndex;
 1299              		.loc 1 1321 0
 1300 0008 1D5C     		ldrb	r5, [r3, r0]
 1301 000a 6519     		adds	r5, r4, r5
 1302 000c EDB2     		uxtb	r5, r5
 1303              	.LVL133:
 1304              	.L106:
1322:Generated_Source\PSoC4/CapSense_CSHL.c **** 
1323:Generated_Source\PSoC4/CapSense_CSHL.c ****     /* Disable all sensors of widget */
1324:Generated_Source\PSoC4/CapSense_CSHL.c ****     do
1325:Generated_Source\PSoC4/CapSense_CSHL.c ****     {
1326:Generated_Source\PSoC4/CapSense_CSHL.c **** 
1327:Generated_Source\PSoC4/CapSense_CSHL.c ****         CapSense_SetBitValue(CapSense_sensorEnableMask, (uint32)rawIndex, 0u);
 1305              		.loc 1 1327 0 discriminator 1
 1306 000e 0022     		movs	r2, #0
 1307 0010 2100     		movs	r1, r4
 1308 0012 0548     		ldr	r0, .L107+4
 1309 0014 FFF7FEFF 		bl	CapSense_SetBitValue
 1310              	.LVL134:
1328:Generated_Source\PSoC4/CapSense_CSHL.c ****         rawIndex++;
 1311              		.loc 1 1328 0 discriminator 1
 1312 0018 0134     		adds	r4, r4, #1
 1313              	.LVL135:
 1314 001a E4B2     		uxtb	r4, r4
 1315              	.LVL136:
1329:Generated_Source\PSoC4/CapSense_CSHL.c ****     }
1330:Generated_Source\PSoC4/CapSense_CSHL.c ****     while(rawIndex < numOfSensors);
 1316              		.loc 1 1330 0 discriminator 1
 1317 001c A542     		cmp	r5, r4
 1318 001e F6D8     		bhi	.L106
1331:Generated_Source\PSoC4/CapSense_CSHL.c **** }
 1319              		.loc 1 1331 0
 1320              		@ sp needed
 1321              	.LVL137:
 1322              	.LVL138:
 1323 0020 70BD     		pop	{r4, r5, r6, pc}
 1324              	.L108:
 1325 0022 C046     		.align	2
 1326              	.L107:
 1327 0024 00000000 		.word	.LANCHOR2
 1328 0028 00000000 		.word	CapSense_sensorEnableMask
 1329              		.cfi_endproc
 1330              	.LFE60:
 1331              		.size	CapSense_DisableWidget, .-CapSense_DisableWidget
 1332              		.section	.text.CapSense_MedianFilter,"ax",%progbits
 1333              		.align	2
 1334              		.global	CapSense_MedianFilter
 1335              		.code	16
 1336              		.thumb_func
 1337              		.type	CapSense_MedianFilter, %function
ARM GAS  C:\Users\jagumiel\AppData\Local\Temp\ccx0gHK6.s 			page 48


 1338              	CapSense_MedianFilter:
 1339              	.LFB61:
1332:Generated_Source\PSoC4/CapSense_CSHL.c **** 
1333:Generated_Source\PSoC4/CapSense_CSHL.c **** 
1334:Generated_Source\PSoC4/CapSense_CSHL.c **** #if(CapSense_TOTAL_CENTROIDS_BASIC_COUNT)
1335:Generated_Source\PSoC4/CapSense_CSHL.c ****     /*******************************************************************************
1336:Generated_Source\PSoC4/CapSense_CSHL.c ****     * Function Name: CapSense_FindMaximum
1337:Generated_Source\PSoC4/CapSense_CSHL.c ****     ********************************************************************************
1338:Generated_Source\PSoC4/CapSense_CSHL.c ****     *
1339:Generated_Source\PSoC4/CapSense_CSHL.c ****     * Summary:
1340:Generated_Source\PSoC4/CapSense_CSHL.c ****     *  Finds the index of the maximum element within a defined centroid. Checks
1341:Generated_Source\PSoC4/CapSense_CSHL.c ****     *  CapSense_sensorSignal[] within a defined centroid and
1342:Generated_Source\PSoC4/CapSense_CSHL.c ****     *  returns the index of the maximum element. The values below the finger threshold are
1343:Generated_Source\PSoC4/CapSense_CSHL.c ****     *  ignored.
1344:Generated_Source\PSoC4/CapSense_CSHL.c ****     *  The centroid is defined by offset of the first element and a number of elements - count.
1345:Generated_Source\PSoC4/CapSense_CSHL.c ****     *  The diplexed centroid requires at least two consecutive elements above
1346:Generated_Source\PSoC4/CapSense_CSHL.c ****     *  FingerThreshold to find the index of the maximum element.
1347:Generated_Source\PSoC4/CapSense_CSHL.c ****     *
1348:Generated_Source\PSoC4/CapSense_CSHL.c ****     * Parameters:
1349:Generated_Source\PSoC4/CapSense_CSHL.c ****     *  offset:  Start index of centroid in CapSense_sensorSignal[] array.
1350:Generated_Source\PSoC4/CapSense_CSHL.c ****     *  count:   number of elements within centroid.
1351:Generated_Source\PSoC4/CapSense_CSHL.c ****     *  fingerThreshold:  Finger threshold.
1352:Generated_Source\PSoC4/CapSense_CSHL.c ****     *  diplex:   pointer to diplex table.
1353:Generated_Source\PSoC4/CapSense_CSHL.c ****     *
1354:Generated_Source\PSoC4/CapSense_CSHL.c ****     * Return:
1355:Generated_Source\PSoC4/CapSense_CSHL.c ****     *  Returns the index of the maximum element within a defined centroid.
1356:Generated_Source\PSoC4/CapSense_CSHL.c ****     *  If the index of the maximum element isn't found it returns 0xFF.
1357:Generated_Source\PSoC4/CapSense_CSHL.c ****     *
1358:Generated_Source\PSoC4/CapSense_CSHL.c ****     * Global Variables:
1359:Generated_Source\PSoC4/CapSense_CSHL.c ****     *  CapSense_startOfSlider[] - contains the index of the first slider element
1360:Generated_Source\PSoC4/CapSense_CSHL.c ****     *
1361:Generated_Source\PSoC4/CapSense_CSHL.c ****     * Side Effects:
1362:Generated_Source\PSoC4/CapSense_CSHL.c ****     *  None
1363:Generated_Source\PSoC4/CapSense_CSHL.c ****     *
1364:Generated_Source\PSoC4/CapSense_CSHL.c ****     *******************************************************************************/
1365:Generated_Source\PSoC4/CapSense_CSHL.c ****     #if (CapSense_IS_DIPLEX_SLIDER)
1366:Generated_Source\PSoC4/CapSense_CSHL.c ****         uint8 CapSense_FindMaximum(uint8 offset, uint8 count, uint8 fingerThreshold, const uint8 *d
1367:Generated_Source\PSoC4/CapSense_CSHL.c ****     #else
1368:Generated_Source\PSoC4/CapSense_CSHL.c ****         uint8 CapSense_FindMaximum(uint8 offset, uint8 count, uint8 fingerThreshold)
1369:Generated_Source\PSoC4/CapSense_CSHL.c ****     #endif /* (CapSense_IS_DIPLEX_SLIDER) */
1370:Generated_Source\PSoC4/CapSense_CSHL.c ****     {
1371:Generated_Source\PSoC4/CapSense_CSHL.c ****         uint8 i;
1372:Generated_Source\PSoC4/CapSense_CSHL.c ****         #if (CapSense_IS_DIPLEX_SLIDER)
1373:Generated_Source\PSoC4/CapSense_CSHL.c ****             uint8 curPos = 0u;
1374:Generated_Source\PSoC4/CapSense_CSHL.c ****             /* No centroid at Start */
1375:Generated_Source\PSoC4/CapSense_CSHL.c ****             uint8 curCntrdSize = 0u;
1376:Generated_Source\PSoC4/CapSense_CSHL.c ****             uint8 curCtrdStartPos = CapSense_MAXIMUM_CENTROID;
1377:Generated_Source\PSoC4/CapSense_CSHL.c ****             /* Biggest centroid is zero */
1378:Generated_Source\PSoC4/CapSense_CSHL.c ****             uint8 biggestCtrdSize = 0u;
1379:Generated_Source\PSoC4/CapSense_CSHL.c ****             uint8 biggestCtrdStartPos = 0u;
1380:Generated_Source\PSoC4/CapSense_CSHL.c ****         #endif /* (CapSense_IS_DIPLEX_SLIDER) */
1381:Generated_Source\PSoC4/CapSense_CSHL.c ****         uint8 maximum = CapSense_MAXIMUM_CENTROID;
1382:Generated_Source\PSoC4/CapSense_CSHL.c **** 
1383:Generated_Source\PSoC4/CapSense_CSHL.c ****         uint8 temp = 0u;
1384:Generated_Source\PSoC4/CapSense_CSHL.c ****         uint8 *startOfSlider = &CapSense_sensorSignal[offset];
1385:Generated_Source\PSoC4/CapSense_CSHL.c **** 
1386:Generated_Source\PSoC4/CapSense_CSHL.c ****         #if (CapSense_IS_DIPLEX_SLIDER)
ARM GAS  C:\Users\jagumiel\AppData\Local\Temp\ccx0gHK6.s 			page 49


1387:Generated_Source\PSoC4/CapSense_CSHL.c ****             if(diplex != 0u)
1388:Generated_Source\PSoC4/CapSense_CSHL.c ****             {
1389:Generated_Source\PSoC4/CapSense_CSHL.c ****                 /* Initialize */
1390:Generated_Source\PSoC4/CapSense_CSHL.c ****                 i = 0u;
1391:Generated_Source\PSoC4/CapSense_CSHL.c **** 
1392:Generated_Source\PSoC4/CapSense_CSHL.c ****                 /* Make slider x2 as Diplexed */
1393:Generated_Source\PSoC4/CapSense_CSHL.c ****                 count <<= 1u;
1394:Generated_Source\PSoC4/CapSense_CSHL.c ****                 while(1u)
1395:Generated_Source\PSoC4/CapSense_CSHL.c ****                 {
1396:Generated_Source\PSoC4/CapSense_CSHL.c ****                     if (startOfSlider[curPos] > 0u)    /* Looking for centroids */
1397:Generated_Source\PSoC4/CapSense_CSHL.c ****                     {
1398:Generated_Source\PSoC4/CapSense_CSHL.c ****                         if (curCtrdStartPos == CapSense_MAXIMUM_CENTROID)
1399:Generated_Source\PSoC4/CapSense_CSHL.c ****                         {
1400:Generated_Source\PSoC4/CapSense_CSHL.c ****                             /* Start of centroid */
1401:Generated_Source\PSoC4/CapSense_CSHL.c ****                             curCtrdStartPos = i;
1402:Generated_Source\PSoC4/CapSense_CSHL.c ****                             curCntrdSize++;
1403:Generated_Source\PSoC4/CapSense_CSHL.c ****                         }
1404:Generated_Source\PSoC4/CapSense_CSHL.c ****                         else
1405:Generated_Source\PSoC4/CapSense_CSHL.c ****                         {
1406:Generated_Source\PSoC4/CapSense_CSHL.c ****                             curCntrdSize++;
1407:Generated_Source\PSoC4/CapSense_CSHL.c ****                         }
1408:Generated_Source\PSoC4/CapSense_CSHL.c ****                     }
1409:Generated_Source\PSoC4/CapSense_CSHL.c ****                     else   /* Select biggest and indicate zero start */
1410:Generated_Source\PSoC4/CapSense_CSHL.c ****                     {
1411:Generated_Source\PSoC4/CapSense_CSHL.c ****                         if(curCntrdSize > 0u)
1412:Generated_Source\PSoC4/CapSense_CSHL.c ****                         {
1413:Generated_Source\PSoC4/CapSense_CSHL.c ****                             /* We are at the end of current */
1414:Generated_Source\PSoC4/CapSense_CSHL.c ****                             if(curCntrdSize > biggestCtrdSize)
1415:Generated_Source\PSoC4/CapSense_CSHL.c ****                             {
1416:Generated_Source\PSoC4/CapSense_CSHL.c ****                                 biggestCtrdSize = curCntrdSize;
1417:Generated_Source\PSoC4/CapSense_CSHL.c ****                                 biggestCtrdStartPos = curCtrdStartPos;
1418:Generated_Source\PSoC4/CapSense_CSHL.c ****                             }
1419:Generated_Source\PSoC4/CapSense_CSHL.c **** 
1420:Generated_Source\PSoC4/CapSense_CSHL.c ****                             curCntrdSize = 0u;
1421:Generated_Source\PSoC4/CapSense_CSHL.c ****                             curCtrdStartPos = CapSense_MAXIMUM_CENTROID;
1422:Generated_Source\PSoC4/CapSense_CSHL.c ****                         }
1423:Generated_Source\PSoC4/CapSense_CSHL.c ****                     }
1424:Generated_Source\PSoC4/CapSense_CSHL.c **** 
1425:Generated_Source\PSoC4/CapSense_CSHL.c ****                     i++;
1426:Generated_Source\PSoC4/CapSense_CSHL.c ****                     curPos = diplex[i];
1427:Generated_Source\PSoC4/CapSense_CSHL.c ****                     if(i == count)
1428:Generated_Source\PSoC4/CapSense_CSHL.c ****                     {
1429:Generated_Source\PSoC4/CapSense_CSHL.c ****                         break;
1430:Generated_Source\PSoC4/CapSense_CSHL.c ****                     }
1431:Generated_Source\PSoC4/CapSense_CSHL.c ****                 }
1432:Generated_Source\PSoC4/CapSense_CSHL.c **** 
1433:Generated_Source\PSoC4/CapSense_CSHL.c ****                     /* Find biggest centroid if two are same size, last one wins
1434:Generated_Source\PSoC4/CapSense_CSHL.c ****                        We are at the end of current */
1435:Generated_Source\PSoC4/CapSense_CSHL.c ****                 if (curCntrdSize >= biggestCtrdSize)
1436:Generated_Source\PSoC4/CapSense_CSHL.c ****                 {
1437:Generated_Source\PSoC4/CapSense_CSHL.c ****                     biggestCtrdSize = curCntrdSize;
1438:Generated_Source\PSoC4/CapSense_CSHL.c ****                     biggestCtrdStartPos = curCtrdStartPos;
1439:Generated_Source\PSoC4/CapSense_CSHL.c ****                 }
1440:Generated_Source\PSoC4/CapSense_CSHL.c ****             }
1441:Generated_Source\PSoC4/CapSense_CSHL.c ****             else
1442:Generated_Source\PSoC4/CapSense_CSHL.c ****             {
1443:Generated_Source\PSoC4/CapSense_CSHL.c ****                 /* Without diplexing */
ARM GAS  C:\Users\jagumiel\AppData\Local\Temp\ccx0gHK6.s 			page 50


1444:Generated_Source\PSoC4/CapSense_CSHL.c ****                 biggestCtrdSize = count;
1445:Generated_Source\PSoC4/CapSense_CSHL.c ****             }
1446:Generated_Source\PSoC4/CapSense_CSHL.c **** 
1447:Generated_Source\PSoC4/CapSense_CSHL.c **** 
1448:Generated_Source\PSoC4/CapSense_CSHL.c ****             /* Check centroid size */
1449:Generated_Source\PSoC4/CapSense_CSHL.c ****             #if (CapSense_IS_NON_DIPLEX_SLIDER)
1450:Generated_Source\PSoC4/CapSense_CSHL.c ****                 if((biggestCtrdSize >= 2u) || ((biggestCtrdSize == 1u) && (diplex == 0u)))
1451:Generated_Source\PSoC4/CapSense_CSHL.c ****             #else
1452:Generated_Source\PSoC4/CapSense_CSHL.c ****                 if(biggestCtrdSize >= 2u)
1453:Generated_Source\PSoC4/CapSense_CSHL.c ****             #endif /* (CapSense_IS_NON_DIPLEX_SLIDER) */
1454:Generated_Source\PSoC4/CapSense_CSHL.c ****                 {
1455:Generated_Source\PSoC4/CapSense_CSHL.c ****                     for (i = biggestCtrdStartPos; i < (biggestCtrdStartPos + biggestCtrdSize); i++)
1456:Generated_Source\PSoC4/CapSense_CSHL.c ****                     {
1457:Generated_Source\PSoC4/CapSense_CSHL.c ****                         #if (CapSense_IS_DIPLEX_SLIDER && CapSense_IS_NON_DIPLEX_SLIDER)
1458:Generated_Source\PSoC4/CapSense_CSHL.c ****                             if (diplex == 0u)
1459:Generated_Source\PSoC4/CapSense_CSHL.c ****                             {
1460:Generated_Source\PSoC4/CapSense_CSHL.c ****                                 curPos = i;
1461:Generated_Source\PSoC4/CapSense_CSHL.c ****                             }
1462:Generated_Source\PSoC4/CapSense_CSHL.c ****                             else
1463:Generated_Source\PSoC4/CapSense_CSHL.c ****                             {
1464:Generated_Source\PSoC4/CapSense_CSHL.c ****                                 curPos = diplex[i];
1465:Generated_Source\PSoC4/CapSense_CSHL.c ****                             }
1466:Generated_Source\PSoC4/CapSense_CSHL.c ****                         #elif (CapSense_IS_DIPLEX_SLIDER)
1467:Generated_Source\PSoC4/CapSense_CSHL.c ****                             curPos = diplex[i];
1468:Generated_Source\PSoC4/CapSense_CSHL.c ****                         #endif /* (CapSense_IS_DIPLEX_SLIDER && CapSense_IS_NON_DIPLEX_SLIDER) */
1469:Generated_Source\PSoC4/CapSense_CSHL.c ****                         /* Looking for greater element within centroid */
1470:Generated_Source\PSoC4/CapSense_CSHL.c ****                         if(startOfSlider[curPos] > fingerThreshold)
1471:Generated_Source\PSoC4/CapSense_CSHL.c ****                         {
1472:Generated_Source\PSoC4/CapSense_CSHL.c ****                             if(startOfSlider[curPos] > temp)
1473:Generated_Source\PSoC4/CapSense_CSHL.c ****                             {
1474:Generated_Source\PSoC4/CapSense_CSHL.c ****                                 maximum = i;
1475:Generated_Source\PSoC4/CapSense_CSHL.c ****                                 temp = startOfSlider[curPos];
1476:Generated_Source\PSoC4/CapSense_CSHL.c ****                             }
1477:Generated_Source\PSoC4/CapSense_CSHL.c ****                         }
1478:Generated_Source\PSoC4/CapSense_CSHL.c ****                     }
1479:Generated_Source\PSoC4/CapSense_CSHL.c ****                 }
1480:Generated_Source\PSoC4/CapSense_CSHL.c ****         #else
1481:Generated_Source\PSoC4/CapSense_CSHL.c ****             for (i = 0u; i < count; i++)
1482:Generated_Source\PSoC4/CapSense_CSHL.c ****             {
1483:Generated_Source\PSoC4/CapSense_CSHL.c ****                 /* Looking for greater element within centroid */
1484:Generated_Source\PSoC4/CapSense_CSHL.c ****                 if(startOfSlider[i] > fingerThreshold)
1485:Generated_Source\PSoC4/CapSense_CSHL.c ****                 {
1486:Generated_Source\PSoC4/CapSense_CSHL.c ****                     if(startOfSlider[i] > temp)
1487:Generated_Source\PSoC4/CapSense_CSHL.c ****                     {
1488:Generated_Source\PSoC4/CapSense_CSHL.c ****                         maximum = i;
1489:Generated_Source\PSoC4/CapSense_CSHL.c ****                         temp = startOfSlider[i];
1490:Generated_Source\PSoC4/CapSense_CSHL.c ****                     }
1491:Generated_Source\PSoC4/CapSense_CSHL.c ****                 }
1492:Generated_Source\PSoC4/CapSense_CSHL.c ****             }
1493:Generated_Source\PSoC4/CapSense_CSHL.c ****         #endif /* (CapSense_IS_DIPLEX_SLIDER) */
1494:Generated_Source\PSoC4/CapSense_CSHL.c ****         return (maximum);
1495:Generated_Source\PSoC4/CapSense_CSHL.c ****     }
1496:Generated_Source\PSoC4/CapSense_CSHL.c **** 
1497:Generated_Source\PSoC4/CapSense_CSHL.c **** 
1498:Generated_Source\PSoC4/CapSense_CSHL.c ****     /*******************************************************************************
1499:Generated_Source\PSoC4/CapSense_CSHL.c ****     * Function Name: CapSense_CalcCentroid
1500:Generated_Source\PSoC4/CapSense_CSHL.c ****     ********************************************************************************
ARM GAS  C:\Users\jagumiel\AppData\Local\Temp\ccx0gHK6.s 			page 51


1501:Generated_Source\PSoC4/CapSense_CSHL.c ****     *
1502:Generated_Source\PSoC4/CapSense_CSHL.c ****     * Summary:
1503:Generated_Source\PSoC4/CapSense_CSHL.c ****     *  Returns a position value calculated according to the index of the maximum element and API
1504:Generated_Source\PSoC4/CapSense_CSHL.c ****     *  resolution.
1505:Generated_Source\PSoC4/CapSense_CSHL.c ****     *
1506:Generated_Source\PSoC4/CapSense_CSHL.c ****     * Parameters:
1507:Generated_Source\PSoC4/CapSense_CSHL.c ****     *  type:  widget type.
1508:Generated_Source\PSoC4/CapSense_CSHL.c ****     *  diplex:  pointer to diplex table.
1509:Generated_Source\PSoC4/CapSense_CSHL.c ****     *  maximum:  Index of maximum element within centroid.
1510:Generated_Source\PSoC4/CapSense_CSHL.c ****     *  offset:   Start index of centroid in CapSense_sensorSignal[] array.
1511:Generated_Source\PSoC4/CapSense_CSHL.c ****     *  count:    Number of elements within centroid.
1512:Generated_Source\PSoC4/CapSense_CSHL.c ****     *  resolution:  multiplicator calculated according to centroid type and
1513:Generated_Source\PSoC4/CapSense_CSHL.c ****     *  API resolution.
1514:Generated_Source\PSoC4/CapSense_CSHL.c ****     *  noiseThreshold:  Noise threshold.
1515:Generated_Source\PSoC4/CapSense_CSHL.c ****     *
1516:Generated_Source\PSoC4/CapSense_CSHL.c ****     * Return:
1517:Generated_Source\PSoC4/CapSense_CSHL.c ****     *  Returns a position value of the slider.
1518:Generated_Source\PSoC4/CapSense_CSHL.c ****     *
1519:Generated_Source\PSoC4/CapSense_CSHL.c ****     * Side Effects:
1520:Generated_Source\PSoC4/CapSense_CSHL.c ****     *  None
1521:Generated_Source\PSoC4/CapSense_CSHL.c ****     *
1522:Generated_Source\PSoC4/CapSense_CSHL.c ****     *******************************************************************************/
1523:Generated_Source\PSoC4/CapSense_CSHL.c **** #if (CapSense_TOTAL_TRACKPAD_GESTURES_COUNT > 0u)
1524:Generated_Source\PSoC4/CapSense_CSHL.c ****     uint8 CapSense_CalcCentroid(uint8 maximum, uint8 offset,
1525:Generated_Source\PSoC4/CapSense_CSHL.c ****                                         uint8 count, uint32 resolution, uint8 noiseThreshold)
1526:Generated_Source\PSoC4/CapSense_CSHL.c **** #else
1527:Generated_Source\PSoC4/CapSense_CSHL.c ****     uint8 CapSense_CalcCentroid(uint8 maximum, uint8 offset,
1528:Generated_Source\PSoC4/CapSense_CSHL.c ****                                         uint8 count, uint16 resolution, uint8 noiseThreshold)
1529:Generated_Source\PSoC4/CapSense_CSHL.c **** #endif /* (CapSense_TOTAL_TRACKPAD_GESTURES_COUNT > 0u) */
1530:Generated_Source\PSoC4/CapSense_CSHL.c ****     {
1531:Generated_Source\PSoC4/CapSense_CSHL.c ****         #if ((CapSense_TOTAL_LINEAR_SLIDERS_COUNT > 0u) || (CapSense_TOTAL_TOUCH_PADS_BASIC_COUNT >
1532:Generated_Source\PSoC4/CapSense_CSHL.c ****             uint8 posPrev;
1533:Generated_Source\PSoC4/CapSense_CSHL.c ****             uint8 posNext;
1534:Generated_Source\PSoC4/CapSense_CSHL.c ****         #endif /* ((CapSense_TOTAL_LINEAR_SLIDERS_COUNT>0u) || (CapSense_TOTAL_TOUCH_PADS_BASIC_COU
1535:Generated_Source\PSoC4/CapSense_CSHL.c **** 
1536:Generated_Source\PSoC4/CapSense_CSHL.c ****         /* Helps during centroid calculation */
1537:Generated_Source\PSoC4/CapSense_CSHL.c ****         #if (CapSense_TOTAL_CENTROIDS_BASIC_COUNT)
1538:Generated_Source\PSoC4/CapSense_CSHL.c ****             static uint8 CapSense_centroid[3u];
1539:Generated_Source\PSoC4/CapSense_CSHL.c ****         #endif  /* (CapSense_TOTAL_CENTROIDS_BASIC_COUNT) */
1540:Generated_Source\PSoC4/CapSense_CSHL.c **** 
1541:Generated_Source\PSoC4/CapSense_CSHL.c ****         #if (CapSense_IS_DIPLEX_SLIDER)
1542:Generated_Source\PSoC4/CapSense_CSHL.c ****             uint8 pos;
1543:Generated_Source\PSoC4/CapSense_CSHL.c ****         #endif /* (CapSense_IS_DIPLEX_SLIDER) */
1544:Generated_Source\PSoC4/CapSense_CSHL.c **** 
1545:Generated_Source\PSoC4/CapSense_CSHL.c ****         uint8 position;
1546:Generated_Source\PSoC4/CapSense_CSHL.c ****         uint32 numerator;
1547:Generated_Source\PSoC4/CapSense_CSHL.c ****         int32 denominator;
1548:Generated_Source\PSoC4/CapSense_CSHL.c **** 
1549:Generated_Source\PSoC4/CapSense_CSHL.c ****         uint8  *startOfSlider = &CapSense_sensorSignal[offset];
1550:Generated_Source\PSoC4/CapSense_CSHL.c **** 
1551:Generated_Source\PSoC4/CapSense_CSHL.c ****         #if ((CapSense_TOTAL_LINEAR_SLIDERS_COUNT > 0u) || (CapSense_TOTAL_TOUCH_PADS_BASIC_COUNT >
1552:Generated_Source\PSoC4/CapSense_CSHL.c ****             posPrev = 0u;
1553:Generated_Source\PSoC4/CapSense_CSHL.c ****         #endif /* ((CapSense_TOTAL_LINEAR_SLIDERS_COUNT>0u) || (CapSense_TOTAL_TOUCH_PADS_BASIC_COU
1554:Generated_Source\PSoC4/CapSense_CSHL.c **** 
1555:Generated_Source\PSoC4/CapSense_CSHL.c ****         #if (CapSense_ADD_SLIDER_TYPE)
1556:Generated_Source\PSoC4/CapSense_CSHL.c ****             if(type == CapSense_TYPE_RADIAL_SLIDER)
1557:Generated_Source\PSoC4/CapSense_CSHL.c ****             {
ARM GAS  C:\Users\jagumiel\AppData\Local\Temp\ccx0gHK6.s 			page 52


1558:Generated_Source\PSoC4/CapSense_CSHL.c ****         #endif /* (CapSense_ADD_SLIDER_TYPE) */
1559:Generated_Source\PSoC4/CapSense_CSHL.c **** 
1560:Generated_Source\PSoC4/CapSense_CSHL.c ****             #if (CapSense_TOTAL_RADIAL_SLIDERS_COUNT > 0u)
1561:Generated_Source\PSoC4/CapSense_CSHL.c ****                 /* Copy Signal to the centroid array */
1562:Generated_Source\PSoC4/CapSense_CSHL.c ****                 CapSense_centroid[CapSense_POS] = startOfSlider[maximum];
1563:Generated_Source\PSoC4/CapSense_CSHL.c **** 
1564:Generated_Source\PSoC4/CapSense_CSHL.c ****                 /* Check borders for ROTARY Slider */
1565:Generated_Source\PSoC4/CapSense_CSHL.c ****                 if (maximum == 0u)                   /* Start of centroid */
1566:Generated_Source\PSoC4/CapSense_CSHL.c ****                 {
1567:Generated_Source\PSoC4/CapSense_CSHL.c ****                     CapSense_centroid[CapSense_POS_PREV] = startOfSlider[count - 1u];
1568:Generated_Source\PSoC4/CapSense_CSHL.c ****                     CapSense_centroid[CapSense_POS_NEXT] = startOfSlider[1u];
1569:Generated_Source\PSoC4/CapSense_CSHL.c ****                 }
1570:Generated_Source\PSoC4/CapSense_CSHL.c ****                 else if (maximum == (count - 1u))    /* End of centroid */
1571:Generated_Source\PSoC4/CapSense_CSHL.c ****                 {
1572:Generated_Source\PSoC4/CapSense_CSHL.c ****                     CapSense_centroid[CapSense_POS_PREV] = startOfSlider[maximum - 1u];
1573:Generated_Source\PSoC4/CapSense_CSHL.c ****                     CapSense_centroid[CapSense_POS_NEXT] = startOfSlider[0u];
1574:Generated_Source\PSoC4/CapSense_CSHL.c ****                 }
1575:Generated_Source\PSoC4/CapSense_CSHL.c ****                 else                                /* Not first Not last */
1576:Generated_Source\PSoC4/CapSense_CSHL.c ****                 {
1577:Generated_Source\PSoC4/CapSense_CSHL.c ****                     CapSense_centroid[CapSense_POS_PREV] = startOfSlider[maximum - 1u];
1578:Generated_Source\PSoC4/CapSense_CSHL.c ****                     CapSense_centroid[CapSense_POS_NEXT] = startOfSlider[maximum + 1u];
1579:Generated_Source\PSoC4/CapSense_CSHL.c ****                 }
1580:Generated_Source\PSoC4/CapSense_CSHL.c ****             #endif /* (CapSense_TOTAL_RADIAL_SLIDERS_COUNT > 0u) */
1581:Generated_Source\PSoC4/CapSense_CSHL.c **** 
1582:Generated_Source\PSoC4/CapSense_CSHL.c ****         #if (CapSense_ADD_SLIDER_TYPE)
1583:Generated_Source\PSoC4/CapSense_CSHL.c ****             }
1584:Generated_Source\PSoC4/CapSense_CSHL.c ****             else
1585:Generated_Source\PSoC4/CapSense_CSHL.c ****             {
1586:Generated_Source\PSoC4/CapSense_CSHL.c ****         #endif /* (CapSense_ADD_SLIDER_TYPE) */
1587:Generated_Source\PSoC4/CapSense_CSHL.c **** 
1588:Generated_Source\PSoC4/CapSense_CSHL.c ****             #if ((CapSense_TOTAL_LINEAR_SLIDERS_COUNT > 0u) || (CapSense_TOTAL_TOUCH_PADS_BASIC_COU
1589:Generated_Source\PSoC4/CapSense_CSHL.c ****                 #if (CapSense_IS_DIPLEX_SLIDER && CapSense_IS_NON_DIPLEX_SLIDER)
1590:Generated_Source\PSoC4/CapSense_CSHL.c ****                     /* Calculate next and previous near to maximum */
1591:Generated_Source\PSoC4/CapSense_CSHL.c ****                     if(diplex == 0u)
1592:Generated_Source\PSoC4/CapSense_CSHL.c ****                     {
1593:Generated_Source\PSoC4/CapSense_CSHL.c ****                         pos     = maximum;
1594:Generated_Source\PSoC4/CapSense_CSHL.c ****                         posPrev = maximum - 1u;
1595:Generated_Source\PSoC4/CapSense_CSHL.c ****                         posNext = maximum + 1u;
1596:Generated_Source\PSoC4/CapSense_CSHL.c ****                     }
1597:Generated_Source\PSoC4/CapSense_CSHL.c ****                     else
1598:Generated_Source\PSoC4/CapSense_CSHL.c ****                     {
1599:Generated_Source\PSoC4/CapSense_CSHL.c ****                         pos     = diplex[maximum];
1600:Generated_Source\PSoC4/CapSense_CSHL.c ****                         posPrev = diplex[maximum - 1u];
1601:Generated_Source\PSoC4/CapSense_CSHL.c ****                         posNext = diplex[maximum + 1u];
1602:Generated_Source\PSoC4/CapSense_CSHL.c ****                         count <<= 1u;
1603:Generated_Source\PSoC4/CapSense_CSHL.c ****                     }
1604:Generated_Source\PSoC4/CapSense_CSHL.c ****                 #elif (CapSense_IS_DIPLEX_SLIDER)
1605:Generated_Source\PSoC4/CapSense_CSHL.c ****                     /* Calculate next and previous near to maximum */
1606:Generated_Source\PSoC4/CapSense_CSHL.c ****                     pos     = diplex[maximum];
1607:Generated_Source\PSoC4/CapSense_CSHL.c ****                     posPrev = diplex[maximum - 1u];
1608:Generated_Source\PSoC4/CapSense_CSHL.c ****                     posNext = diplex[maximum + 1u];
1609:Generated_Source\PSoC4/CapSense_CSHL.c ****                     count <<= 1u;
1610:Generated_Source\PSoC4/CapSense_CSHL.c ****                 #else
1611:Generated_Source\PSoC4/CapSense_CSHL.c ****                     /* Calculate next and previous near to maximum */
1612:Generated_Source\PSoC4/CapSense_CSHL.c ****                     if (maximum >= 1u)
1613:Generated_Source\PSoC4/CapSense_CSHL.c ****                     {
1614:Generated_Source\PSoC4/CapSense_CSHL.c ****                         posPrev = maximum - 1u;
ARM GAS  C:\Users\jagumiel\AppData\Local\Temp\ccx0gHK6.s 			page 53


1615:Generated_Source\PSoC4/CapSense_CSHL.c ****                     }
1616:Generated_Source\PSoC4/CapSense_CSHL.c ****                     posNext = maximum + 1u;
1617:Generated_Source\PSoC4/CapSense_CSHL.c ****                 #endif /* (CapSense_IS_DIPLEX_SLIDER && CapSense_IS_NON_DIPLEX_SLIDER) */
1618:Generated_Source\PSoC4/CapSense_CSHL.c **** 
1619:Generated_Source\PSoC4/CapSense_CSHL.c ****                 /* Copy Signal to the centroid array */
1620:Generated_Source\PSoC4/CapSense_CSHL.c ****                 #if (CapSense_IS_DIPLEX_SLIDER)
1621:Generated_Source\PSoC4/CapSense_CSHL.c ****                     CapSense_centroid[CapSense_POS] = startOfSlider[pos];
1622:Generated_Source\PSoC4/CapSense_CSHL.c ****                 #else
1623:Generated_Source\PSoC4/CapSense_CSHL.c ****                     CapSense_centroid[CapSense_POS] = startOfSlider[maximum];
1624:Generated_Source\PSoC4/CapSense_CSHL.c ****                 #endif /* (CapSense_IS_DIPLEX_SLIDER) */
1625:Generated_Source\PSoC4/CapSense_CSHL.c **** 
1626:Generated_Source\PSoC4/CapSense_CSHL.c ****                 /* Check borders for LINEAR Slider */
1627:Generated_Source\PSoC4/CapSense_CSHL.c ****                 if (maximum == 0u)                   /* Start of centroid */
1628:Generated_Source\PSoC4/CapSense_CSHL.c ****                 {
1629:Generated_Source\PSoC4/CapSense_CSHL.c ****                     CapSense_centroid[CapSense_POS_PREV] = 0u;
1630:Generated_Source\PSoC4/CapSense_CSHL.c ****                     CapSense_centroid[CapSense_POS_NEXT] = startOfSlider[posNext];
1631:Generated_Source\PSoC4/CapSense_CSHL.c ****                 }
1632:Generated_Source\PSoC4/CapSense_CSHL.c ****                 else if (maximum == ((count) - 1u)) /* End of centroid */
1633:Generated_Source\PSoC4/CapSense_CSHL.c ****                 {
1634:Generated_Source\PSoC4/CapSense_CSHL.c ****                     CapSense_centroid[CapSense_POS_PREV] = startOfSlider[posPrev];
1635:Generated_Source\PSoC4/CapSense_CSHL.c ****                     CapSense_centroid[CapSense_POS_NEXT] = 0u;
1636:Generated_Source\PSoC4/CapSense_CSHL.c ****                 }
1637:Generated_Source\PSoC4/CapSense_CSHL.c ****                 else                                /* Not first Not last */
1638:Generated_Source\PSoC4/CapSense_CSHL.c ****                 {
1639:Generated_Source\PSoC4/CapSense_CSHL.c ****                     CapSense_centroid[CapSense_POS_PREV] = startOfSlider[posPrev];
1640:Generated_Source\PSoC4/CapSense_CSHL.c ****                     CapSense_centroid[CapSense_POS_NEXT] = startOfSlider[posNext];
1641:Generated_Source\PSoC4/CapSense_CSHL.c ****                 }
1642:Generated_Source\PSoC4/CapSense_CSHL.c ****             #endif /* ((CapSense_TOTAL_LINEAR_SLIDERS_COUNT>0u)||(CapSense_TOTAL_TOUCH_PADS_BASIC_C
1643:Generated_Source\PSoC4/CapSense_CSHL.c **** 
1644:Generated_Source\PSoC4/CapSense_CSHL.c ****         #if (CapSense_ADD_SLIDER_TYPE)
1645:Generated_Source\PSoC4/CapSense_CSHL.c ****             }
1646:Generated_Source\PSoC4/CapSense_CSHL.c ****         #endif /* (CapSense_ADD_SLIDER_TYPE) */
1647:Generated_Source\PSoC4/CapSense_CSHL.c **** 
1648:Generated_Source\PSoC4/CapSense_CSHL.c ****         /* Subtract noiseThreshold */
1649:Generated_Source\PSoC4/CapSense_CSHL.c ****         if(CapSense_centroid[CapSense_POS_PREV] > noiseThreshold)
1650:Generated_Source\PSoC4/CapSense_CSHL.c ****         {
1651:Generated_Source\PSoC4/CapSense_CSHL.c ****             CapSense_centroid[CapSense_POS_PREV] -= noiseThreshold;
1652:Generated_Source\PSoC4/CapSense_CSHL.c ****         }
1653:Generated_Source\PSoC4/CapSense_CSHL.c ****         else
1654:Generated_Source\PSoC4/CapSense_CSHL.c ****         {
1655:Generated_Source\PSoC4/CapSense_CSHL.c ****             CapSense_centroid[CapSense_POS_PREV] = 0u;
1656:Generated_Source\PSoC4/CapSense_CSHL.c ****         }
1657:Generated_Source\PSoC4/CapSense_CSHL.c **** 
1658:Generated_Source\PSoC4/CapSense_CSHL.c ****         /* Maximum always greater than fingerThreshold, so greater than noiseThreshold */
1659:Generated_Source\PSoC4/CapSense_CSHL.c ****         CapSense_centroid[CapSense_POS] -= noiseThreshold;
1660:Generated_Source\PSoC4/CapSense_CSHL.c **** 
1661:Generated_Source\PSoC4/CapSense_CSHL.c ****         /* Subtract noiseThreshold */
1662:Generated_Source\PSoC4/CapSense_CSHL.c ****         if(CapSense_centroid[CapSense_POS_NEXT] > noiseThreshold)
1663:Generated_Source\PSoC4/CapSense_CSHL.c ****         {
1664:Generated_Source\PSoC4/CapSense_CSHL.c ****             CapSense_centroid[CapSense_POS_NEXT] -= noiseThreshold;
1665:Generated_Source\PSoC4/CapSense_CSHL.c ****         }
1666:Generated_Source\PSoC4/CapSense_CSHL.c ****         else
1667:Generated_Source\PSoC4/CapSense_CSHL.c ****         {
1668:Generated_Source\PSoC4/CapSense_CSHL.c ****             CapSense_centroid[CapSense_POS_NEXT] = 0u;
1669:Generated_Source\PSoC4/CapSense_CSHL.c ****         }
1670:Generated_Source\PSoC4/CapSense_CSHL.c **** 
1671:Generated_Source\PSoC4/CapSense_CSHL.c **** 
ARM GAS  C:\Users\jagumiel\AppData\Local\Temp\ccx0gHK6.s 			page 54


1672:Generated_Source\PSoC4/CapSense_CSHL.c ****         /* Si+1 - Si-1 */
1673:Generated_Source\PSoC4/CapSense_CSHL.c ****         numerator = (uint32) CapSense_centroid[CapSense_POS_NEXT] -
1674:Generated_Source\PSoC4/CapSense_CSHL.c ****                     (uint32) CapSense_centroid[CapSense_POS_PREV];
1675:Generated_Source\PSoC4/CapSense_CSHL.c **** 
1676:Generated_Source\PSoC4/CapSense_CSHL.c ****         /* Si+1 + Si + Si-1 */
1677:Generated_Source\PSoC4/CapSense_CSHL.c ****         denominator = (int32) CapSense_centroid[CapSense_POS_PREV] +
1678:Generated_Source\PSoC4/CapSense_CSHL.c ****                       (int32) CapSense_centroid[CapSense_POS] +
1679:Generated_Source\PSoC4/CapSense_CSHL.c ****                       (int32) CapSense_centroid[CapSense_POS_NEXT];
1680:Generated_Source\PSoC4/CapSense_CSHL.c **** 
1681:Generated_Source\PSoC4/CapSense_CSHL.c ****         /* (numerator/denominator) + maximum */
1682:Generated_Source\PSoC4/CapSense_CSHL.c ****         denominator = (((int32)(uint32)((uint32)numerator << 8u)/denominator) + (int32)(uint32)((ui
1683:Generated_Source\PSoC4/CapSense_CSHL.c **** 
1684:Generated_Source\PSoC4/CapSense_CSHL.c ****         #if(CapSense_TOTAL_RADIAL_SLIDERS_COUNT > 0u)
1685:Generated_Source\PSoC4/CapSense_CSHL.c ****             /* Only required for RADIAL Slider */
1686:Generated_Source\PSoC4/CapSense_CSHL.c ****             if(denominator < 0)
1687:Generated_Source\PSoC4/CapSense_CSHL.c ****             {
1688:Generated_Source\PSoC4/CapSense_CSHL.c ****                 denominator += (int32)((uint16)((uint16) count << 8u));
1689:Generated_Source\PSoC4/CapSense_CSHL.c ****             }
1690:Generated_Source\PSoC4/CapSense_CSHL.c ****         #endif /* (CapSense_TOTAL_RADIAL_SLIDERS_COUNT > 0u) */
1691:Generated_Source\PSoC4/CapSense_CSHL.c **** 
1692:Generated_Source\PSoC4/CapSense_CSHL.c ****         denominator *= (int16)resolution;
1693:Generated_Source\PSoC4/CapSense_CSHL.c **** 
1694:Generated_Source\PSoC4/CapSense_CSHL.c ****         /* Round result and put it to uint8 */
1695:Generated_Source\PSoC4/CapSense_CSHL.c ****         position = ((uint8) HI16((uint32)denominator + CapSense_CENTROID_ROUND_VALUE));
1696:Generated_Source\PSoC4/CapSense_CSHL.c **** 
1697:Generated_Source\PSoC4/CapSense_CSHL.c ****         return (position);
1698:Generated_Source\PSoC4/CapSense_CSHL.c ****     }
1699:Generated_Source\PSoC4/CapSense_CSHL.c **** #endif /* (CapSense_TOTAL_CENTROIDS_BASIC_COUNT) */
1700:Generated_Source\PSoC4/CapSense_CSHL.c **** 
1701:Generated_Source\PSoC4/CapSense_CSHL.c **** 
1702:Generated_Source\PSoC4/CapSense_CSHL.c **** #if((CapSense_TOTAL_RADIAL_SLIDERS_COUNT > 0u) || (CapSense_TOTAL_LINEAR_SLIDERS_COUNT > 0u))
1703:Generated_Source\PSoC4/CapSense_CSHL.c ****     /*******************************************************************************
1704:Generated_Source\PSoC4/CapSense_CSHL.c ****     * Function Name: CapSense_GetCentroidPos
1705:Generated_Source\PSoC4/CapSense_CSHL.c ****     ********************************************************************************
1706:Generated_Source\PSoC4/CapSense_CSHL.c ****     *
1707:Generated_Source\PSoC4/CapSense_CSHL.c ****     * Summary:
1708:Generated_Source\PSoC4/CapSense_CSHL.c ****     *  Checks the CapSense_Signal[ ] array for a centroid within
1709:Generated_Source\PSoC4/CapSense_CSHL.c ****     *  a slider specified range. The centroid position is calculated according to the resolution
1710:Generated_Source\PSoC4/CapSense_CSHL.c ****     *  specified in the CapSense customizer. The position filters are applied to the
1711:Generated_Source\PSoC4/CapSense_CSHL.c ****     *  result if enabled.
1712:Generated_Source\PSoC4/CapSense_CSHL.c ****     *
1713:Generated_Source\PSoC4/CapSense_CSHL.c ****     * Parameters:
1714:Generated_Source\PSoC4/CapSense_CSHL.c ****     *  widget:  Widget number.
1715:Generated_Source\PSoC4/CapSense_CSHL.c ****     *  For every linear slider widget there are defines in this format:
1716:Generated_Source\PSoC4/CapSense_CSHL.c ****     *  #define CapSense_"widget_name"__LS           5
1717:Generated_Source\PSoC4/CapSense_CSHL.c ****     *
1718:Generated_Source\PSoC4/CapSense_CSHL.c ****     * Return:
1719:Generated_Source\PSoC4/CapSense_CSHL.c ****     *  Returns a position value of the linear slider.
1720:Generated_Source\PSoC4/CapSense_CSHL.c ****     *
1721:Generated_Source\PSoC4/CapSense_CSHL.c ****     * Global Variables:
1722:Generated_Source\PSoC4/CapSense_CSHL.c ****     *  None
1723:Generated_Source\PSoC4/CapSense_CSHL.c ****     *
1724:Generated_Source\PSoC4/CapSense_CSHL.c ****     * Side Effects:
1725:Generated_Source\PSoC4/CapSense_CSHL.c ****     *  If any sensor within the slider widget is active, the function returns values
1726:Generated_Source\PSoC4/CapSense_CSHL.c ****     *  from zero to the API resolution value set in the CapSense customizer. If no
1727:Generated_Source\PSoC4/CapSense_CSHL.c ****     *  sensors are active, the function returns 0xFFFF. If an error occurs during
1728:Generated_Source\PSoC4/CapSense_CSHL.c ****     *  execution of the centroid/diplexing algorithm, the function returns 0xFFFF.
ARM GAS  C:\Users\jagumiel\AppData\Local\Temp\ccx0gHK6.s 			page 55


1729:Generated_Source\PSoC4/CapSense_CSHL.c ****     *  There are no checks of the widget type argument provided to this function.
1730:Generated_Source\PSoC4/CapSense_CSHL.c ****     *  The unproper widget type provided will cause unexpected position calculations.
1731:Generated_Source\PSoC4/CapSense_CSHL.c ****     *
1732:Generated_Source\PSoC4/CapSense_CSHL.c ****     * Note:
1733:Generated_Source\PSoC4/CapSense_CSHL.c ****     *  If noise counts on the slider segments are greater than the noise
1734:Generated_Source\PSoC4/CapSense_CSHL.c ****     *  threshold, this subroutine may generate a false centroid result. The noise
1735:Generated_Source\PSoC4/CapSense_CSHL.c ****     *  threshold should be set carefully (high enough above the noise level) so
1736:Generated_Source\PSoC4/CapSense_CSHL.c ****     *  that noise will not generate a false centroid.
1737:Generated_Source\PSoC4/CapSense_CSHL.c ****     *******************************************************************************/
1738:Generated_Source\PSoC4/CapSense_CSHL.c ****     uint16 CapSense_GetCentroidPos(uint32 widget)
1739:Generated_Source\PSoC4/CapSense_CSHL.c ****     {
1740:Generated_Source\PSoC4/CapSense_CSHL.c ****         #if (CapSense_IS_DIPLEX_SLIDER)
1741:Generated_Source\PSoC4/CapSense_CSHL.c ****             const uint8 *diplex;
1742:Generated_Source\PSoC4/CapSense_CSHL.c ****         #endif /* (CapSense_IS_DIPLEX_SLIDER) */
1743:Generated_Source\PSoC4/CapSense_CSHL.c **** 
1744:Generated_Source\PSoC4/CapSense_CSHL.c ****         #if (0u != CapSense_LINEAR_SLIDERS_POS_FILTERS_MASK)
1745:Generated_Source\PSoC4/CapSense_CSHL.c ****             uint8 posIndex;
1746:Generated_Source\PSoC4/CapSense_CSHL.c ****             uint8 firstTimeIndex = CapSense_posFiltersData[widget];
1747:Generated_Source\PSoC4/CapSense_CSHL.c ****             uint8 posFiltersMask = CapSense_posFiltersMask[widget];
1748:Generated_Source\PSoC4/CapSense_CSHL.c ****         #endif /* (0u != CapSense_LINEAR_SLIDERS_POS_FILTERS_MASK) */
1749:Generated_Source\PSoC4/CapSense_CSHL.c **** 
1750:Generated_Source\PSoC4/CapSense_CSHL.c ****         #if ((0u != (CapSense_MEDIAN_FILTER & CapSense_LINEAR_SLIDERS_POS_FILTERS_MASK)) || \
1751:Generated_Source\PSoC4/CapSense_CSHL.c ****              (0u != (CapSense_AVERAGING_FILTER & CapSense_LINEAR_SLIDERS_POS_FILTERS_MASK)))
1752:Generated_Source\PSoC4/CapSense_CSHL.c ****             uint8 tempPos;
1753:Generated_Source\PSoC4/CapSense_CSHL.c ****         #endif /* ((0u != (CapSense_MEDIAN_FILTER & CapSense_LINEAR_SLIDERS_POS_FILTERS_MASK)) || \
1754:Generated_Source\PSoC4/CapSense_CSHL.c ****                *   (0u != (CapSense_AVERAGING_FILTER & CapSense_LINEAR_SLIDERS_POS_FILTERS_MASK)))
1755:Generated_Source\PSoC4/CapSense_CSHL.c ****                */
1756:Generated_Source\PSoC4/CapSense_CSHL.c **** 
1757:Generated_Source\PSoC4/CapSense_CSHL.c ****         uint8 maximum;
1758:Generated_Source\PSoC4/CapSense_CSHL.c ****         uint16 position;
1759:Generated_Source\PSoC4/CapSense_CSHL.c ****         uint8 offset = CapSense_rawDataIndex[widget];
1760:Generated_Source\PSoC4/CapSense_CSHL.c ****         uint8 count = CapSense_numberOfSensors[widget];
1761:Generated_Source\PSoC4/CapSense_CSHL.c **** 
1762:Generated_Source\PSoC4/CapSense_CSHL.c ****         #if (CapSense_IS_DIPLEX_SLIDER)
1763:Generated_Source\PSoC4/CapSense_CSHL.c ****             if(widget < CapSense_TOTAL_DIPLEXED_SLIDERS_COUNT)
1764:Generated_Source\PSoC4/CapSense_CSHL.c ****             {
1765:Generated_Source\PSoC4/CapSense_CSHL.c ****                 maximum = CapSense_diplexTable[widget];
1766:Generated_Source\PSoC4/CapSense_CSHL.c ****                 diplex = &CapSense_diplexTable[maximum];
1767:Generated_Source\PSoC4/CapSense_CSHL.c ****             }
1768:Generated_Source\PSoC4/CapSense_CSHL.c ****             else
1769:Generated_Source\PSoC4/CapSense_CSHL.c ****             {
1770:Generated_Source\PSoC4/CapSense_CSHL.c ****                 diplex = 0u;
1771:Generated_Source\PSoC4/CapSense_CSHL.c ****             }
1772:Generated_Source\PSoC4/CapSense_CSHL.c ****         #endif /* (CapSense_IS_DIPLEX_SLIDER) */
1773:Generated_Source\PSoC4/CapSense_CSHL.c **** 
1774:Generated_Source\PSoC4/CapSense_CSHL.c ****         /* Find Maximum within centroid */
1775:Generated_Source\PSoC4/CapSense_CSHL.c ****         #if (CapSense_IS_DIPLEX_SLIDER)
1776:Generated_Source\PSoC4/CapSense_CSHL.c ****             maximum = CapSense_FindMaximum(offset, count, (uint8)CapSense_fingerThreshold[widget], 
1777:Generated_Source\PSoC4/CapSense_CSHL.c ****         #else
1778:Generated_Source\PSoC4/CapSense_CSHL.c ****             maximum = CapSense_FindMaximum(offset, count, (uint8)CapSense_fingerThreshold[widget]);
1779:Generated_Source\PSoC4/CapSense_CSHL.c ****         #endif /* (CapSense_IS_DIPLEX_SLIDER) */
1780:Generated_Source\PSoC4/CapSense_CSHL.c **** 
1781:Generated_Source\PSoC4/CapSense_CSHL.c ****         if (maximum != 0xFFu)
1782:Generated_Source\PSoC4/CapSense_CSHL.c ****         {
1783:Generated_Source\PSoC4/CapSense_CSHL.c ****             /* Calculate centroid */
1784:Generated_Source\PSoC4/CapSense_CSHL.c ****             position = (uint16) CapSense_CalcCentroid(maximum,
1785:Generated_Source\PSoC4/CapSense_CSHL.c ****                          offset, count, CapSense_centroidMult[widget], CapSense_noiseThreshold[widg
ARM GAS  C:\Users\jagumiel\AppData\Local\Temp\ccx0gHK6.s 			page 56


1786:Generated_Source\PSoC4/CapSense_CSHL.c **** 
1787:Generated_Source\PSoC4/CapSense_CSHL.c ****             #if (0u != CapSense_LINEAR_SLIDERS_POS_FILTERS_MASK)
1788:Generated_Source\PSoC4/CapSense_CSHL.c ****                 /* Check if this linear slider has enabled filters */
1789:Generated_Source\PSoC4/CapSense_CSHL.c ****                 if (0u != (posFiltersMask & CapSense_ANY_POS_FILTER))
1790:Generated_Source\PSoC4/CapSense_CSHL.c ****                 {
1791:Generated_Source\PSoC4/CapSense_CSHL.c ****                     /* Calculate position to store filters data */
1792:Generated_Source\PSoC4/CapSense_CSHL.c ****                     posIndex  = firstTimeIndex + 1u;
1793:Generated_Source\PSoC4/CapSense_CSHL.c **** 
1794:Generated_Source\PSoC4/CapSense_CSHL.c ****                     if (0u == CapSense_posFiltersData[firstTimeIndex])
1795:Generated_Source\PSoC4/CapSense_CSHL.c ****                     {
1796:Generated_Source\PSoC4/CapSense_CSHL.c ****                         /* Init filters */
1797:Generated_Source\PSoC4/CapSense_CSHL.c ****                         CapSense_posFiltersData[posIndex] = (uint8) position;
1798:Generated_Source\PSoC4/CapSense_CSHL.c ****                         #if ((0u != (CapSense_MEDIAN_FILTER & \
1799:Generated_Source\PSoC4/CapSense_CSHL.c ****                                      CapSense_LINEAR_SLIDERS_POS_FILTERS_MASK)) || \
1800:Generated_Source\PSoC4/CapSense_CSHL.c ****                              (0u != (CapSense_AVERAGING_FILTER & \
1801:Generated_Source\PSoC4/CapSense_CSHL.c ****                                      CapSense_LINEAR_SLIDERS_POS_FILTERS_MASK)))
1802:Generated_Source\PSoC4/CapSense_CSHL.c **** 
1803:Generated_Source\PSoC4/CapSense_CSHL.c ****                             if ( (0u != (posFiltersMask & CapSense_MEDIAN_FILTER)) ||
1804:Generated_Source\PSoC4/CapSense_CSHL.c ****                                  (0u != (posFiltersMask & CapSense_AVERAGING_FILTER)) )
1805:Generated_Source\PSoC4/CapSense_CSHL.c ****                             {
1806:Generated_Source\PSoC4/CapSense_CSHL.c ****                                 CapSense_posFiltersData[posIndex + 1u] = (uint8) position;
1807:Generated_Source\PSoC4/CapSense_CSHL.c ****                             }
1808:Generated_Source\PSoC4/CapSense_CSHL.c ****                         #endif /* ((0u != (CapSense_MEDIAN_FILTER & \
1809:Generated_Source\PSoC4/CapSense_CSHL.c ****                                *           CapSense_LINEAR_SLIDERS_POS_FILTERS_MASK)) || \
1810:Generated_Source\PSoC4/CapSense_CSHL.c ****                                *   (0u != (CapSense_AVERAGING_FILTER & \
1811:Generated_Source\PSoC4/CapSense_CSHL.c ****                                *           CapSense_LINEAR_SLIDERS_POS_FILTERS_MASK)))
1812:Generated_Source\PSoC4/CapSense_CSHL.c ****                                */
1813:Generated_Source\PSoC4/CapSense_CSHL.c **** 
1814:Generated_Source\PSoC4/CapSense_CSHL.c ****                         CapSense_posFiltersData[firstTimeIndex] = 1u;
1815:Generated_Source\PSoC4/CapSense_CSHL.c ****                     }
1816:Generated_Source\PSoC4/CapSense_CSHL.c ****                     else
1817:Generated_Source\PSoC4/CapSense_CSHL.c ****                     {
1818:Generated_Source\PSoC4/CapSense_CSHL.c ****                         /* Do filtering */
1819:Generated_Source\PSoC4/CapSense_CSHL.c ****                         #if (0u != (CapSense_MEDIAN_FILTER & CapSense_LINEAR_SLIDERS_POS_FILTERS_MA
1820:Generated_Source\PSoC4/CapSense_CSHL.c ****                             if (0u != (posFiltersMask & CapSense_MEDIAN_FILTER))
1821:Generated_Source\PSoC4/CapSense_CSHL.c ****                             {
1822:Generated_Source\PSoC4/CapSense_CSHL.c ****                                 tempPos = (uint8) position;
1823:Generated_Source\PSoC4/CapSense_CSHL.c ****                                 position = CapSense_MedianFilter(position,
1824:Generated_Source\PSoC4/CapSense_CSHL.c ****                                                                 (uint16)CapSense_posFiltersData[pos
1825:Generated_Source\PSoC4/CapSense_CSHL.c ****                                                                 (uint16)CapSense_posFiltersData[pos
1826:Generated_Source\PSoC4/CapSense_CSHL.c ****                                 CapSense_posFiltersData[posIndex + 1u] =
1827:Generated_Source\PSoC4/CapSense_CSHL.c ****                                                                              CapSense_posFiltersDat
1828:Generated_Source\PSoC4/CapSense_CSHL.c ****                                 CapSense_posFiltersData[posIndex] = tempPos;
1829:Generated_Source\PSoC4/CapSense_CSHL.c ****                             }
1830:Generated_Source\PSoC4/CapSense_CSHL.c ****                         #endif /*(0u != (CapSense_MEDIAN_FILTER &
1831:Generated_Source\PSoC4/CapSense_CSHL.c ****                                *         CapSense_LINEAR_SLIDERS_POS_FILTERS_MASK))
1832:Generated_Source\PSoC4/CapSense_CSHL.c ****                                */
1833:Generated_Source\PSoC4/CapSense_CSHL.c **** 
1834:Generated_Source\PSoC4/CapSense_CSHL.c ****                         #if(0u!=(CapSense_AVERAGING_FILTER & CapSense_LINEAR_SLIDERS_POS_FILTERS_MA
1835:Generated_Source\PSoC4/CapSense_CSHL.c ****                             if (0u != (posFiltersMask & CapSense_AVERAGING_FILTER))
1836:Generated_Source\PSoC4/CapSense_CSHL.c ****                             {
1837:Generated_Source\PSoC4/CapSense_CSHL.c ****                                 tempPos = (uint8) position;
1838:Generated_Source\PSoC4/CapSense_CSHL.c ****                                 position = CapSense_AveragingFilter(position,
1839:Generated_Source\PSoC4/CapSense_CSHL.c ****                                                                 (uint16)CapSense_posFiltersData[pos
1840:Generated_Source\PSoC4/CapSense_CSHL.c ****                                                                 (uint16)CapSense_posFiltersData[pos
1841:Generated_Source\PSoC4/CapSense_CSHL.c ****                                 CapSense_posFiltersData[posIndex+1u]=CapSense_posFiltersData[posInd
1842:Generated_Source\PSoC4/CapSense_CSHL.c ****                                 CapSense_posFiltersData[posIndex] = tempPos;
ARM GAS  C:\Users\jagumiel\AppData\Local\Temp\ccx0gHK6.s 			page 57


1843:Generated_Source\PSoC4/CapSense_CSHL.c ****                             }
1844:Generated_Source\PSoC4/CapSense_CSHL.c ****                         #endif /* (0u != (CapSense_AVERAGING_FILTER & \
1845:Generated_Source\PSoC4/CapSense_CSHL.c ****                                *           CapSense_LINEAR_SLIDERS_POS_FILTERS_MASK))
1846:Generated_Source\PSoC4/CapSense_CSHL.c ****                                */
1847:Generated_Source\PSoC4/CapSense_CSHL.c **** 
1848:Generated_Source\PSoC4/CapSense_CSHL.c ****                         #if (0u != (CapSense_IIR2_FILTER & CapSense_LINEAR_SLIDERS_POS_FILTERS_MASK
1849:Generated_Source\PSoC4/CapSense_CSHL.c ****                             if (0u != (posFiltersMask & CapSense_IIR2_FILTER))
1850:Generated_Source\PSoC4/CapSense_CSHL.c ****                             {
1851:Generated_Source\PSoC4/CapSense_CSHL.c ****                                 position = CapSense_IIR2Filter(position,
1852:Generated_Source\PSoC4/CapSense_CSHL.c ****                                                                     (uint16)CapSense_posFiltersData
1853:Generated_Source\PSoC4/CapSense_CSHL.c ****                                 CapSense_posFiltersData[posIndex] = (uint8) position;
1854:Generated_Source\PSoC4/CapSense_CSHL.c ****                             }
1855:Generated_Source\PSoC4/CapSense_CSHL.c ****                         #endif /* (0u != (CapSense_IIR2_FILTER & \
1856:Generated_Source\PSoC4/CapSense_CSHL.c ****                                *          CapSense_LINEAR_SLIDERS_POS_FILTERS_MASK))
1857:Generated_Source\PSoC4/CapSense_CSHL.c ****                                */
1858:Generated_Source\PSoC4/CapSense_CSHL.c **** 
1859:Generated_Source\PSoC4/CapSense_CSHL.c ****                         #if (0u != (CapSense_IIR4_FILTER & CapSense_LINEAR_SLIDERS_POS_FILTERS_MASK
1860:Generated_Source\PSoC4/CapSense_CSHL.c ****                             if (0u != (posFiltersMask & CapSense_IIR4_FILTER))
1861:Generated_Source\PSoC4/CapSense_CSHL.c ****                             {
1862:Generated_Source\PSoC4/CapSense_CSHL.c ****                                 position = CapSense_IIR4Filter(position,
1863:Generated_Source\PSoC4/CapSense_CSHL.c ****                                                                     (uint16)CapSense_posFiltersData
1864:Generated_Source\PSoC4/CapSense_CSHL.c ****                                 CapSense_posFiltersData[posIndex] = (uint8) position;
1865:Generated_Source\PSoC4/CapSense_CSHL.c ****                             }
1866:Generated_Source\PSoC4/CapSense_CSHL.c ****                         #endif /* (0u != (CapSense_IIR4_FILTER & \
1867:Generated_Source\PSoC4/CapSense_CSHL.c ****                                *          CapSense_LINEAR_SLIDERS_POS_FILTERS_MASK))
1868:Generated_Source\PSoC4/CapSense_CSHL.c ****                                */
1869:Generated_Source\PSoC4/CapSense_CSHL.c **** 
1870:Generated_Source\PSoC4/CapSense_CSHL.c ****                         #if (0u != (CapSense_JITTER_FILTER & CapSense_LINEAR_SLIDERS_POS_FILTERS_MA
1871:Generated_Source\PSoC4/CapSense_CSHL.c ****                             if (0u != (posFiltersMask & CapSense_JITTER_FILTER))
1872:Generated_Source\PSoC4/CapSense_CSHL.c ****                             {
1873:Generated_Source\PSoC4/CapSense_CSHL.c ****                                 position = CapSense_JitterFilter(position,
1874:Generated_Source\PSoC4/CapSense_CSHL.c ****                                                                     (uint16)CapSense_posFiltersData
1875:Generated_Source\PSoC4/CapSense_CSHL.c ****                                 CapSense_posFiltersData[posIndex] = (uint8) position;
1876:Generated_Source\PSoC4/CapSense_CSHL.c ****                             }
1877:Generated_Source\PSoC4/CapSense_CSHL.c ****                         #endif /* (0u != (CapSense_JITTER_FILTER & \
1878:Generated_Source\PSoC4/CapSense_CSHL.c ****                                *           CapSense_LINEAR_SLIDERS_POS_FILTERS_MASK))
1879:Generated_Source\PSoC4/CapSense_CSHL.c ****                                */
1880:Generated_Source\PSoC4/CapSense_CSHL.c ****                     }
1881:Generated_Source\PSoC4/CapSense_CSHL.c ****                 }
1882:Generated_Source\PSoC4/CapSense_CSHL.c ****             #endif /* (0u != CapSense_LINEAR_SLIDERS_POS_FILTERS_MASK) */
1883:Generated_Source\PSoC4/CapSense_CSHL.c **** 
1884:Generated_Source\PSoC4/CapSense_CSHL.c ****         }
1885:Generated_Source\PSoC4/CapSense_CSHL.c ****         else
1886:Generated_Source\PSoC4/CapSense_CSHL.c ****         {
1887:Generated_Source\PSoC4/CapSense_CSHL.c ****             /* Maximum wasn't found */
1888:Generated_Source\PSoC4/CapSense_CSHL.c ****             position = 0xFFFFu;
1889:Generated_Source\PSoC4/CapSense_CSHL.c **** 
1890:Generated_Source\PSoC4/CapSense_CSHL.c ****             #if(0u != CapSense_LINEAR_SLIDERS_POS_FILTERS_MASK)
1891:Generated_Source\PSoC4/CapSense_CSHL.c ****                 /* Reset filters */
1892:Generated_Source\PSoC4/CapSense_CSHL.c ****                 if(0u != (posFiltersMask & CapSense_ANY_POS_FILTER))
1893:Generated_Source\PSoC4/CapSense_CSHL.c ****                 {
1894:Generated_Source\PSoC4/CapSense_CSHL.c ****                     CapSense_posFiltersData[firstTimeIndex] = 0u;
1895:Generated_Source\PSoC4/CapSense_CSHL.c ****                 }
1896:Generated_Source\PSoC4/CapSense_CSHL.c ****             #endif /* (0u != CapSense_LINEAR_SLIDERS_POS_FILTERS_MASK) */
1897:Generated_Source\PSoC4/CapSense_CSHL.c ****         }
1898:Generated_Source\PSoC4/CapSense_CSHL.c **** 
1899:Generated_Source\PSoC4/CapSense_CSHL.c **** 
ARM GAS  C:\Users\jagumiel\AppData\Local\Temp\ccx0gHK6.s 			page 58


1900:Generated_Source\PSoC4/CapSense_CSHL.c ****         return (position);
1901:Generated_Source\PSoC4/CapSense_CSHL.c ****     }
1902:Generated_Source\PSoC4/CapSense_CSHL.c **** #endif /* ((CapSense_TOTAL_RADIAL_SLIDERS_COUNT > 0u) || (CapSense_TOTAL_LINEAR_SLIDERS_COUNT > 0u)
1903:Generated_Source\PSoC4/CapSense_CSHL.c **** 
1904:Generated_Source\PSoC4/CapSense_CSHL.c **** 
1905:Generated_Source\PSoC4/CapSense_CSHL.c **** #if((CapSense_TOTAL_RADIAL_SLIDERS_COUNT > 0u) || (CapSense_TOTAL_LINEAR_SLIDERS_COUNT > 0u))
1906:Generated_Source\PSoC4/CapSense_CSHL.c ****     /*******************************************************************************
1907:Generated_Source\PSoC4/CapSense_CSHL.c ****     * Function Name: CapSense_GetRadialCentroidPos
1908:Generated_Source\PSoC4/CapSense_CSHL.c ****     ********************************************************************************
1909:Generated_Source\PSoC4/CapSense_CSHL.c ****     *
1910:Generated_Source\PSoC4/CapSense_CSHL.c ****     * Summary:
1911:Generated_Source\PSoC4/CapSense_CSHL.c ****     *  Checks the CapSense_Signal[ ] array for a centroid within
1912:Generated_Source\PSoC4/CapSense_CSHL.c ****     *  a slider specified range. The centroid position is calculated according to the resolution
1913:Generated_Source\PSoC4/CapSense_CSHL.c ****     *  specified in the CapSense customizer. The position filters are applied to the
1914:Generated_Source\PSoC4/CapSense_CSHL.c ****     *  result if enabled.
1915:Generated_Source\PSoC4/CapSense_CSHL.c ****     *
1916:Generated_Source\PSoC4/CapSense_CSHL.c ****     * Parameters:
1917:Generated_Source\PSoC4/CapSense_CSHL.c ****     *  widget:  Widget number.
1918:Generated_Source\PSoC4/CapSense_CSHL.c ****     *  For every radial slider widget there are defines in this format:
1919:Generated_Source\PSoC4/CapSense_CSHL.c ****     *  #define CapSense_"widget_name"__RS           5
1920:Generated_Source\PSoC4/CapSense_CSHL.c ****     *
1921:Generated_Source\PSoC4/CapSense_CSHL.c ****     * Return:
1922:Generated_Source\PSoC4/CapSense_CSHL.c ****     *  Returns a position value of the radial slider.
1923:Generated_Source\PSoC4/CapSense_CSHL.c ****     *
1924:Generated_Source\PSoC4/CapSense_CSHL.c ****     * Global Variables:
1925:Generated_Source\PSoC4/CapSense_CSHL.c ****     *  None.
1926:Generated_Source\PSoC4/CapSense_CSHL.c ****     *
1927:Generated_Source\PSoC4/CapSense_CSHL.c ****     * Side Effects:
1928:Generated_Source\PSoC4/CapSense_CSHL.c ****     *  If any sensor within the slider widget is active, the function returns values
1929:Generated_Source\PSoC4/CapSense_CSHL.c ****     *  from zero to the API resolution value set in the CapSense customizer. If no
1930:Generated_Source\PSoC4/CapSense_CSHL.c ****     *  sensors are active, the function returns 0xFFFF.
1931:Generated_Source\PSoC4/CapSense_CSHL.c ****     *  There are no checks of the widget type argument provided to this function.
1932:Generated_Source\PSoC4/CapSense_CSHL.c ****     *  The unproper widget type provided will cause unexpected position calculations.
1933:Generated_Source\PSoC4/CapSense_CSHL.c ****     *
1934:Generated_Source\PSoC4/CapSense_CSHL.c ****     * Note:
1935:Generated_Source\PSoC4/CapSense_CSHL.c ****     *  If noise counts on the slider segments are greater than the noise
1936:Generated_Source\PSoC4/CapSense_CSHL.c ****     *  threshold, this subroutine may generate a false centroid result. The noise
1937:Generated_Source\PSoC4/CapSense_CSHL.c ****     *  threshold should be set carefully (high enough above the noise level) so
1938:Generated_Source\PSoC4/CapSense_CSHL.c ****     *  that noise will not generate a false centroid.
1939:Generated_Source\PSoC4/CapSense_CSHL.c ****     *
1940:Generated_Source\PSoC4/CapSense_CSHL.c ****     *******************************************************************************/
1941:Generated_Source\PSoC4/CapSense_CSHL.c ****      uint16 CapSense_GetRadialCentroidPos(uint32 widget)
1942:Generated_Source\PSoC4/CapSense_CSHL.c ****     {
1943:Generated_Source\PSoC4/CapSense_CSHL.c ****         #if (0u != CapSense_RADIAL_SLIDERS_POS_FILTERS_MASK)
1944:Generated_Source\PSoC4/CapSense_CSHL.c ****             uint8 posIndex;
1945:Generated_Source\PSoC4/CapSense_CSHL.c ****             uint8 firstTimeIndex = CapSense_posFiltersData[widget];
1946:Generated_Source\PSoC4/CapSense_CSHL.c ****             uint8 posFiltersMask = CapSense_posFiltersMask[widget];
1947:Generated_Source\PSoC4/CapSense_CSHL.c ****         #endif /* (0u != CapSense_RADIAL_SLIDERS_POS_FILTERS_MASK) */
1948:Generated_Source\PSoC4/CapSense_CSHL.c **** 
1949:Generated_Source\PSoC4/CapSense_CSHL.c ****         #if ((0u != (CapSense_MEDIAN_FILTER & CapSense_RADIAL_SLIDERS_POS_FILTERS_MASK)) || \
1950:Generated_Source\PSoC4/CapSense_CSHL.c ****              (0u != (CapSense_AVERAGING_FILTER & CapSense_RADIAL_SLIDERS_POS_FILTERS_MASK)))
1951:Generated_Source\PSoC4/CapSense_CSHL.c ****             uint8 tempPos;
1952:Generated_Source\PSoC4/CapSense_CSHL.c ****         #endif /* ((0u != (CapSense_MEDIAN_FILTER & CapSense_RADIAL_SLIDERS_POS_FILTERS_MASK)) || \
1953:Generated_Source\PSoC4/CapSense_CSHL.c ****                *   (0u != (CapSense_AVERAGING_FILTER & CapSense_RADIAL_SLIDERS_POS_FILTERS_MASK)))
1954:Generated_Source\PSoC4/CapSense_CSHL.c ****                */
1955:Generated_Source\PSoC4/CapSense_CSHL.c **** 
1956:Generated_Source\PSoC4/CapSense_CSHL.c ****         uint8 maximum;
ARM GAS  C:\Users\jagumiel\AppData\Local\Temp\ccx0gHK6.s 			page 59


1957:Generated_Source\PSoC4/CapSense_CSHL.c ****         uint16 position;
1958:Generated_Source\PSoC4/CapSense_CSHL.c ****         uint8 offset = CapSense_rawDataIndex[widget];
1959:Generated_Source\PSoC4/CapSense_CSHL.c ****         uint8 count = CapSense_numberOfSensors[widget];
1960:Generated_Source\PSoC4/CapSense_CSHL.c **** 
1961:Generated_Source\PSoC4/CapSense_CSHL.c ****         /* Find Maximum within centroid */
1962:Generated_Source\PSoC4/CapSense_CSHL.c ****         #if (CapSense_IS_DIPLEX_SLIDER)
1963:Generated_Source\PSoC4/CapSense_CSHL.c ****             maximum = CapSense_FindMaximum(offset, count, (uint8)CapSense_fingerThreshold[widget], 
1964:Generated_Source\PSoC4/CapSense_CSHL.c ****         #else
1965:Generated_Source\PSoC4/CapSense_CSHL.c ****             maximum = CapSense_FindMaximum(offset, count, (uint8)CapSense_fingerThreshold[widget]);
1966:Generated_Source\PSoC4/CapSense_CSHL.c ****         #endif /* (CapSense_IS_DIPLEX_SLIDER) */
1967:Generated_Source\PSoC4/CapSense_CSHL.c **** 
1968:Generated_Source\PSoC4/CapSense_CSHL.c ****         if (maximum != CapSense_MAXIMUM_CENTROID)
1969:Generated_Source\PSoC4/CapSense_CSHL.c ****         {
1970:Generated_Source\PSoC4/CapSense_CSHL.c ****             /* Calculate centroid */
1971:Generated_Source\PSoC4/CapSense_CSHL.c ****             position = (uint16) CapSense_CalcCentroid(maximum,
1972:Generated_Source\PSoC4/CapSense_CSHL.c ****                          offset, count, CapSense_centroidMult[widget], CapSense_noiseThreshold[widg
1973:Generated_Source\PSoC4/CapSense_CSHL.c **** 
1974:Generated_Source\PSoC4/CapSense_CSHL.c ****             #if (0u != CapSense_RADIAL_SLIDERS_POS_FILTERS_MASK)
1975:Generated_Source\PSoC4/CapSense_CSHL.c ****                 /* Check if this Radial slider has enabled filters */
1976:Generated_Source\PSoC4/CapSense_CSHL.c ****                 if (0u != (posFiltersMask & CapSense_ANY_POS_FILTER))
1977:Generated_Source\PSoC4/CapSense_CSHL.c ****                 {
1978:Generated_Source\PSoC4/CapSense_CSHL.c ****                     /* Calculate position to store filters data */
1979:Generated_Source\PSoC4/CapSense_CSHL.c ****                     posIndex  = firstTimeIndex + 1u;
1980:Generated_Source\PSoC4/CapSense_CSHL.c **** 
1981:Generated_Source\PSoC4/CapSense_CSHL.c ****                     if (0u == CapSense_posFiltersData[firstTimeIndex])
1982:Generated_Source\PSoC4/CapSense_CSHL.c ****                     {
1983:Generated_Source\PSoC4/CapSense_CSHL.c ****                         /* Init filters */
1984:Generated_Source\PSoC4/CapSense_CSHL.c ****                         CapSense_posFiltersData[posIndex] = (uint8) position;
1985:Generated_Source\PSoC4/CapSense_CSHL.c ****                         #if ((0u != (CapSense_MEDIAN_FILTER & \
1986:Generated_Source\PSoC4/CapSense_CSHL.c ****                                      CapSense_RADIAL_SLIDERS_POS_FILTERS_MASK)) || \
1987:Generated_Source\PSoC4/CapSense_CSHL.c ****                              (0u != (CapSense_AVERAGING_FILTER & \
1988:Generated_Source\PSoC4/CapSense_CSHL.c ****                                      CapSense_RADIAL_SLIDERS_POS_FILTERS_MASK)))
1989:Generated_Source\PSoC4/CapSense_CSHL.c **** 
1990:Generated_Source\PSoC4/CapSense_CSHL.c ****                             if ( (0u != (posFiltersMask & CapSense_MEDIAN_FILTER))  ||
1991:Generated_Source\PSoC4/CapSense_CSHL.c ****                                  (0u != (posFiltersMask & CapSense_AVERAGING_FILTER)) )
1992:Generated_Source\PSoC4/CapSense_CSHL.c ****                             {
1993:Generated_Source\PSoC4/CapSense_CSHL.c ****                                 CapSense_posFiltersData[posIndex + 1u] = (uint8) position;
1994:Generated_Source\PSoC4/CapSense_CSHL.c ****                             }
1995:Generated_Source\PSoC4/CapSense_CSHL.c ****                         #endif /* ((0u != (CapSense_MEDIAN_FILTER & \
1996:Generated_Source\PSoC4/CapSense_CSHL.c ****                                *           CapSense_RADIAL_SLIDERS_POS_FILTERS_MASK)) || \
1997:Generated_Source\PSoC4/CapSense_CSHL.c ****                                *   (0u != (CapSense_AVERAGING_FILTER & \
1998:Generated_Source\PSoC4/CapSense_CSHL.c ****                                *           CapSense_RADIAL_SLIDERS_POS_FILTERS_MASK)))
1999:Generated_Source\PSoC4/CapSense_CSHL.c ****                                */
2000:Generated_Source\PSoC4/CapSense_CSHL.c **** 
2001:Generated_Source\PSoC4/CapSense_CSHL.c ****                         CapSense_posFiltersData[firstTimeIndex] = 1u;
2002:Generated_Source\PSoC4/CapSense_CSHL.c ****                     }
2003:Generated_Source\PSoC4/CapSense_CSHL.c ****                     else
2004:Generated_Source\PSoC4/CapSense_CSHL.c ****                     {
2005:Generated_Source\PSoC4/CapSense_CSHL.c ****                         /* Do filtering */
2006:Generated_Source\PSoC4/CapSense_CSHL.c ****                         #if (0u != (CapSense_MEDIAN_FILTER & CapSense_RADIAL_SLIDERS_POS_FILTERS_MA
2007:Generated_Source\PSoC4/CapSense_CSHL.c ****                             if (0u != (posFiltersMask & CapSense_MEDIAN_FILTER))
2008:Generated_Source\PSoC4/CapSense_CSHL.c ****                             {
2009:Generated_Source\PSoC4/CapSense_CSHL.c ****                                 tempPos = (uint8) position;
2010:Generated_Source\PSoC4/CapSense_CSHL.c ****                                 position = CapSense_MedianFilter(position,
2011:Generated_Source\PSoC4/CapSense_CSHL.c ****                                                                         CapSense_posFiltersData[pos
2012:Generated_Source\PSoC4/CapSense_CSHL.c ****                                                                         CapSense_posFiltersData[pos
2013:Generated_Source\PSoC4/CapSense_CSHL.c ****                                 CapSense_posFiltersData[posIndex + 1u] =
ARM GAS  C:\Users\jagumiel\AppData\Local\Temp\ccx0gHK6.s 			page 60


2014:Generated_Source\PSoC4/CapSense_CSHL.c ****                                                                               CapSense_posFiltersDa
2015:Generated_Source\PSoC4/CapSense_CSHL.c ****                                 CapSense_posFiltersData[posIndex] = tempPos;
2016:Generated_Source\PSoC4/CapSense_CSHL.c ****                             }
2017:Generated_Source\PSoC4/CapSense_CSHL.c ****                         #endif /* (0u != (CapSense_MEDIAN_FILTER &
2018:Generated_Source\PSoC4/CapSense_CSHL.c ****                                *          CapSense_RADIAL_SLIDERS_POS_FILTERS_MASK))
2019:Generated_Source\PSoC4/CapSense_CSHL.c ****                                */
2020:Generated_Source\PSoC4/CapSense_CSHL.c **** 
2021:Generated_Source\PSoC4/CapSense_CSHL.c ****                         #if (0u != (CapSense_AVERAGING_FILTER & \
2022:Generated_Source\PSoC4/CapSense_CSHL.c ****                                     CapSense_RADIAL_SLIDERS_POS_FILTERS_MASK))
2023:Generated_Source\PSoC4/CapSense_CSHL.c ****                             if (0u != (posFiltersMask & CapSense_AVERAGING_FILTER))
2024:Generated_Source\PSoC4/CapSense_CSHL.c ****                             {
2025:Generated_Source\PSoC4/CapSense_CSHL.c ****                                 tempPos = (uint8) position;
2026:Generated_Source\PSoC4/CapSense_CSHL.c ****                                 position = CapSense_AveragingFilter(position,
2027:Generated_Source\PSoC4/CapSense_CSHL.c ****                                                                        CapSense_posFiltersData[posI
2028:Generated_Source\PSoC4/CapSense_CSHL.c ****                                                                        CapSense_posFiltersData[posI
2029:Generated_Source\PSoC4/CapSense_CSHL.c ****                                 CapSense_posFiltersData[posIndex+1u]= CapSense_posFiltersData[posIn
2030:Generated_Source\PSoC4/CapSense_CSHL.c ****                                 CapSense_posFiltersData[posIndex] = tempPos;
2031:Generated_Source\PSoC4/CapSense_CSHL.c ****                             }
2032:Generated_Source\PSoC4/CapSense_CSHL.c ****                         #endif /* (0u != (CapSense_AVERAGING_FILTER & \
2033:Generated_Source\PSoC4/CapSense_CSHL.c ****                                *          CapSense_RADIAL_SLIDERS_POS_FILTERS_MASK))
2034:Generated_Source\PSoC4/CapSense_CSHL.c ****                                */
2035:Generated_Source\PSoC4/CapSense_CSHL.c **** 
2036:Generated_Source\PSoC4/CapSense_CSHL.c ****                         #if (0u != (CapSense_IIR2_FILTER & CapSense_RADIAL_SLIDERS_POS_FILTERS_MASK
2037:Generated_Source\PSoC4/CapSense_CSHL.c ****                             if (0u != (posFiltersMask & CapSense_IIR2_FILTER))
2038:Generated_Source\PSoC4/CapSense_CSHL.c ****                             {
2039:Generated_Source\PSoC4/CapSense_CSHL.c ****                                 position = CapSense_IIR2Filter(position,
2040:Generated_Source\PSoC4/CapSense_CSHL.c ****                                                                     (uint16)CapSense_posFiltersData
2041:Generated_Source\PSoC4/CapSense_CSHL.c ****                                 CapSense_posFiltersData[posIndex] = (uint8) position;
2042:Generated_Source\PSoC4/CapSense_CSHL.c ****                             }
2043:Generated_Source\PSoC4/CapSense_CSHL.c ****                         #endif /* (0u != (CapSense_IIR2_FILTER &
2044:Generated_Source\PSoC4/CapSense_CSHL.c ****                                *          CapSense_RADIAL_SLIDERS_POS_FILTERS_MASK))
2045:Generated_Source\PSoC4/CapSense_CSHL.c ****                                */
2046:Generated_Source\PSoC4/CapSense_CSHL.c **** 
2047:Generated_Source\PSoC4/CapSense_CSHL.c ****                         #if (0u != (CapSense_IIR4_FILTER & CapSense_RADIAL_SLIDERS_POS_FILTERS_MASK
2048:Generated_Source\PSoC4/CapSense_CSHL.c ****                             if (0u != (posFiltersMask & CapSense_IIR4_FILTER))
2049:Generated_Source\PSoC4/CapSense_CSHL.c ****                             {
2050:Generated_Source\PSoC4/CapSense_CSHL.c ****                                 position = CapSense_IIR4Filter(position,
2051:Generated_Source\PSoC4/CapSense_CSHL.c ****                                                                     (uint16)CapSense_posFiltersData
2052:Generated_Source\PSoC4/CapSense_CSHL.c ****                                 CapSense_posFiltersData[posIndex] = (uint8) position;
2053:Generated_Source\PSoC4/CapSense_CSHL.c ****                             }
2054:Generated_Source\PSoC4/CapSense_CSHL.c ****                         #endif /* (0u != (CapSense_IIR4_FILTER &
2055:Generated_Source\PSoC4/CapSense_CSHL.c ****                                *          CapSense_RADIAL_SLIDERS_POS_FILTERS_MASK))
2056:Generated_Source\PSoC4/CapSense_CSHL.c ****                                */
2057:Generated_Source\PSoC4/CapSense_CSHL.c **** 
2058:Generated_Source\PSoC4/CapSense_CSHL.c ****                         #if (0u != (CapSense_JITTER_FILTER & CapSense_RADIAL_SLIDERS_POS_FILTERS_MA
2059:Generated_Source\PSoC4/CapSense_CSHL.c ****                             if (0u != (posFiltersMask & CapSense_JITTER_FILTER))
2060:Generated_Source\PSoC4/CapSense_CSHL.c ****                             {
2061:Generated_Source\PSoC4/CapSense_CSHL.c ****                                 position = CapSense_JitterFilter(position,
2062:Generated_Source\PSoC4/CapSense_CSHL.c ****                                                                          CapSense_posFiltersData[po
2063:Generated_Source\PSoC4/CapSense_CSHL.c ****                                 CapSense_posFiltersData[posIndex] = (uint8) position;
2064:Generated_Source\PSoC4/CapSense_CSHL.c ****                             }
2065:Generated_Source\PSoC4/CapSense_CSHL.c ****                         #endif /* (0u != (CapSense_JITTER_FILTER &
2066:Generated_Source\PSoC4/CapSense_CSHL.c ****                                *           CapSense_RADIAL_SLIDERS_POS_FILTERS_MASK))
2067:Generated_Source\PSoC4/CapSense_CSHL.c ****                                */
2068:Generated_Source\PSoC4/CapSense_CSHL.c ****                     }
2069:Generated_Source\PSoC4/CapSense_CSHL.c ****                 }
2070:Generated_Source\PSoC4/CapSense_CSHL.c ****             #endif /* (0u != CapSense_RADIAL_SLIDERS_POS_FILTERS_MASK) */
ARM GAS  C:\Users\jagumiel\AppData\Local\Temp\ccx0gHK6.s 			page 61


2071:Generated_Source\PSoC4/CapSense_CSHL.c **** 
2072:Generated_Source\PSoC4/CapSense_CSHL.c ****         }
2073:Generated_Source\PSoC4/CapSense_CSHL.c ****         else
2074:Generated_Source\PSoC4/CapSense_CSHL.c ****         {
2075:Generated_Source\PSoC4/CapSense_CSHL.c ****             /* Maximum was not found */
2076:Generated_Source\PSoC4/CapSense_CSHL.c ****             position = 0xFFFFu;
2077:Generated_Source\PSoC4/CapSense_CSHL.c **** 
2078:Generated_Source\PSoC4/CapSense_CSHL.c ****             #if (0u != CapSense_RADIAL_SLIDERS_POS_FILTERS_MASK)
2079:Generated_Source\PSoC4/CapSense_CSHL.c ****                 /* Reset filters */
2080:Generated_Source\PSoC4/CapSense_CSHL.c ****                 if((posFiltersMask & CapSense_ANY_POS_FILTER) != 0u)
2081:Generated_Source\PSoC4/CapSense_CSHL.c ****                 {
2082:Generated_Source\PSoC4/CapSense_CSHL.c ****                     CapSense_posFiltersData[firstTimeIndex] = 0u;
2083:Generated_Source\PSoC4/CapSense_CSHL.c ****                 }
2084:Generated_Source\PSoC4/CapSense_CSHL.c ****             #endif /* (0u != CapSense_RADIAL_SLIDERS_POS_FILTERS_MASK) */
2085:Generated_Source\PSoC4/CapSense_CSHL.c ****         }
2086:Generated_Source\PSoC4/CapSense_CSHL.c **** 
2087:Generated_Source\PSoC4/CapSense_CSHL.c ****         return (position);
2088:Generated_Source\PSoC4/CapSense_CSHL.c ****     }
2089:Generated_Source\PSoC4/CapSense_CSHL.c **** #endif /* ((CapSense_TOTAL_RADIAL_SLIDERS_COUNT > 0u) || (CapSense_TOTAL_LINEAR_SLIDERS_COUNT > 0u)
2090:Generated_Source\PSoC4/CapSense_CSHL.c **** 
2091:Generated_Source\PSoC4/CapSense_CSHL.c **** 
2092:Generated_Source\PSoC4/CapSense_CSHL.c **** #if(CapSense_TOTAL_TOUCH_PADS_BASIC_COUNT > 0u)
2093:Generated_Source\PSoC4/CapSense_CSHL.c ****     /*******************************************************************************
2094:Generated_Source\PSoC4/CapSense_CSHL.c ****     * Function Name: CapSense_GetTouchCentroidPos
2095:Generated_Source\PSoC4/CapSense_CSHL.c ****     ********************************************************************************
2096:Generated_Source\PSoC4/CapSense_CSHL.c ****     *
2097:Generated_Source\PSoC4/CapSense_CSHL.c ****     * Summary:
2098:Generated_Source\PSoC4/CapSense_CSHL.c ****     *  If a finger is present on a touchpad, this function calculates the X and Y
2099:Generated_Source\PSoC4/CapSense_CSHL.c ****     *  position of the finger by calculating the centroids within touchpad specified
2100:Generated_Source\PSoC4/CapSense_CSHL.c ****     *  range. The X and Y positions are calculated according to the API resolutions set in the
2101:Generated_Source\PSoC4/CapSense_CSHL.c ****     *  CapSense customizer. Returns 1 if a finger is on the touchpad.
2102:Generated_Source\PSoC4/CapSense_CSHL.c ****     *  The position filter is applied to the result if enabled.
2103:Generated_Source\PSoC4/CapSense_CSHL.c ****     *  This function is available only if a touch pad is defined by the CapSense
2104:Generated_Source\PSoC4/CapSense_CSHL.c ****     *  customizer.
2105:Generated_Source\PSoC4/CapSense_CSHL.c ****     *
2106:Generated_Source\PSoC4/CapSense_CSHL.c ****     * Parameters:
2107:Generated_Source\PSoC4/CapSense_CSHL.c ****     *  widget:  Widget number.
2108:Generated_Source\PSoC4/CapSense_CSHL.c ****     *  For every touchpad widget there are defines in this format:
2109:Generated_Source\PSoC4/CapSense_CSHL.c ****     *  #define CapSense_"widget_name"__TP            5
2110:Generated_Source\PSoC4/CapSense_CSHL.c ****     *
2111:Generated_Source\PSoC4/CapSense_CSHL.c ****     *  pos:     Pointer to the array of two uint16 elements, where result
2112:Generated_Source\PSoC4/CapSense_CSHL.c ****     *  result of calculation of X and Y position are stored.
2113:Generated_Source\PSoC4/CapSense_CSHL.c ****     *  pos[0u]  - position of X
2114:Generated_Source\PSoC4/CapSense_CSHL.c ****     *  pos[1u]  - position of Y
2115:Generated_Source\PSoC4/CapSense_CSHL.c ****     *
2116:Generated_Source\PSoC4/CapSense_CSHL.c ****     * Return:
2117:Generated_Source\PSoC4/CapSense_CSHL.c ****     *  Returns a 1 if a finger is on the touch pad, 0 - if not.
2118:Generated_Source\PSoC4/CapSense_CSHL.c ****     *
2119:Generated_Source\PSoC4/CapSense_CSHL.c ****     * Global Variables:
2120:Generated_Source\PSoC4/CapSense_CSHL.c ****     *  None.
2121:Generated_Source\PSoC4/CapSense_CSHL.c ****     *
2122:Generated_Source\PSoC4/CapSense_CSHL.c ****     * Side Effects:
2123:Generated_Source\PSoC4/CapSense_CSHL.c ****     *   There are no checks of the widget type argument provided to this function.
2124:Generated_Source\PSoC4/CapSense_CSHL.c ****     *   The unproper widget type provided will cause unexpected position
2125:Generated_Source\PSoC4/CapSense_CSHL.c ****     *   calculations.
2126:Generated_Source\PSoC4/CapSense_CSHL.c ****     *
2127:Generated_Source\PSoC4/CapSense_CSHL.c ****     *******************************************************************************/
ARM GAS  C:\Users\jagumiel\AppData\Local\Temp\ccx0gHK6.s 			page 62


2128:Generated_Source\PSoC4/CapSense_CSHL.c ****     uint32 CapSense_GetTouchCentroidPos(uint32 widget, uint16* pos)
2129:Generated_Source\PSoC4/CapSense_CSHL.c ****     {
2130:Generated_Source\PSoC4/CapSense_CSHL.c ****         #if (0u != CapSense_TOUCH_PADS_POS_FILTERS_MASK)
2131:Generated_Source\PSoC4/CapSense_CSHL.c ****             uint8 posXIndex;
2132:Generated_Source\PSoC4/CapSense_CSHL.c ****             uint8 posYIndex;
2133:Generated_Source\PSoC4/CapSense_CSHL.c ****             uint8 firstTimeIndex = CapSense_posFiltersData[widget];
2134:Generated_Source\PSoC4/CapSense_CSHL.c ****             uint8 posFiltersMask = CapSense_posFiltersMask[widget];
2135:Generated_Source\PSoC4/CapSense_CSHL.c ****         #endif /* (0u != CapSense_TOUCH_PADS_POS_FILTERS_MASK) */
2136:Generated_Source\PSoC4/CapSense_CSHL.c **** 
2137:Generated_Source\PSoC4/CapSense_CSHL.c ****         #if ((0u != (CapSense_MEDIAN_FILTER & CapSense_TOUCH_PADS_POS_FILTERS_MASK)) || \
2138:Generated_Source\PSoC4/CapSense_CSHL.c ****              (0u != (CapSense_AVERAGING_FILTER & CapSense_TOUCH_PADS_POS_FILTERS_MASK)))
2139:Generated_Source\PSoC4/CapSense_CSHL.c ****             uint16 tempPos;
2140:Generated_Source\PSoC4/CapSense_CSHL.c ****         #endif /* ((0u != (CapSense_MEDIAN_FILTER & CapSense_TOUCH_PADS_POS_FILTERS_MASK)) || \
2141:Generated_Source\PSoC4/CapSense_CSHL.c ****                *   (0u != (CapSense_AVERAGING_FILTER & CapSense_TOUCH_PADS_POS_FILTERS_MASK)))
2142:Generated_Source\PSoC4/CapSense_CSHL.c ****                */
2143:Generated_Source\PSoC4/CapSense_CSHL.c **** 
2144:Generated_Source\PSoC4/CapSense_CSHL.c ****         uint8 MaxX;
2145:Generated_Source\PSoC4/CapSense_CSHL.c ****         uint8 MaxY;
2146:Generated_Source\PSoC4/CapSense_CSHL.c ****         uint8 posX;
2147:Generated_Source\PSoC4/CapSense_CSHL.c ****         uint8 posY;
2148:Generated_Source\PSoC4/CapSense_CSHL.c ****         uint32 touch = 0u;
2149:Generated_Source\PSoC4/CapSense_CSHL.c ****         uint8 offset = CapSense_rawDataIndex[widget];
2150:Generated_Source\PSoC4/CapSense_CSHL.c ****         uint8 count = CapSense_numberOfSensors[widget];
2151:Generated_Source\PSoC4/CapSense_CSHL.c **** 
2152:Generated_Source\PSoC4/CapSense_CSHL.c ****         /* Find Maximum within X centroid */
2153:Generated_Source\PSoC4/CapSense_CSHL.c ****         #if (CapSense_IS_DIPLEX_SLIDER)
2154:Generated_Source\PSoC4/CapSense_CSHL.c ****             MaxX = CapSense_FindMaximum(offset, count, CapSense_fingerThreshold[widget], 0u);
2155:Generated_Source\PSoC4/CapSense_CSHL.c ****         #else
2156:Generated_Source\PSoC4/CapSense_CSHL.c ****             MaxX = CapSense_FindMaximum(offset, count, CapSense_fingerThreshold[widget]);
2157:Generated_Source\PSoC4/CapSense_CSHL.c ****         #endif /* (CapSense_IS_DIPLEX_SLIDER) */
2158:Generated_Source\PSoC4/CapSense_CSHL.c **** 
2159:Generated_Source\PSoC4/CapSense_CSHL.c ****         if (MaxX != CapSense_MAXIMUM_CENTROID)
2160:Generated_Source\PSoC4/CapSense_CSHL.c ****         {
2161:Generated_Source\PSoC4/CapSense_CSHL.c ****             offset = CapSense_rawDataIndex[widget + 1u];
2162:Generated_Source\PSoC4/CapSense_CSHL.c ****             count = CapSense_numberOfSensors[widget + 1u];
2163:Generated_Source\PSoC4/CapSense_CSHL.c **** 
2164:Generated_Source\PSoC4/CapSense_CSHL.c ****             /* Find Maximum within Y centroid */
2165:Generated_Source\PSoC4/CapSense_CSHL.c ****             #if (CapSense_IS_DIPLEX_SLIDER)
2166:Generated_Source\PSoC4/CapSense_CSHL.c ****                 MaxY = CapSense_FindMaximum(offset, count, CapSense_fingerThreshold[widget + 1u], 0
2167:Generated_Source\PSoC4/CapSense_CSHL.c ****             #else
2168:Generated_Source\PSoC4/CapSense_CSHL.c ****                 MaxY = CapSense_FindMaximum(offset, count, CapSense_fingerThreshold[widget + 1u]);
2169:Generated_Source\PSoC4/CapSense_CSHL.c ****             #endif /* (CapSense_IS_DIPLEX_SLIDER) */
2170:Generated_Source\PSoC4/CapSense_CSHL.c **** 
2171:Generated_Source\PSoC4/CapSense_CSHL.c ****             if (MaxY != CapSense_MAXIMUM_CENTROID)
2172:Generated_Source\PSoC4/CapSense_CSHL.c ****             {
2173:Generated_Source\PSoC4/CapSense_CSHL.c ****                 /* X and Y maximums are found = true touch */
2174:Generated_Source\PSoC4/CapSense_CSHL.c ****                 touch = 1u;
2175:Generated_Source\PSoC4/CapSense_CSHL.c **** 
2176:Generated_Source\PSoC4/CapSense_CSHL.c ****                 /* Calculate Y centroid */
2177:Generated_Source\PSoC4/CapSense_CSHL.c ****                 posY = CapSense_CalcCentroid(MaxY, offset, count,
2178:Generated_Source\PSoC4/CapSense_CSHL.c ****                             CapSense_centroidMult[widget + 1u], CapSense_noiseThreshold[widget + 1u
2179:Generated_Source\PSoC4/CapSense_CSHL.c **** 
2180:Generated_Source\PSoC4/CapSense_CSHL.c ****                 /* Calculate X centroid */
2181:Generated_Source\PSoC4/CapSense_CSHL.c ****                 offset = CapSense_rawDataIndex[widget];
2182:Generated_Source\PSoC4/CapSense_CSHL.c ****                 count = CapSense_numberOfSensors[widget];
2183:Generated_Source\PSoC4/CapSense_CSHL.c **** 
2184:Generated_Source\PSoC4/CapSense_CSHL.c ****                 posX = CapSense_CalcCentroid(MaxX, offset, count,
ARM GAS  C:\Users\jagumiel\AppData\Local\Temp\ccx0gHK6.s 			page 63


2185:Generated_Source\PSoC4/CapSense_CSHL.c ****                             CapSense_centroidMult[widget],CapSense_noiseThreshold[widget]);
2186:Generated_Source\PSoC4/CapSense_CSHL.c **** 
2187:Generated_Source\PSoC4/CapSense_CSHL.c ****                 #if (0u != CapSense_TOUCH_PADS_POS_FILTERS_MASK)
2188:Generated_Source\PSoC4/CapSense_CSHL.c ****                     /* Check if this TP has enabled filters */
2189:Generated_Source\PSoC4/CapSense_CSHL.c ****                     if (0u != (posFiltersMask & CapSense_ANY_POS_FILTER))
2190:Generated_Source\PSoC4/CapSense_CSHL.c ****                     {
2191:Generated_Source\PSoC4/CapSense_CSHL.c ****                         /* Calculate position to store filters data */
2192:Generated_Source\PSoC4/CapSense_CSHL.c ****                         posXIndex  = firstTimeIndex + 1u;
2193:Generated_Source\PSoC4/CapSense_CSHL.c ****                         posYIndex  = CapSense_posFiltersData[widget + 1u];
2194:Generated_Source\PSoC4/CapSense_CSHL.c **** 
2195:Generated_Source\PSoC4/CapSense_CSHL.c ****                         if (0u == CapSense_posFiltersData[firstTimeIndex])
2196:Generated_Source\PSoC4/CapSense_CSHL.c ****                         {
2197:Generated_Source\PSoC4/CapSense_CSHL.c ****                             /* Init filters */
2198:Generated_Source\PSoC4/CapSense_CSHL.c ****                             CapSense_posFiltersData[posXIndex] = posX;
2199:Generated_Source\PSoC4/CapSense_CSHL.c ****                             CapSense_posFiltersData[posYIndex] = posY;
2200:Generated_Source\PSoC4/CapSense_CSHL.c **** 
2201:Generated_Source\PSoC4/CapSense_CSHL.c ****                             #if((0u != (CapSense_MEDIAN_FILTER & \
2202:Generated_Source\PSoC4/CapSense_CSHL.c ****                                         CapSense_TOUCH_PADS_POS_FILTERS_MASK))|| \
2203:Generated_Source\PSoC4/CapSense_CSHL.c ****                                 (0u != (CapSense_AVERAGING_FILTER & \
2204:Generated_Source\PSoC4/CapSense_CSHL.c ****                                         CapSense_TOUCH_PADS_POS_FILTERS_MASK)))
2205:Generated_Source\PSoC4/CapSense_CSHL.c **** 
2206:Generated_Source\PSoC4/CapSense_CSHL.c ****                                 if ( (0u != (posFiltersMask & CapSense_MEDIAN_FILTER)) ||
2207:Generated_Source\PSoC4/CapSense_CSHL.c ****                                      (0u != (posFiltersMask & CapSense_AVERAGING_FILTER)) )
2208:Generated_Source\PSoC4/CapSense_CSHL.c ****                                 {
2209:Generated_Source\PSoC4/CapSense_CSHL.c ****                                     CapSense_posFiltersData[posXIndex + 1u] = posX;
2210:Generated_Source\PSoC4/CapSense_CSHL.c ****                                     CapSense_posFiltersData[posYIndex + 1u] = posY;
2211:Generated_Source\PSoC4/CapSense_CSHL.c ****                                 }
2212:Generated_Source\PSoC4/CapSense_CSHL.c ****                             #endif /* ((0u != (CapSense_MEDIAN_FILTER & \
2213:Generated_Source\PSoC4/CapSense_CSHL.c ****                                    *           CapSense_TOUCH_PADS_POS_FILTERS_MASK)) || \
2214:Generated_Source\PSoC4/CapSense_CSHL.c ****                                    *    (0u != (CapSense_AVERAGING_FILTER & \
2215:Generated_Source\PSoC4/CapSense_CSHL.c ****                                    *            CapSense_TOUCH_PADS_POS_FILTERS_MASK)))
2216:Generated_Source\PSoC4/CapSense_CSHL.c ****                                    */
2217:Generated_Source\PSoC4/CapSense_CSHL.c **** 
2218:Generated_Source\PSoC4/CapSense_CSHL.c ****                             CapSense_posFiltersData[firstTimeIndex] = 1u;
2219:Generated_Source\PSoC4/CapSense_CSHL.c ****                         }
2220:Generated_Source\PSoC4/CapSense_CSHL.c ****                         else
