ARM GAS  C:\Users\jagumiel\AppData\Local\Temp\cciwnSev.s 			page 1


   1              		.syntax unified
   2              		.cpu cortex-m0
   3              		.fpu softvfp
   4              		.eabi_attribute 20, 1
   5              		.eabi_attribute 21, 1
   6              		.eabi_attribute 23, 3
   7              		.eabi_attribute 24, 1
   8              		.eabi_attribute 25, 1
   9              		.eabi_attribute 26, 1
  10              		.eabi_attribute 30, 1
  11              		.eabi_attribute 34, 0
  12              		.eabi_attribute 18, 4
  13              		.thumb
  14              		.syntax unified
  15              		.file	"main.c"
  16              		.text
  17              	.Ltext0:
  18              		.cfi_sections	.debug_frame
  19              		.section	.text.writeChar,"ax",%progbits
  20              		.align	2
  21              		.global	writeChar
  22              		.code	16
  23              		.thumb_func
  24              		.type	writeChar, %function
  25              	writeChar:
  26              	.LFB35:
  27              		.file 1 "main.c"
   1:main.c        **** /* ========================================
   2:main.c        ****  *
   3:main.c        ****  * Copyright YOUR COMPANY, THE YEAR
   4:main.c        ****  * All Rights Reserved
   5:main.c        ****  * UNPUBLISHED, LICENSED SOFTWARE.
   6:main.c        ****  *
   7:main.c        ****  * CONFIDENTIAL AND PROPRIETARY INFORMATION
   8:main.c        ****  * WHICH IS THE PROPERTY OF your company.
   9:main.c        ****  *
  10:main.c        ****  * ========================================
  11:main.c        **** */
  12:main.c        **** #include "project.h"
  13:main.c        **** #include "alphabet.h"
  14:main.c        **** #include "boardStatusLEDs.h"
  15:main.c        **** 
  16:main.c        **** /* Global Variables */
  17:main.c        **** static uint16_t character = 0x0000;
  18:main.c        **** 
  19:main.c        **** int dutyCMP=5;
  20:main.c        **** int j=0;
  21:main.c        **** char charReceived='A';
  22:main.c        **** char lastCharReceived='A';
  23:main.c        **** 
  24:main.c        **** /* Capsense Buttons */
  25:main.c        **** int status=0; //Which is the CapSense Status? Button 1, 2...
  26:main.c        **** 
  27:main.c        **** //Time Counters
  28:main.c        **** int msCounter=0;
  29:main.c        **** int brightnessCounter=0;
  30:main.c        **** 
ARM GAS  C:\Users\jagumiel\AppData\Local\Temp\cciwnSev.s 			page 2


  31:main.c        **** 
  32:main.c        **** /* Sets the data into the display. It sends 
  33:main.c        **** the 14-segments code to the driver via SPI */
  34:main.c        **** void writeChar(uint16_t myChar){
  28              		.loc 1 34 0
  29              		.cfi_startproc
  30              		@ args = 0, pretend = 0, frame = 0
  31              		@ frame_needed = 0, uses_anonymous_args = 0
  32              	.LVL0:
  33 0000 10B5     		push	{r4, lr}
  34              		.cfi_def_cfa_offset 8
  35              		.cfi_offset 4, -8
  36              		.cfi_offset 14, -4
  35:main.c        ****     SPI_1_SpiUartWriteTxData(myChar);
  37              		.loc 1 35 0
  38 0002 FFF7FEFF 		bl	SPI_1_SpiUartWriteTxData
  39              	.LVL1:
  36:main.c        ****     LE_Write(1);
  40              		.loc 1 36 0
  41 0006 0120     		movs	r0, #1
  42 0008 FFF7FEFF 		bl	LE_Write
  43              	.LVL2:
  37:main.c        ****     LE_Write(0);
  44              		.loc 1 37 0
  45 000c 0020     		movs	r0, #0
  46 000e FFF7FEFF 		bl	LE_Write
  47              	.LVL3:
  38:main.c        **** }
  48              		.loc 1 38 0
  49              		@ sp needed
  50 0012 10BD     		pop	{r4, pc}
  51              		.cfi_endproc
  52              	.LFE35:
  53              		.size	writeChar, .-writeChar
  54              		.section	.text.changeCharacter,"ax",%progbits
  55              		.align	2
  56              		.global	changeCharacter
  57              		.code	16
  58              		.thumb_func
  59              		.type	changeCharacter, %function
  60              	changeCharacter:
  61              	.LFB36:
  39:main.c        **** 
  40:main.c        **** 
  41:main.c        **** /* This function is expected to get the different 
  42:main.c        **** values stored in the "alphabet" array. */
  43:main.c        **** void changeCharacter(){
  62              		.loc 1 43 0
  63              		.cfi_startproc
  64              		@ args = 0, pretend = 0, frame = 0
  65              		@ frame_needed = 0, uses_anonymous_args = 0
  66              		@ link register save eliminated.
  44:main.c        ****     character=ALPHANUMR_CHAR_TABLE[j];
  67              		.loc 1 44 0
  68 0000 074A     		ldr	r2, .L5
  69 0002 1368     		ldr	r3, [r2]
  70 0004 5800     		lsls	r0, r3, #1
ARM GAS  C:\Users\jagumiel\AppData\Local\Temp\cciwnSev.s 			page 3


  71 0006 0749     		ldr	r1, .L5+4
  72 0008 415A     		ldrh	r1, [r0, r1]
  73 000a 9180     		strh	r1, [r2, #4]
  45:main.c        ****     if(j<50){
  74              		.loc 1 45 0
  75 000c 312B     		cmp	r3, #49
  76 000e 02DC     		bgt	.L3
  46:main.c        ****         j++;
  77              		.loc 1 46 0
  78 0010 0133     		adds	r3, r3, #1
  79 0012 1360     		str	r3, [r2]
  80 0014 02E0     		b	.L2
  81              	.L3:
  47:main.c        ****     }else{
  48:main.c        ****         j=0;
  82              		.loc 1 48 0
  83 0016 0022     		movs	r2, #0
  84 0018 014B     		ldr	r3, .L5
  85 001a 1A60     		str	r2, [r3]
  86              	.L2:
  49:main.c        ****     }
  50:main.c        **** }
  87              		.loc 1 50 0
  88              		@ sp needed
  89 001c 7047     		bx	lr
  90              	.L6:
  91 001e C046     		.align	2
  92              	.L5:
  93 0020 00000000 		.word	.LANCHOR0
  94 0024 00000000 		.word	.LANCHOR1
  95              		.cfi_endproc
  96              	.LFE36:
  97              		.size	changeCharacter, .-changeCharacter
  98              		.section	.text.changeCharacterByLetter,"ax",%progbits
  99              		.align	2
 100              		.global	changeCharacterByLetter
 101              		.code	16
 102              		.thumb_func
 103              		.type	changeCharacterByLetter, %function
 104              	changeCharacterByLetter:
 105              	.LFB37:
  51:main.c        **** 
  52:main.c        **** void changeCharacterByLetter(char myCharacter){
 106              		.loc 1 52 0
 107              		.cfi_startproc
 108              		@ args = 0, pretend = 0, frame = 0
 109              		@ frame_needed = 0, uses_anonymous_args = 0
 110              		@ link register save eliminated.
 111              	.LVL4:
 112              	.LBB2:
  53:main.c        ****     for(int i=0; i<50; i++){
 113              		.loc 1 53 0
 114 0000 0022     		movs	r2, #0
 115 0002 0FE0     		b	.L8
 116              	.LVL5:
 117              	.L10:
  54:main.c        ****         if(ALPHANUMR_CHAR_MATRIX[i][1]==myCharacter){
ARM GAS  C:\Users\jagumiel\AppData\Local\Temp\cciwnSev.s 			page 4


 118              		.loc 1 54 0
 119 0004 9300     		lsls	r3, r2, #2
 120 0006 0949     		ldr	r1, .L11
 121 0008 CB18     		adds	r3, r1, r3
 122 000a 6A33     		adds	r3, r3, #106
 123 000c 1988     		ldrh	r1, [r3]
 124 000e 83B2     		uxth	r3, r0
 125 0010 9942     		cmp	r1, r3
 126 0012 06D1     		bne	.L9
  55:main.c        ****             character=ALPHANUMR_CHAR_MATRIX[i][0];
 127              		.loc 1 55 0
 128 0014 9300     		lsls	r3, r2, #2
 129 0016 0549     		ldr	r1, .L11
 130 0018 CB18     		adds	r3, r1, r3
 131 001a 6821     		movs	r1, #104
 132 001c 595A     		ldrh	r1, [r3, r1]
 133 001e 044B     		ldr	r3, .L11+4
 134 0020 9980     		strh	r1, [r3, #4]
 135              	.L9:
  53:main.c        ****     for(int i=0; i<50; i++){
 136              		.loc 1 53 0 discriminator 2
 137 0022 0132     		adds	r2, r2, #1
 138              	.LVL6:
 139              	.L8:
  53:main.c        ****     for(int i=0; i<50; i++){
 140              		.loc 1 53 0 is_stmt 0 discriminator 1
 141 0024 312A     		cmp	r2, #49
 142 0026 EDDD     		ble	.L10
 143              	.LBE2:
  56:main.c        ****         }
  57:main.c        ****     }
  58:main.c        **** }
 144              		.loc 1 58 0 is_stmt 1
 145              		@ sp needed
 146 0028 7047     		bx	lr
 147              	.L12:
 148 002a C046     		.align	2
 149              	.L11:
 150 002c 00000000 		.word	.LANCHOR1
 151 0030 00000000 		.word	.LANCHOR0
 152              		.cfi_endproc
 153              	.LFE37:
 154              		.size	changeCharacterByLetter, .-changeCharacterByLetter
 155              		.section	.text.adjustBrightness,"ax",%progbits
 156              		.align	2
 157              		.global	adjustBrightness
 158              		.code	16
 159              		.thumb_func
 160              		.type	adjustBrightness, %function
 161              	adjustBrightness:
 162              	.LFB38:
  59:main.c        **** 
  60:main.c        **** int adjustBrightness(){ //Change the PWM comparator. (aka. Duty-Cycle).
 163              		.loc 1 60 0
 164              		.cfi_startproc
 165              		@ args = 0, pretend = 0, frame = 0
 166              		@ frame_needed = 0, uses_anonymous_args = 0
ARM GAS  C:\Users\jagumiel\AppData\Local\Temp\cciwnSev.s 			page 5


 167              		@ link register save eliminated.
  61:main.c        ****     if(dutyCMP<100){
 168              		.loc 1 61 0
 169 0000 064B     		ldr	r3, .L16
 170 0002 1B68     		ldr	r3, [r3]
 171 0004 632B     		cmp	r3, #99
 172 0006 03DC     		bgt	.L14
  62:main.c        ****         dutyCMP=dutyCMP+5;
 173              		.loc 1 62 0
 174 0008 0533     		adds	r3, r3, #5
 175 000a 044A     		ldr	r2, .L16
 176 000c 1360     		str	r3, [r2]
 177 000e 02E0     		b	.L15
 178              	.L14:
  63:main.c        ****     }else{
  64:main.c        ****         dutyCMP=5;
 179              		.loc 1 64 0
 180 0010 0522     		movs	r2, #5
 181 0012 024B     		ldr	r3, .L16
 182 0014 1A60     		str	r2, [r3]
 183              	.L15:
  65:main.c        ****     }
  66:main.c        ****     return(dutyCMP);
 184              		.loc 1 66 0
 185 0016 014B     		ldr	r3, .L16
 186 0018 1868     		ldr	r0, [r3]
  67:main.c        **** }
 187              		.loc 1 67 0
 188              		@ sp needed
 189 001a 7047     		bx	lr
 190              	.L17:
 191              		.align	2
 192              	.L16:
 193 001c 00000000 		.word	.LANCHOR2
 194              		.cfi_endproc
 195              	.LFE38:
 196              		.size	adjustBrightness, .-adjustBrightness
 197              		.section	.text.TC_ISR_Handler,"ax",%progbits
 198              		.align	2
 199              		.global	TC_ISR_Handler
 200              		.code	16
 201              		.thumb_func
 202              		.type	TC_ISR_Handler, %function
 203              	TC_ISR_Handler:
 204              	.LFB39:
  68:main.c        **** 
  69:main.c        **** 
  70:main.c        **** CY_ISR(TC_ISR_Handler){
 205              		.loc 1 70 0
 206              		.cfi_startproc
 207              		@ args = 0, pretend = 0, frame = 0
 208              		@ frame_needed = 0, uses_anonymous_args = 0
 209 0000 70B5     		push	{r4, r5, r6, lr}
 210              		.cfi_def_cfa_offset 16
 211              		.cfi_offset 4, -16
 212              		.cfi_offset 5, -12
 213              		.cfi_offset 6, -8
ARM GAS  C:\Users\jagumiel\AppData\Local\Temp\cciwnSev.s 			page 6


 214              		.cfi_offset 14, -4
  71:main.c        ****     uint32 IrqSource=PWM_1_GetInterruptSource();
 215              		.loc 1 71 0
 216 0002 FFF7FEFF 		bl	PWM_1_GetInterruptSource
 217              	.LVL7:
 218 0006 0400     		movs	r4, r0
 219              	.LVL8:
  72:main.c        ****     
  73:main.c        ****     if(IrqSource==PWM_1_INTR_MASK_CC_MATCH){
 220              		.loc 1 73 0
 221 0008 0228     		cmp	r0, #2
 222 000a 1BD1     		bne	.L19
  74:main.c        ****         writeChar(BLANK);
 223              		.loc 1 74 0
 224 000c 0020     		movs	r0, #0
 225              	.LVL9:
 226 000e FFF7FEFF 		bl	writeChar
 227              	.LVL10:
  75:main.c        ****         if (msCounter<50){ //50=1 second
 228              		.loc 1 75 0
 229 0012 1A4B     		ldr	r3, .L26
 230 0014 9B68     		ldr	r3, [r3, #8]
 231 0016 312B     		cmp	r3, #49
 232 0018 03DC     		bgt	.L20
  76:main.c        ****             msCounter++;
 233              		.loc 1 76 0
 234 001a 0133     		adds	r3, r3, #1
 235 001c 174A     		ldr	r2, .L26
 236 001e 9360     		str	r3, [r2, #8]
 237 0020 0CE0     		b	.L21
 238              	.L20:
  77:main.c        ****         }else{
  78:main.c        ****             msCounter=0;
 239              		.loc 1 78 0
 240 0022 164B     		ldr	r3, .L26
 241 0024 0022     		movs	r2, #0
 242 0026 9A60     		str	r2, [r3, #8]
  79:main.c        ****             if(status==1){
 243              		.loc 1 79 0
 244 0028 DB68     		ldr	r3, [r3, #12]
 245 002a 012B     		cmp	r3, #1
 246 002c 04D1     		bne	.L22
  80:main.c        ****                 changeCharacterByLetter(lastCharReceived);
 247              		.loc 1 80 0
 248 002e 144B     		ldr	r3, .L26+4
 249 0030 1879     		ldrb	r0, [r3, #4]
 250 0032 FFF7FEFF 		bl	changeCharacterByLetter
 251              	.LVL11:
 252 0036 01E0     		b	.L21
 253              	.L22:
  81:main.c        ****             }else{
  82:main.c        ****                 changeCharacter();   
 254              		.loc 1 82 0
 255 0038 FFF7FEFF 		bl	changeCharacter
 256              	.LVL12:
 257              	.L21:
  83:main.c        ****             }
ARM GAS  C:\Users\jagumiel\AppData\Local\Temp\cciwnSev.s 			page 7


  84:main.c        ****         }
  85:main.c        ****         PWM_1_ClearInterrupt(PWM_1_INTR_MASK_CC_MATCH);
 258              		.loc 1 85 0
 259 003c 0220     		movs	r0, #2
 260 003e FFF7FEFF 		bl	PWM_1_ClearInterrupt
 261              	.LVL13:
 262 0042 16E0     		b	.L23
 263              	.LVL14:
 264              	.L19:
  86:main.c        ****     }else if(IrqSource==PWM_1_INTR_MASK_TC){
 265              		.loc 1 86 0
 266 0044 0128     		cmp	r0, #1
 267 0046 14D1     		bne	.L23
  87:main.c        ****         writeChar(character);
 268              		.loc 1 87 0
 269 0048 0C4D     		ldr	r5, .L26
 270 004a A888     		ldrh	r0, [r5, #4]
 271              	.LVL15:
 272 004c FFF7FEFF 		bl	writeChar
 273              	.LVL16:
  88:main.c        ****         if(brightnessCounter<10){//Controls time to set the fadding effect.
 274              		.loc 1 88 0
 275 0050 2B69     		ldr	r3, [r5, #16]
 276 0052 092B     		cmp	r3, #9
 277 0054 03DC     		bgt	.L24
  89:main.c        ****             brightnessCounter++;
 278              		.loc 1 89 0
 279 0056 0133     		adds	r3, r3, #1
 280 0058 084A     		ldr	r2, .L26
 281 005a 1361     		str	r3, [r2, #16]
 282 005c 06E0     		b	.L25
 283              	.L24:
  90:main.c        ****         }else{
  91:main.c        ****             brightnessCounter=0;
 284              		.loc 1 91 0
 285 005e 0022     		movs	r2, #0
 286 0060 064B     		ldr	r3, .L26
 287 0062 1A61     		str	r2, [r3, #16]
  92:main.c        ****             PWM_1_WriteCompare(adjustBrightness());
 288              		.loc 1 92 0
 289 0064 FFF7FEFF 		bl	adjustBrightness
 290              	.LVL17:
 291 0068 FFF7FEFF 		bl	PWM_1_WriteCompare
 292              	.LVL18:
 293              	.L25:
  93:main.c        ****         }
  94:main.c        ****         PWM_1_ClearInterrupt(PWM_1_INTR_MASK_TC);
 294              		.loc 1 94 0
 295 006c 0120     		movs	r0, #1
 296 006e FFF7FEFF 		bl	PWM_1_ClearInterrupt
 297              	.LVL19:
 298              	.L23:
  95:main.c        ****     }
  96:main.c        ****     PWM_1_ClearInterrupt(IrqSource);
 299              		.loc 1 96 0
 300 0072 2000     		movs	r0, r4
 301 0074 FFF7FEFF 		bl	PWM_1_ClearInterrupt
ARM GAS  C:\Users\jagumiel\AppData\Local\Temp\cciwnSev.s 			page 8


 302              	.LVL20:
  97:main.c        **** }
 303              		.loc 1 97 0
 304              		@ sp needed
 305              	.LVL21:
 306 0078 70BD     		pop	{r4, r5, r6, pc}
 307              	.L27:
 308 007a C046     		.align	2
 309              	.L26:
 310 007c 00000000 		.word	.LANCHOR0
 311 0080 00000000 		.word	.LANCHOR2
 312              		.cfi_endproc
 313              	.LFE39:
 314              		.size	TC_ISR_Handler, .-TC_ISR_Handler
 315              		.section	.text.main,"ax",%progbits
 316              		.align	2
 317              		.global	main
 318              		.code	16
 319              		.thumb_func
 320              		.type	main, %function
 321              	main:
 322              	.LFB40:
  98:main.c        **** 
  99:main.c        **** 
 100:main.c        **** int main(void){
 323              		.loc 1 100 0
 324              		.cfi_startproc
 325              		@ Volatile: function does not return.
 326              		@ args = 0, pretend = 0, frame = 0
 327              		@ frame_needed = 0, uses_anonymous_args = 0
 328 0000 10B5     		push	{r4, lr}
 329              		.cfi_def_cfa_offset 8
 330              		.cfi_offset 4, -8
 331              		.cfi_offset 14, -4
 101:main.c        ****     
 102:main.c        ****     /* Enable global interrupts. */
 103:main.c        ****     CyGlobalIntEnable;
 332              		.loc 1 103 0
 333              		.syntax divided
 334              	@ 103 "main.c" 1
 335 0002 62B6     		CPSIE   i
 336              	@ 0 "" 2
 104:main.c        ****     /* PWM-Timer Interrupt */
 105:main.c        ****     TC_ISR_StartEx(TC_ISR_Handler);
 337              		.loc 1 105 0
 338              		.thumb
 339              		.syntax unified
 340 0004 2A48     		ldr	r0, .L34
 341 0006 FFF7FEFF 		bl	TC_ISR_StartEx
 342              	.LVL22:
 106:main.c        **** 
 107:main.c        ****     /* Component initialization/startup */
 108:main.c        ****     Clock_1_Start();
 343              		.loc 1 108 0
 344 000a FF20     		movs	r0, #255
 345 000c FFF7FEFF 		bl	Clock_1_StartEx
 346              	.LVL23:
ARM GAS  C:\Users\jagumiel\AppData\Local\Temp\cciwnSev.s 			page 9


 109:main.c        ****     SPI_1_Start();
 347              		.loc 1 109 0
 348 0010 FFF7FEFF 		bl	SPI_1_Start
 349              	.LVL24:
 110:main.c        ****     PWM_1_Start();
 350              		.loc 1 110 0
 351 0014 FFF7FEFF 		bl	PWM_1_Start
 352              	.LVL25:
 111:main.c        ****     UART_Start();
 353              		.loc 1 111 0
 354 0018 FFF7FEFF 		bl	UART_Start
 355              	.LVL26:
 112:main.c        ****     CapSense_Start();
 356              		.loc 1 112 0
 357 001c FFF7FEFF 		bl	CapSense_Start
 358              	.LVL27:
 113:main.c        ****     CapSense_InitializeAllBaselines();
 359              		.loc 1 113 0
 360 0020 FFF7FEFF 		bl	CapSense_InitializeAllBaselines
 361              	.LVL28:
 114:main.c        ****     
 115:main.c        ****     /*Turns off board LEDs*/
 116:main.c        ****     ST_OFF;
 362              		.loc 1 116 0
 363 0024 0120     		movs	r0, #1
 364 0026 FFF7FEFF 		bl	STR_Write
 365              	.LVL29:
 366 002a 0120     		movs	r0, #1
 367 002c FFF7FEFF 		bl	STG_Write
 368              	.LVL30:
 369 0030 0120     		movs	r0, #1
 370 0032 FFF7FEFF 		bl	STB_Write
 371              	.LVL31:
 372              	.L30:
 117:main.c        **** 
 118:main.c        ****     for(;;){
 119:main.c        ****         
 120:main.c        ****         /************ UART: GET CHARS FROM PC TERMINAL ************/
 121:main.c        ****         charReceived=UART_UartGetChar();
 373              		.loc 1 121 0
 374 0036 FFF7FEFF 		bl	UART_UartGetChar
 375              	.LVL32:
 376 003a C0B2     		uxtb	r0, r0
 377 003c 1D4B     		ldr	r3, .L34+4
 378 003e 5871     		strb	r0, [r3, #5]
 122:main.c        ****         if((charReceived!=_NULL) && (charReceived!=lastCharReceived) && (status==1)){
 379              		.loc 1 122 0
 380 0040 0028     		cmp	r0, #0
 381 0042 0BD0     		beq	.L29
 382              		.loc 1 122 0 is_stmt 0 discriminator 1
 383 0044 1B79     		ldrb	r3, [r3, #4]
 384 0046 9842     		cmp	r0, r3
 385 0048 08D0     		beq	.L29
 386              		.loc 1 122 0 discriminator 2
 387 004a 1B4B     		ldr	r3, .L34+8
 388 004c DB68     		ldr	r3, [r3, #12]
 389 004e 012B     		cmp	r3, #1
ARM GAS  C:\Users\jagumiel\AppData\Local\Temp\cciwnSev.s 			page 10


 390 0050 04D1     		bne	.L29
 123:main.c        ****             lastCharReceived=charReceived;
 391              		.loc 1 123 0 is_stmt 1
 392 0052 184B     		ldr	r3, .L34+4
 393 0054 1871     		strb	r0, [r3, #4]
 124:main.c        ****             UART_UartPutString("Introduce a character!\n\r");
 394              		.loc 1 124 0
 395 0056 1948     		ldr	r0, .L34+12
 396 0058 FFF7FEFF 		bl	UART_UartPutString
 397              	.LVL33:
 398              	.L29:
 125:main.c        ****         }
 126:main.c        ****         /**********************************************************/
 127:main.c        **** 
 128:main.c        ****         
 129:main.c        ****         /************ CAPSENSE: DETECTS IF A BUTTON WAS PRESSED ************/
 130:main.c        ****         if(!CapSense_IsBusy()){
 399              		.loc 1 130 0
 400 005c FFF7FEFF 		bl	CapSense_IsBusy
 401              	.LVL34:
 402 0060 0028     		cmp	r0, #0
 403 0062 E8D1     		bne	.L30
 131:main.c        ****             if (CapSense_CheckIsWidgetActive(CapSense_BUTTON0__BTN)){
 404              		.loc 1 131 0
 405 0064 FFF7FEFF 		bl	CapSense_CheckIsWidgetActive
 406              	.LVL35:
 407 0068 0028     		cmp	r0, #0
 408 006a 0BD0     		beq	.L31
 132:main.c        ****                 STR_ON;
 409              		.loc 1 132 0
 410 006c 0020     		movs	r0, #0
 411 006e FFF7FEFF 		bl	STR_Write
 412              	.LVL36:
 413 0072 0120     		movs	r0, #1
 414 0074 FFF7FEFF 		bl	STG_Write
 415              	.LVL37:
 416 0078 0120     		movs	r0, #1
 417 007a FFF7FEFF 		bl	STB_Write
 418              	.LVL38:
 133:main.c        ****                 status=1;
 419              		.loc 1 133 0
 420 007e 0122     		movs	r2, #1
 421 0080 0D4B     		ldr	r3, .L34+8
 422 0082 DA60     		str	r2, [r3, #12]
 423              	.L31:
 134:main.c        ****     		}
 135:main.c        ****     		if (CapSense_CheckIsWidgetActive(CapSense_BUTTON1__BTN)){
 424              		.loc 1 135 0
 425 0084 0120     		movs	r0, #1
 426 0086 FFF7FEFF 		bl	CapSense_CheckIsWidgetActive
 427              	.LVL39:
 428 008a 0028     		cmp	r0, #0
 429 008c 0BD0     		beq	.L32
 136:main.c        ****                 STG_ON;
 430              		.loc 1 136 0
 431 008e 0120     		movs	r0, #1
 432 0090 FFF7FEFF 		bl	STR_Write
ARM GAS  C:\Users\jagumiel\AppData\Local\Temp\cciwnSev.s 			page 11


 433              	.LVL40:
 434 0094 0020     		movs	r0, #0
 435 0096 FFF7FEFF 		bl	STG_Write
 436              	.LVL41:
 437 009a 0120     		movs	r0, #1
 438 009c FFF7FEFF 		bl	STB_Write
 439              	.LVL42:
 137:main.c        ****                 status=2;
 440              		.loc 1 137 0
 441 00a0 0222     		movs	r2, #2
 442 00a2 054B     		ldr	r3, .L34+8
 443 00a4 DA60     		str	r2, [r3, #12]
 444              	.L32:
 138:main.c        ****     		}
 139:main.c        ****             CapSense_UpdateEnabledBaselines();
 445              		.loc 1 139 0
 446 00a6 FFF7FEFF 		bl	CapSense_UpdateEnabledBaselines
 447              	.LVL43:
 140:main.c        ****             CapSense_ScanEnabledWidgets();
 448              		.loc 1 140 0
 449 00aa FFF7FEFF 		bl	CapSense_ScanEnabledWidgets
 450              	.LVL44:
 451 00ae C2E7     		b	.L30
 452              	.L35:
 453              		.align	2
 454              	.L34:
 455 00b0 00000000 		.word	TC_ISR_Handler
 456 00b4 00000000 		.word	.LANCHOR2
 457 00b8 00000000 		.word	.LANCHOR0
 458 00bc 00000000 		.word	.LC10
 459              		.cfi_endproc
 460              	.LFE40:
 461              		.size	main, .-main
 462              		.global	brightnessCounter
 463              		.global	msCounter
 464              		.global	status
 465              		.global	lastCharReceived
 466              		.global	charReceived
 467              		.global	j
 468              		.global	dutyCMP
 469              		.global	ALPHANUMR_CHAR_MATRIX
 470              		.global	ALPHANUMR_CHAR_TABLE
 471              		.global	BLANK
 472              		.section	.rodata
 473              		.align	2
 474              		.set	.LANCHOR1,. + 0
 475              		.type	ALPHANUMR_CHAR_TABLE, %object
 476              		.size	ALPHANUMR_CHAR_TABLE, 102
 477              	ALPHANUMR_CHAR_TABLE:
 478 0000 3F00     		.short	63
 479 0002 0600     		.short	6
 480 0004 1B03     		.short	795
 481 0006 0F03     		.short	783
 482 0008 2603     		.short	806
 483 000a 2D03     		.short	813
 484 000c 3D03     		.short	829
 485 000e 0700     		.short	7
ARM GAS  C:\Users\jagumiel\AppData\Local\Temp\cciwnSev.s 			page 12


 486 0010 3F03     		.short	831
 487 0012 2F03     		.short	815
 488 0014 3703     		.short	823
 489 0016 4F12     		.short	4687
 490 0018 3900     		.short	57
 491 001a 4F10     		.short	4175
 492 001c 3903     		.short	825
 493 001e 3103     		.short	817
 494 0020 3D02     		.short	573
 495 0022 3603     		.short	822
 496 0024 4010     		.short	4160
 497 0026 1E00     		.short	30
 498 0028 B005     		.short	1456
 499 002a 3800     		.short	56
 500 002c B620     		.short	8374
 501 002e 3624     		.short	9270
 502 0030 3F00     		.short	63
 503 0032 3303     		.short	819
 504 0034 3F44     		.short	17471
 505 0036 3307     		.short	1843
 506 0038 2D03     		.short	813
 507 003a 6310     		.short	4195
 508 003c 3E00     		.short	62
 509 003e B008     		.short	2224
 510 0040 360C     		.short	3126
 511 0042 802C     		.short	11392
 512 0044 8030     		.short	12416
 513 0046 8908     		.short	2185
 514 0048 0003     		.short	768
 515 004a 0040     		.short	16384
 516 004c 8008     		.short	2176
 517 004e 3900     		.short	57
 518 0050 0024     		.short	9216
 519 0052 0F00     		.short	15
 520 0054 8100     		.short	129
 521 0056 0800     		.short	8
 522 0058 4010     		.short	4160
 523 005a 4008     		.short	2112
 524 005c 8004     		.short	1152
 525 005e 7607     		.short	1910
 526 0060 0028     		.short	10240
 527 0062 2312     		.short	4643
 528 0064 7B02     		.short	635
 529 0066 0000     		.space	2
 530              		.type	ALPHANUMR_CHAR_MATRIX, %object
 531              		.size	ALPHANUMR_CHAR_MATRIX, 204
 532              	ALPHANUMR_CHAR_MATRIX:
 533 0068 3F00     		.short	63
 534 006a 3000     		.short	48
 535 006c 0600     		.short	6
 536 006e 3100     		.short	49
 537 0070 1B03     		.short	795
 538 0072 3200     		.short	50
 539 0074 0F03     		.short	783
 540 0076 3300     		.short	51
 541 0078 2603     		.short	806
 542 007a 3400     		.short	52
ARM GAS  C:\Users\jagumiel\AppData\Local\Temp\cciwnSev.s 			page 13


 543 007c 2D03     		.short	813
 544 007e 3500     		.short	53
 545 0080 3D03     		.short	829
 546 0082 3600     		.short	54
 547 0084 0700     		.short	7
 548 0086 3700     		.short	55
 549 0088 3F03     		.short	831
 550 008a 3800     		.short	56
 551 008c 2F03     		.short	815
 552 008e 3900     		.short	57
 553 0090 3703     		.short	823
 554 0092 4100     		.short	65
 555 0094 4F12     		.short	4687
 556 0096 4200     		.short	66
 557 0098 3900     		.short	57
 558 009a 4300     		.short	67
 559 009c 4F10     		.short	4175
 560 009e 4400     		.short	68
 561 00a0 3903     		.short	825
 562 00a2 4500     		.short	69
 563 00a4 3103     		.short	817
 564 00a6 4600     		.short	70
 565 00a8 3D02     		.short	573
 566 00aa 4700     		.short	71
 567 00ac 3603     		.short	822
 568 00ae 4800     		.short	72
 569 00b0 4010     		.short	4160
 570 00b2 4900     		.short	73
 571 00b4 1E00     		.short	30
 572 00b6 4A00     		.short	74
 573 00b8 B005     		.short	1456
 574 00ba 4B00     		.short	75
 575 00bc 3800     		.short	56
 576 00be 4C00     		.short	76
 577 00c0 B620     		.short	8374
 578 00c2 4D00     		.short	77
 579 00c4 3624     		.short	9270
 580 00c6 4E00     		.short	78
 581 00c8 3F00     		.short	63
 582 00ca 4F00     		.short	79
 583 00cc 3303     		.short	819
 584 00ce 5000     		.short	80
 585 00d0 3F44     		.short	17471
 586 00d2 5100     		.short	81
 587 00d4 3307     		.short	1843
 588 00d6 5200     		.short	82
 589 00d8 2D03     		.short	813
 590 00da 5300     		.short	83
 591 00dc 6310     		.short	4195
 592 00de 5400     		.short	84
 593 00e0 3E00     		.short	62
 594 00e2 5500     		.short	85
 595 00e4 B008     		.short	2224
 596 00e6 5600     		.short	86
 597 00e8 360C     		.short	3126
 598 00ea 5700     		.short	87
 599 00ec 802C     		.short	11392
ARM GAS  C:\Users\jagumiel\AppData\Local\Temp\cciwnSev.s 			page 14


 600 00ee 5800     		.short	88
 601 00f0 8030     		.short	12416
 602 00f2 5900     		.short	89
 603 00f4 8908     		.short	2185
 604 00f6 5A00     		.short	90
 605 00f8 0003     		.short	768
 606 00fa 2D00     		.short	45
 607 00fc 0040     		.short	16384
 608 00fe 2E00     		.short	46
 609 0100 8008     		.short	2176
 610 0102 2F00     		.short	47
 611 0104 3900     		.short	57
 612 0106 5B00     		.short	91
 613 0108 0024     		.short	9216
 614 010a 5C00     		.short	92
 615 010c 0F00     		.short	15
 616 010e 5D00     		.short	93
 617 0110 8100     		.short	129
 618 0112 5E00     		.short	94
 619 0114 0800     		.short	8
 620 0116 5F00     		.short	95
 621 0118 4010     		.short	4160
 622 011a 3A00     		.short	58
 623 011c 4008     		.short	2112
 624 011e 3B00     		.short	59
 625 0120 8004     		.short	1152
 626 0122 3C00     		.short	60
 627 0124 7607     		.short	1910
 628 0126 3D00     		.short	61
 629 0128 0028     		.short	10240
 630 012a 3E00     		.short	62
 631 012c 2312     		.short	4643
 632 012e 3F00     		.short	63
 633 0130 7B02     		.short	635
 634 0132 4000     		.short	64
 635              		.type	BLANK, %object
 636              		.size	BLANK, 2
 637              	BLANK:
 638 0134 0000     		.space	2
 639              		.data
 640              		.align	2
 641              		.set	.LANCHOR2,. + 0
 642              		.type	dutyCMP, %object
 643              		.size	dutyCMP, 4
 644              	dutyCMP:
 645 0000 05000000 		.word	5
 646              		.type	lastCharReceived, %object
 647              		.size	lastCharReceived, 1
 648              	lastCharReceived:
 649 0004 41       		.byte	65
 650              		.type	charReceived, %object
 651              		.size	charReceived, 1
 652              	charReceived:
 653 0005 41       		.byte	65
 654              		.section	.rodata.str1.4,"aMS",%progbits,1
 655              		.align	2
 656              	.LC10:
ARM GAS  C:\Users\jagumiel\AppData\Local\Temp\cciwnSev.s 			page 15


 657 0000 496E7472 		.ascii	"Introduce a character!\012\015\000"
 657      6F647563 
 657      65206120 
 657      63686172 
 657      61637465 
 658              		.bss
 659              		.align	2
 660              		.set	.LANCHOR0,. + 0
 661              		.type	j, %object
 662              		.size	j, 4
 663              	j:
 664 0000 00000000 		.space	4
 665              		.type	character, %object
 666              		.size	character, 2
 667              	character:
 668 0004 0000     		.space	2
 669 0006 0000     		.space	2
 670              		.type	msCounter, %object
 671              		.size	msCounter, 4
 672              	msCounter:
 673 0008 00000000 		.space	4
 674              		.type	status, %object
 675              		.size	status, 4
 676              	status:
 677 000c 00000000 		.space	4
 678              		.type	brightnessCounter, %object
 679              		.size	brightnessCounter, 4
 680              	brightnessCounter:
 681 0010 00000000 		.space	4
 682              		.text
 683              	.Letext0:
 684              		.file 2 "c:\\program files (x86)\\cypress\\psoc creator\\4.2\\psoc creator\\import\\gnu\\arm\\5.4.
 685              		.file 3 "c:\\program files (x86)\\cypress\\psoc creator\\4.2\\psoc creator\\import\\gnu\\arm\\5.4.
 686              		.file 4 "Generated_Source\\PSoC4/cytypes.h"
 687              		.file 5 "alphabet.h"
 688              		.file 6 "Generated_Source\\PSoC4/SPI_1_SPI_UART.h"
 689              		.file 7 "Generated_Source\\PSoC4/LE.h"
 690              		.file 8 "Generated_Source\\PSoC4/PWM_1.h"
 691              		.file 9 "Generated_Source\\PSoC4/TC_ISR.h"
 692              		.file 10 "Generated_Source\\PSoC4/Clock_1.h"
 693              		.file 11 "Generated_Source\\PSoC4/SPI_1.h"
 694              		.file 12 "Generated_Source\\PSoC4/UART.h"
 695              		.file 13 "Generated_Source\\PSoC4/CapSense.h"
 696              		.file 14 "Generated_Source\\PSoC4/CapSense_CSHL.h"
 697              		.file 15 "Generated_Source\\PSoC4/STR.h"
 698              		.file 16 "Generated_Source\\PSoC4/STG.h"
 699              		.file 17 "Generated_Source\\PSoC4/STB.h"
 700              		.file 18 "Generated_Source\\PSoC4/UART_SPI_UART.h"