ARM GAS  C:\Users\jagumiel\AppData\Local\Temp\ccJLLgJH.s 			page 1


   1              		.syntax unified
   2              		.cpu cortex-m0
   3              		.fpu softvfp
   4              		.eabi_attribute 20, 1
   5              		.eabi_attribute 21, 1
   6              		.eabi_attribute 23, 3
   7              		.eabi_attribute 24, 1
   8              		.eabi_attribute 25, 1
   9              		.eabi_attribute 26, 1
  10              		.eabi_attribute 30, 1
  11              		.eabi_attribute 34, 0
  12              		.eabi_attribute 18, 4
  13              		.thumb
  14              		.syntax unified
  15              		.file	"PWM_1_PM.c"
  16              		.text
  17              	.Ltext0:
  18              		.cfi_sections	.debug_frame
  19              		.section	.text.PWM_1_SaveConfig,"ax",%progbits
  20              		.align	2
  21              		.global	PWM_1_SaveConfig
  22              		.code	16
  23              		.thumb_func
  24              		.type	PWM_1_SaveConfig, %function
  25              	PWM_1_SaveConfig:
  26              	.LFB2:
  27              		.file 1 "Generated_Source\\PSoC4\\PWM_1_PM.c"
   1:Generated_Source\PSoC4/PWM_1_PM.c **** /*******************************************************************************
   2:Generated_Source\PSoC4/PWM_1_PM.c **** * File Name: PWM_1_PM.c
   3:Generated_Source\PSoC4/PWM_1_PM.c **** * Version 3.30
   4:Generated_Source\PSoC4/PWM_1_PM.c **** *
   5:Generated_Source\PSoC4/PWM_1_PM.c **** * Description:
   6:Generated_Source\PSoC4/PWM_1_PM.c **** *  This file provides the power management source code to API for the
   7:Generated_Source\PSoC4/PWM_1_PM.c **** *  PWM.
   8:Generated_Source\PSoC4/PWM_1_PM.c **** *
   9:Generated_Source\PSoC4/PWM_1_PM.c **** * Note:
  10:Generated_Source\PSoC4/PWM_1_PM.c **** *
  11:Generated_Source\PSoC4/PWM_1_PM.c **** ********************************************************************************
  12:Generated_Source\PSoC4/PWM_1_PM.c **** * Copyright 2008-2014, Cypress Semiconductor Corporation.  All rights reserved.
  13:Generated_Source\PSoC4/PWM_1_PM.c **** * You may use this file only in accordance with the license, terms, conditions,
  14:Generated_Source\PSoC4/PWM_1_PM.c **** * disclaimers, and limitations in the end user license agreement accompanying
  15:Generated_Source\PSoC4/PWM_1_PM.c **** * the software package with which this file was provided.
  16:Generated_Source\PSoC4/PWM_1_PM.c **** *******************************************************************************/
  17:Generated_Source\PSoC4/PWM_1_PM.c **** 
  18:Generated_Source\PSoC4/PWM_1_PM.c **** #include "PWM_1.h"
  19:Generated_Source\PSoC4/PWM_1_PM.c **** 
  20:Generated_Source\PSoC4/PWM_1_PM.c **** static PWM_1_backupStruct PWM_1_backup;
  21:Generated_Source\PSoC4/PWM_1_PM.c **** 
  22:Generated_Source\PSoC4/PWM_1_PM.c **** 
  23:Generated_Source\PSoC4/PWM_1_PM.c **** /*******************************************************************************
  24:Generated_Source\PSoC4/PWM_1_PM.c **** * Function Name: PWM_1_SaveConfig
  25:Generated_Source\PSoC4/PWM_1_PM.c **** ********************************************************************************
  26:Generated_Source\PSoC4/PWM_1_PM.c **** *
  27:Generated_Source\PSoC4/PWM_1_PM.c **** * Summary:
  28:Generated_Source\PSoC4/PWM_1_PM.c **** *  Saves the current user configuration of the component.
  29:Generated_Source\PSoC4/PWM_1_PM.c **** *
  30:Generated_Source\PSoC4/PWM_1_PM.c **** * Parameters:
ARM GAS  C:\Users\jagumiel\AppData\Local\Temp\ccJLLgJH.s 			page 2


  31:Generated_Source\PSoC4/PWM_1_PM.c **** *  None
  32:Generated_Source\PSoC4/PWM_1_PM.c **** *
  33:Generated_Source\PSoC4/PWM_1_PM.c **** * Return:
  34:Generated_Source\PSoC4/PWM_1_PM.c **** *  None
  35:Generated_Source\PSoC4/PWM_1_PM.c **** *
  36:Generated_Source\PSoC4/PWM_1_PM.c **** * Global variables:
  37:Generated_Source\PSoC4/PWM_1_PM.c **** *  PWM_1_backup:  Variables of this global structure are modified to
  38:Generated_Source\PSoC4/PWM_1_PM.c **** *  store the values of non retention configuration registers when Sleep() API is
  39:Generated_Source\PSoC4/PWM_1_PM.c **** *  called.
  40:Generated_Source\PSoC4/PWM_1_PM.c **** *
  41:Generated_Source\PSoC4/PWM_1_PM.c **** *******************************************************************************/
  42:Generated_Source\PSoC4/PWM_1_PM.c **** void PWM_1_SaveConfig(void) 
  43:Generated_Source\PSoC4/PWM_1_PM.c **** {
  28              		.loc 1 43 0
  29              		.cfi_startproc
  30              		@ args = 0, pretend = 0, frame = 0
  31              		@ frame_needed = 0, uses_anonymous_args = 0
  32 0000 10B5     		push	{r4, lr}
  33              		.cfi_def_cfa_offset 8
  34              		.cfi_offset 4, -8
  35              		.cfi_offset 14, -4
  44:Generated_Source\PSoC4/PWM_1_PM.c **** 
  45:Generated_Source\PSoC4/PWM_1_PM.c ****     #if(!PWM_1_UsingFixedFunction)
  46:Generated_Source\PSoC4/PWM_1_PM.c ****         #if(!PWM_1_PWMModeIsCenterAligned)
  47:Generated_Source\PSoC4/PWM_1_PM.c ****             PWM_1_backup.PWMPeriod = PWM_1_ReadPeriod();
  36              		.loc 1 47 0
  37 0002 FFF7FEFF 		bl	PWM_1_ReadPeriod
  38              	.LVL0:
  39 0006 064C     		ldr	r4, .L2
  40 0008 A080     		strh	r0, [r4, #4]
  48:Generated_Source\PSoC4/PWM_1_PM.c ****         #endif /* (!PWM_1_PWMModeIsCenterAligned) */
  49:Generated_Source\PSoC4/PWM_1_PM.c ****         PWM_1_backup.PWMUdb = PWM_1_ReadCounter();
  41              		.loc 1 49 0
  42 000a FFF7FEFF 		bl	PWM_1_ReadCounter
  43              	.LVL1:
  44 000e 6080     		strh	r0, [r4, #2]
  50:Generated_Source\PSoC4/PWM_1_PM.c ****         #if (PWM_1_UseStatus)
  51:Generated_Source\PSoC4/PWM_1_PM.c ****             PWM_1_backup.InterruptMaskValue = PWM_1_STATUS_MASK;
  45              		.loc 1 51 0
  46 0010 044B     		ldr	r3, .L2+4
  47 0012 1B78     		ldrb	r3, [r3]
  48 0014 A371     		strb	r3, [r4, #6]
  52:Generated_Source\PSoC4/PWM_1_PM.c ****         #endif /* (PWM_1_UseStatus) */
  53:Generated_Source\PSoC4/PWM_1_PM.c **** 
  54:Generated_Source\PSoC4/PWM_1_PM.c ****         #if(PWM_1_DeadBandMode == PWM_1__B_PWM__DBM_256_CLOCKS || \
  55:Generated_Source\PSoC4/PWM_1_PM.c ****             PWM_1_DeadBandMode == PWM_1__B_PWM__DBM_2_4_CLOCKS)
  56:Generated_Source\PSoC4/PWM_1_PM.c ****             PWM_1_backup.PWMdeadBandValue = PWM_1_ReadDeadTime();
  57:Generated_Source\PSoC4/PWM_1_PM.c ****         #endif /*  deadband count is either 2-4 clocks or 256 clocks */
  58:Generated_Source\PSoC4/PWM_1_PM.c **** 
  59:Generated_Source\PSoC4/PWM_1_PM.c ****         #if(PWM_1_KillModeMinTime)
  60:Generated_Source\PSoC4/PWM_1_PM.c ****              PWM_1_backup.PWMKillCounterPeriod = PWM_1_ReadKillTime();
  61:Generated_Source\PSoC4/PWM_1_PM.c ****         #endif /* (PWM_1_KillModeMinTime) */
  62:Generated_Source\PSoC4/PWM_1_PM.c **** 
  63:Generated_Source\PSoC4/PWM_1_PM.c ****         #if(PWM_1_UseControl)
  64:Generated_Source\PSoC4/PWM_1_PM.c ****             PWM_1_backup.PWMControlRegister = PWM_1_ReadControlRegister();
  49              		.loc 1 64 0
  50 0016 FFF7FEFF 		bl	PWM_1_ReadControlRegister
ARM GAS  C:\Users\jagumiel\AppData\Local\Temp\ccJLLgJH.s 			page 3


  51              	.LVL2:
  52 001a E071     		strb	r0, [r4, #7]
  65:Generated_Source\PSoC4/PWM_1_PM.c ****         #endif /* (PWM_1_UseControl) */
  66:Generated_Source\PSoC4/PWM_1_PM.c ****     #endif  /* (!PWM_1_UsingFixedFunction) */
  67:Generated_Source\PSoC4/PWM_1_PM.c **** }
  53              		.loc 1 67 0
  54              		@ sp needed
  55 001c 10BD     		pop	{r4, pc}
  56              	.L3:
  57 001e C046     		.align	2
  58              	.L2:
  59 0020 00000000 		.word	.LANCHOR0
  60 0024 83000F40 		.word	1074724995
  61              		.cfi_endproc
  62              	.LFE2:
  63              		.size	PWM_1_SaveConfig, .-PWM_1_SaveConfig
  64              		.section	.text.PWM_1_RestoreConfig,"ax",%progbits
  65              		.align	2
  66              		.global	PWM_1_RestoreConfig
  67              		.code	16
  68              		.thumb_func
  69              		.type	PWM_1_RestoreConfig, %function
  70              	PWM_1_RestoreConfig:
  71              	.LFB3:
  68:Generated_Source\PSoC4/PWM_1_PM.c **** 
  69:Generated_Source\PSoC4/PWM_1_PM.c **** 
  70:Generated_Source\PSoC4/PWM_1_PM.c **** /*******************************************************************************
  71:Generated_Source\PSoC4/PWM_1_PM.c **** * Function Name: PWM_1_RestoreConfig
  72:Generated_Source\PSoC4/PWM_1_PM.c **** ********************************************************************************
  73:Generated_Source\PSoC4/PWM_1_PM.c **** *
  74:Generated_Source\PSoC4/PWM_1_PM.c **** * Summary:
  75:Generated_Source\PSoC4/PWM_1_PM.c **** *  Restores the current user configuration of the component.
  76:Generated_Source\PSoC4/PWM_1_PM.c **** *
  77:Generated_Source\PSoC4/PWM_1_PM.c **** * Parameters:
  78:Generated_Source\PSoC4/PWM_1_PM.c **** *  None
  79:Generated_Source\PSoC4/PWM_1_PM.c **** *
  80:Generated_Source\PSoC4/PWM_1_PM.c **** * Return:
  81:Generated_Source\PSoC4/PWM_1_PM.c **** *  None
  82:Generated_Source\PSoC4/PWM_1_PM.c **** *
  83:Generated_Source\PSoC4/PWM_1_PM.c **** * Global variables:
  84:Generated_Source\PSoC4/PWM_1_PM.c **** *  PWM_1_backup:  Variables of this global structure are used to
  85:Generated_Source\PSoC4/PWM_1_PM.c **** *  restore the values of non retention registers on wakeup from sleep mode.
  86:Generated_Source\PSoC4/PWM_1_PM.c **** *
  87:Generated_Source\PSoC4/PWM_1_PM.c **** *******************************************************************************/
  88:Generated_Source\PSoC4/PWM_1_PM.c **** void PWM_1_RestoreConfig(void) 
  89:Generated_Source\PSoC4/PWM_1_PM.c **** {
  72              		.loc 1 89 0
  73              		.cfi_startproc
  74              		@ args = 0, pretend = 0, frame = 0
  75              		@ frame_needed = 0, uses_anonymous_args = 0
  76 0000 10B5     		push	{r4, lr}
  77              		.cfi_def_cfa_offset 8
  78              		.cfi_offset 4, -8
  79              		.cfi_offset 14, -4
  90:Generated_Source\PSoC4/PWM_1_PM.c ****         #if(!PWM_1_UsingFixedFunction)
  91:Generated_Source\PSoC4/PWM_1_PM.c ****             #if(!PWM_1_PWMModeIsCenterAligned)
  92:Generated_Source\PSoC4/PWM_1_PM.c ****                 PWM_1_WritePeriod(PWM_1_backup.PWMPeriod);
ARM GAS  C:\Users\jagumiel\AppData\Local\Temp\ccJLLgJH.s 			page 4


  80              		.loc 1 92 0
  81 0002 074C     		ldr	r4, .L5
  82 0004 A088     		ldrh	r0, [r4, #4]
  83 0006 FFF7FEFF 		bl	PWM_1_WritePeriod
  84              	.LVL3:
  93:Generated_Source\PSoC4/PWM_1_PM.c ****             #endif /* (!PWM_1_PWMModeIsCenterAligned) */
  94:Generated_Source\PSoC4/PWM_1_PM.c **** 
  95:Generated_Source\PSoC4/PWM_1_PM.c ****             PWM_1_WriteCounter(PWM_1_backup.PWMUdb);
  85              		.loc 1 95 0
  86 000a 6088     		ldrh	r0, [r4, #2]
  87 000c FFF7FEFF 		bl	PWM_1_WriteCounter
  88              	.LVL4:
  96:Generated_Source\PSoC4/PWM_1_PM.c **** 
  97:Generated_Source\PSoC4/PWM_1_PM.c ****             #if (PWM_1_UseStatus)
  98:Generated_Source\PSoC4/PWM_1_PM.c ****                 PWM_1_STATUS_MASK = PWM_1_backup.InterruptMaskValue;
  89              		.loc 1 98 0
  90 0010 A279     		ldrb	r2, [r4, #6]
  91 0012 044B     		ldr	r3, .L5+4
  92 0014 1A70     		strb	r2, [r3]
  99:Generated_Source\PSoC4/PWM_1_PM.c ****             #endif /* (PWM_1_UseStatus) */
 100:Generated_Source\PSoC4/PWM_1_PM.c **** 
 101:Generated_Source\PSoC4/PWM_1_PM.c ****             #if(PWM_1_DeadBandMode == PWM_1__B_PWM__DBM_256_CLOCKS || \
 102:Generated_Source\PSoC4/PWM_1_PM.c ****                 PWM_1_DeadBandMode == PWM_1__B_PWM__DBM_2_4_CLOCKS)
 103:Generated_Source\PSoC4/PWM_1_PM.c ****                 PWM_1_WriteDeadTime(PWM_1_backup.PWMdeadBandValue);
 104:Generated_Source\PSoC4/PWM_1_PM.c ****             #endif /* deadband count is either 2-4 clocks or 256 clocks */
 105:Generated_Source\PSoC4/PWM_1_PM.c **** 
 106:Generated_Source\PSoC4/PWM_1_PM.c ****             #if(PWM_1_KillModeMinTime)
 107:Generated_Source\PSoC4/PWM_1_PM.c ****                 PWM_1_WriteKillTime(PWM_1_backup.PWMKillCounterPeriod);
 108:Generated_Source\PSoC4/PWM_1_PM.c ****             #endif /* (PWM_1_KillModeMinTime) */
 109:Generated_Source\PSoC4/PWM_1_PM.c **** 
 110:Generated_Source\PSoC4/PWM_1_PM.c ****             #if(PWM_1_UseControl)
 111:Generated_Source\PSoC4/PWM_1_PM.c ****                 PWM_1_WriteControlRegister(PWM_1_backup.PWMControlRegister);
  93              		.loc 1 111 0
  94 0016 E079     		ldrb	r0, [r4, #7]
  95 0018 FFF7FEFF 		bl	PWM_1_WriteControlRegister
  96              	.LVL5:
 112:Generated_Source\PSoC4/PWM_1_PM.c ****             #endif /* (PWM_1_UseControl) */
 113:Generated_Source\PSoC4/PWM_1_PM.c ****         #endif  /* (!PWM_1_UsingFixedFunction) */
 114:Generated_Source\PSoC4/PWM_1_PM.c ****     }
  97              		.loc 1 114 0
  98              		@ sp needed
  99 001c 10BD     		pop	{r4, pc}
 100              	.L6:
 101 001e C046     		.align	2
 102              	.L5:
 103 0020 00000000 		.word	.LANCHOR0
 104 0024 83000F40 		.word	1074724995
 105              		.cfi_endproc
 106              	.LFE3:
 107              		.size	PWM_1_RestoreConfig, .-PWM_1_RestoreConfig
 108              		.section	.text.PWM_1_Sleep,"ax",%progbits
 109              		.align	2
 110              		.global	PWM_1_Sleep
 111              		.code	16
 112              		.thumb_func
 113              		.type	PWM_1_Sleep, %function
 114              	PWM_1_Sleep:
ARM GAS  C:\Users\jagumiel\AppData\Local\Temp\ccJLLgJH.s 			page 5


 115              	.LFB4:
 115:Generated_Source\PSoC4/PWM_1_PM.c **** 
 116:Generated_Source\PSoC4/PWM_1_PM.c **** 
 117:Generated_Source\PSoC4/PWM_1_PM.c **** /*******************************************************************************
 118:Generated_Source\PSoC4/PWM_1_PM.c **** * Function Name: PWM_1_Sleep
 119:Generated_Source\PSoC4/PWM_1_PM.c **** ********************************************************************************
 120:Generated_Source\PSoC4/PWM_1_PM.c **** *
 121:Generated_Source\PSoC4/PWM_1_PM.c **** * Summary:
 122:Generated_Source\PSoC4/PWM_1_PM.c **** *  Disables block's operation and saves the user configuration. Should be called
 123:Generated_Source\PSoC4/PWM_1_PM.c **** *  just prior to entering sleep.
 124:Generated_Source\PSoC4/PWM_1_PM.c **** *
 125:Generated_Source\PSoC4/PWM_1_PM.c **** * Parameters:
 126:Generated_Source\PSoC4/PWM_1_PM.c **** *  None
 127:Generated_Source\PSoC4/PWM_1_PM.c **** *
 128:Generated_Source\PSoC4/PWM_1_PM.c **** * Return:
 129:Generated_Source\PSoC4/PWM_1_PM.c **** *  None
 130:Generated_Source\PSoC4/PWM_1_PM.c **** *
 131:Generated_Source\PSoC4/PWM_1_PM.c **** * Global variables:
 132:Generated_Source\PSoC4/PWM_1_PM.c **** *  PWM_1_backup.PWMEnableState:  Is modified depending on the enable
 133:Generated_Source\PSoC4/PWM_1_PM.c **** *  state of the block before entering sleep mode.
 134:Generated_Source\PSoC4/PWM_1_PM.c **** *
 135:Generated_Source\PSoC4/PWM_1_PM.c **** *******************************************************************************/
 136:Generated_Source\PSoC4/PWM_1_PM.c **** void PWM_1_Sleep(void) 
 137:Generated_Source\PSoC4/PWM_1_PM.c **** {
 116              		.loc 1 137 0
 117              		.cfi_startproc
 118              		@ args = 0, pretend = 0, frame = 0
 119              		@ frame_needed = 0, uses_anonymous_args = 0
 120 0000 10B5     		push	{r4, lr}
 121              		.cfi_def_cfa_offset 8
 122              		.cfi_offset 4, -8
 123              		.cfi_offset 14, -4
 138:Generated_Source\PSoC4/PWM_1_PM.c ****     #if(PWM_1_UseControl)
 139:Generated_Source\PSoC4/PWM_1_PM.c ****         if(PWM_1_CTRL_ENABLE == (PWM_1_CONTROL & PWM_1_CTRL_ENABLE))
 124              		.loc 1 139 0
 125 0002 084B     		ldr	r3, .L10
 126 0004 1B78     		ldrb	r3, [r3]
 127 0006 5BB2     		sxtb	r3, r3
 128 0008 002B     		cmp	r3, #0
 129 000a 03DA     		bge	.L8
 140:Generated_Source\PSoC4/PWM_1_PM.c ****         {
 141:Generated_Source\PSoC4/PWM_1_PM.c ****             /*Component is enabled */
 142:Generated_Source\PSoC4/PWM_1_PM.c ****             PWM_1_backup.PWMEnableState = 1u;
 130              		.loc 1 142 0
 131 000c 0122     		movs	r2, #1
 132 000e 064B     		ldr	r3, .L10+4
 133 0010 1A70     		strb	r2, [r3]
 134 0012 02E0     		b	.L9
 135              	.L8:
 143:Generated_Source\PSoC4/PWM_1_PM.c ****         }
 144:Generated_Source\PSoC4/PWM_1_PM.c ****         else
 145:Generated_Source\PSoC4/PWM_1_PM.c ****         {
 146:Generated_Source\PSoC4/PWM_1_PM.c ****             /* Component is disabled */
 147:Generated_Source\PSoC4/PWM_1_PM.c ****             PWM_1_backup.PWMEnableState = 0u;
 136              		.loc 1 147 0
 137 0014 0022     		movs	r2, #0
 138 0016 044B     		ldr	r3, .L10+4
ARM GAS  C:\Users\jagumiel\AppData\Local\Temp\ccJLLgJH.s 			page 6


 139 0018 1A70     		strb	r2, [r3]
 140              	.L9:
 148:Generated_Source\PSoC4/PWM_1_PM.c ****         }
 149:Generated_Source\PSoC4/PWM_1_PM.c ****     #endif /* (PWM_1_UseControl) */
 150:Generated_Source\PSoC4/PWM_1_PM.c **** 
 151:Generated_Source\PSoC4/PWM_1_PM.c ****     /* Stop component */
 152:Generated_Source\PSoC4/PWM_1_PM.c ****     PWM_1_Stop();
 141              		.loc 1 152 0
 142 001a FFF7FEFF 		bl	PWM_1_Stop
 143              	.LVL6:
 153:Generated_Source\PSoC4/PWM_1_PM.c **** 
 154:Generated_Source\PSoC4/PWM_1_PM.c ****     /* Save registers configuration */
 155:Generated_Source\PSoC4/PWM_1_PM.c ****     PWM_1_SaveConfig();
 144              		.loc 1 155 0
 145 001e FFF7FEFF 		bl	PWM_1_SaveConfig
 146              	.LVL7:
 156:Generated_Source\PSoC4/PWM_1_PM.c **** }
 147              		.loc 1 156 0
 148              		@ sp needed
 149 0022 10BD     		pop	{r4, pc}
 150              	.L11:
 151              		.align	2
 152              	.L10:
 153 0024 73000F40 		.word	1074724979
 154 0028 00000000 		.word	.LANCHOR0
 155              		.cfi_endproc
 156              	.LFE4:
 157              		.size	PWM_1_Sleep, .-PWM_1_Sleep
 158              		.section	.text.PWM_1_Wakeup,"ax",%progbits
 159              		.align	2
 160              		.global	PWM_1_Wakeup
 161              		.code	16
 162              		.thumb_func
 163              		.type	PWM_1_Wakeup, %function
 164              	PWM_1_Wakeup:
 165              	.LFB5:
 157:Generated_Source\PSoC4/PWM_1_PM.c **** 
 158:Generated_Source\PSoC4/PWM_1_PM.c **** 
 159:Generated_Source\PSoC4/PWM_1_PM.c **** /*******************************************************************************
 160:Generated_Source\PSoC4/PWM_1_PM.c **** * Function Name: PWM_1_Wakeup
 161:Generated_Source\PSoC4/PWM_1_PM.c **** ********************************************************************************
 162:Generated_Source\PSoC4/PWM_1_PM.c **** *
 163:Generated_Source\PSoC4/PWM_1_PM.c **** * Summary:
 164:Generated_Source\PSoC4/PWM_1_PM.c **** *  Restores and enables the user configuration. Should be called just after
 165:Generated_Source\PSoC4/PWM_1_PM.c **** *  awaking from sleep.
 166:Generated_Source\PSoC4/PWM_1_PM.c **** *
 167:Generated_Source\PSoC4/PWM_1_PM.c **** * Parameters:
 168:Generated_Source\PSoC4/PWM_1_PM.c **** *  None
 169:Generated_Source\PSoC4/PWM_1_PM.c **** *
 170:Generated_Source\PSoC4/PWM_1_PM.c **** * Return:
 171:Generated_Source\PSoC4/PWM_1_PM.c **** *  None
 172:Generated_Source\PSoC4/PWM_1_PM.c **** *
 173:Generated_Source\PSoC4/PWM_1_PM.c **** * Global variables:
 174:Generated_Source\PSoC4/PWM_1_PM.c **** *  PWM_1_backup.pwmEnable:  Is used to restore the enable state of
 175:Generated_Source\PSoC4/PWM_1_PM.c **** *  block on wakeup from sleep mode.
 176:Generated_Source\PSoC4/PWM_1_PM.c **** *
 177:Generated_Source\PSoC4/PWM_1_PM.c **** *******************************************************************************/
ARM GAS  C:\Users\jagumiel\AppData\Local\Temp\ccJLLgJH.s 			page 7


 178:Generated_Source\PSoC4/PWM_1_PM.c **** void PWM_1_Wakeup(void) 
 179:Generated_Source\PSoC4/PWM_1_PM.c **** {
 166              		.loc 1 179 0
 167              		.cfi_startproc
 168              		@ args = 0, pretend = 0, frame = 0
 169              		@ frame_needed = 0, uses_anonymous_args = 0
 170 0000 10B5     		push	{r4, lr}
 171              		.cfi_def_cfa_offset 8
 172              		.cfi_offset 4, -8
 173              		.cfi_offset 14, -4
 180:Generated_Source\PSoC4/PWM_1_PM.c ****      /* Restore registers values */
 181:Generated_Source\PSoC4/PWM_1_PM.c ****     PWM_1_RestoreConfig();
 174              		.loc 1 181 0
 175 0002 FFF7FEFF 		bl	PWM_1_RestoreConfig
 176              	.LVL8:
 182:Generated_Source\PSoC4/PWM_1_PM.c **** 
 183:Generated_Source\PSoC4/PWM_1_PM.c ****     if(PWM_1_backup.PWMEnableState != 0u)
 177              		.loc 1 183 0
 178 0006 034B     		ldr	r3, .L14
 179 0008 1B78     		ldrb	r3, [r3]
 180 000a 002B     		cmp	r3, #0
 181 000c 01D0     		beq	.L12
 184:Generated_Source\PSoC4/PWM_1_PM.c ****     {
 185:Generated_Source\PSoC4/PWM_1_PM.c ****         /* Enable component's operation */
 186:Generated_Source\PSoC4/PWM_1_PM.c ****         PWM_1_Enable();
 182              		.loc 1 186 0
 183 000e FFF7FEFF 		bl	PWM_1_Enable
 184              	.LVL9:
 185              	.L12:
 187:Generated_Source\PSoC4/PWM_1_PM.c ****     } /* Do nothing if component's block was disabled before */
 188:Generated_Source\PSoC4/PWM_1_PM.c **** 
 189:Generated_Source\PSoC4/PWM_1_PM.c **** }
 186              		.loc 1 189 0
 187              		@ sp needed
 188 0012 10BD     		pop	{r4, pc}
 189              	.L15:
 190              		.align	2
 191              	.L14:
 192 0014 00000000 		.word	.LANCHOR0
 193              		.cfi_endproc
 194              	.LFE5:
 195              		.size	PWM_1_Wakeup, .-PWM_1_Wakeup
 196              		.bss
 197              		.align	2
 198              		.set	.LANCHOR0,. + 0
 199              		.type	PWM_1_backup, %object
 200              		.size	PWM_1_backup, 8
 201              	PWM_1_backup:
 202 0000 00000000 		.space	8
 202      00000000 
 203              		.text
 204              	.Letext0:
 205              		.file 2 "Generated_Source\\PSoC4\\cytypes.h"
 206              		.file 3 "Generated_Source\\PSoC4\\PWM_1.h"