ARM GAS  C:\Users\jagumiel\AppData\Local\Temp\cc1cPPqc.s 			page 1


   1              		.syntax unified
   2              		.cpu cortex-m0
   3              		.fpu softvfp
   4              		.eabi_attribute 20, 1
   5              		.eabi_attribute 21, 1
   6              		.eabi_attribute 23, 3
   7              		.eabi_attribute 24, 1
   8              		.eabi_attribute 25, 1
   9              		.eabi_attribute 26, 1
  10              		.eabi_attribute 30, 6
  11              		.eabi_attribute 34, 0
  12              		.eabi_attribute 18, 4
  13              		.thumb
  14              		.syntax unified
  15              		.file	"main.c"
  16              		.text
  17              	.Ltext0:
  18              		.cfi_sections	.debug_frame
  19              		.global	windowFlag
  20              		.bss
  21              		.align	2
  22              		.type	windowFlag, %object
  23              		.size	windowFlag, 4
  24              	windowFlag:
  25 0000 00000000 		.space	4
  26              		.global	dataReady
  27              		.type	dataReady, %object
  28              		.size	dataReady, 1
  29              	dataReady:
  30 0004 00       		.space	1
  31              		.global	channelFlag
  32              		.type	channelFlag, %object
  33              		.size	channelFlag, 1
  34              	channelFlag:
  35 0005 00       		.space	1
  36              		.section	.text.main,"ax",%progbits
  37              		.align	2
  38              		.global	main
  39              		.code	16
  40              		.thumb_func
  41              		.type	main, %function
  42              	main:
  43              	.LFB32:
  44              		.file 1 "main.c"
   1:main.c        **** /*******************************************************************************
   2:main.c        **** * File Name: main.c
   3:main.c        **** *
   4:main.c        **** * Version: 2.00
   5:main.c        **** *
   6:main.c        **** * Description:
   7:main.c        **** *  This example project shows how to sample four different channels using
   8:main.c        **** *  SAR MUX and ADC, and send channel output to HyperTerminal (PC) using UART.
   9:main.c        **** *
  10:main.c        **** ********************************************************************************
  11:main.c        **** * Copyright 2013-2018, Cypress Semiconductor Corporation. All rights reserved.
  12:main.c        **** * This software is owned by Cypress Semiconductor Corporation and is protected
  13:main.c        **** * by and subject to worldwide patent and copyright laws and treaties.
ARM GAS  C:\Users\jagumiel\AppData\Local\Temp\cc1cPPqc.s 			page 2


  14:main.c        **** * Therefore, you may use this software only as provided in the license agreement
  15:main.c        **** * accompanying the software package from which you obtained this software.
  16:main.c        **** * CYPRESS AND ITS SUPPLIERS MAKE NO WARRANTY OF ANY KIND, EXPRESS OR IMPLIED,
  17:main.c        **** * WITH REGARD TO THIS SOFTWARE, INCLUDING, BUT NOT LIMITED TO, NONINFRINGEMENT,
  18:main.c        **** * IMPLIED WARRANTIES OF MERCHANTABILITY AND FITNESS FOR A PARTICULAR PURPOSE.
  19:main.c        **** *******************************************************************************/
  20:main.c        **** 
  21:main.c        **** #include <project.h>
  22:main.c        **** 
  23:main.c        **** /* Macro definitions */
  24:main.c        **** #define LOW                 (0u)
  25:main.c        **** #define HIGH                (1u)
  26:main.c        **** #define CHANNEL_1           (0u)
  27:main.c        **** #define NO_OF_CHANNELS      (1u)
  28:main.c        **** #define CLEAR_SCREEN        (0x0C)
  29:main.c        **** #define CONVERT_TO_ASCII    (0x30u)
  30:main.c        **** 
  31:main.c        **** /* Resistor Values and Gain */
  32:main.c        **** #define RG                  (2200u)
  33:main.c        **** #define R1                  (10000u)
  34:main.c        **** #define GAIN                (1 + 2 * (float)R1 / RG)
  35:main.c        **** 
  36:main.c        **** /* Send the channel number and voltage to UART */
  37:main.c        **** static void SendChannelVoltage(uint8 channel, int16 mVolts);
  38:main.c        **** 
  39:main.c        **** /* Interrupt prototypes */
  40:main.c        **** CY_ISR_PROTO(ADC_ISR_Handler);
  41:main.c        **** 
  42:main.c        **** /* Global variables */
  43:main.c        **** volatile uint32 windowFlag    = 0u;
  44:main.c        **** volatile uint8  dataReady     = 0u;
  45:main.c        **** volatile uint8  channelFlag   = 0u;
  46:main.c        **** 
  47:main.c        **** 
  48:main.c        **** /*******************************************************************************
  49:main.c        **** * Function Name: main
  50:main.c        **** ********************************************************************************
  51:main.c        **** *
  52:main.c        **** * Summary:
  53:main.c        **** *  Performs the following tasks:
  54:main.c        **** *  - Start the components.
  55:main.c        **** *  - Starts ADC conversion.
  56:main.c        **** *  - Buffer ADC results.
  57:main.c        **** *  - Sends the result to HyperTerminal (PC) using UART.
  58:main.c        **** *  - Turns ON an LED when ADC input is outside the voltage 
  59:main.c        **** *     window of 1250mV to 3750mV.
  60:main.c        **** *
  61:main.c        **** * Parameters:
  62:main.c        **** *  None.
  63:main.c        **** *
  64:main.c        **** * Return:
  65:main.c        **** *  None.
  66:main.c        **** *
  67:main.c        **** *******************************************************************************/
  68:main.c        **** int main()
  69:main.c        **** {
  45              		.loc 1 69 0
ARM GAS  C:\Users\jagumiel\AppData\Local\Temp\cc1cPPqc.s 			page 3


  46              		.cfi_startproc
  47              		@ args = 0, pretend = 0, frame = 16
  48              		@ frame_needed = 1, uses_anonymous_args = 0
  49 0000 90B5     		push	{r4, r7, lr}
  50              		.cfi_def_cfa_offset 12
  51              		.cfi_offset 4, -12
  52              		.cfi_offset 7, -8
  53              		.cfi_offset 14, -4
  54 0002 85B0     		sub	sp, sp, #20
  55              		.cfi_def_cfa_offset 32
  56 0004 00AF     		add	r7, sp, #0
  57              		.cfi_def_cfa_register 7
  70:main.c        ****     uint8 channel = CHANNEL_1;
  58              		.loc 1 70 0
  59 0006 0D23     		movs	r3, #13
  60 0008 FB18     		adds	r3, r7, r3
  61 000a 0022     		movs	r2, #0
  62 000c 1A70     		strb	r2, [r3]
  71:main.c        ****     int16 adcVal[4u];
  72:main.c        ****     int16 mVolts;
  73:main.c        ****     int16 previousValue = 0;
  63              		.loc 1 73 0
  64 000e 0E23     		movs	r3, #14
  65 0010 FB18     		adds	r3, r7, r3
  66 0012 0022     		movs	r2, #0
  67 0014 1A80     		strh	r2, [r3]
  74:main.c        ****     
  75:main.c        ****     /* Start the Components */
  76:main.c        ****     UART_Start();
  68              		.loc 1 76 0
  69 0016 FFF7FEFF 		bl	UART_Start
  77:main.c        ****     ADC_Start();
  70              		.loc 1 77 0
  71 001a FFF7FEFF 		bl	ADC_Start
  78:main.c        ****     
  79:main.c        ****     /* Start ISRs */
  80:main.c        ****     ADC_IRQ_StartEx(ADC_ISR_Handler);
  72              		.loc 1 80 0
  73 001e 2B4B     		ldr	r3, .L8
  74 0020 1800     		movs	r0, r3
  75 0022 FFF7FEFF 		bl	ADC_IRQ_StartEx
  81:main.c        ****     
  82:main.c        ****     /* Enable global interrupts */
  83:main.c        ****     CyGlobalIntEnable;
  76              		.loc 1 83 0
  77              		.syntax divided
  78              	@ 83 "main.c" 1
  79 0026 62B6     		CPSIE   i
  80              	@ 0 "" 2
  84:main.c        **** 
  85:main.c        ****     /* Start ADC conversion */
  86:main.c        ****     ADC_StartConvert();
  81              		.loc 1 86 0
  82              		.thumb
  83              		.syntax unified
  84 0028 FFF7FEFF 		bl	ADC_StartConvert
  85              	.L7:
ARM GAS  C:\Users\jagumiel\AppData\Local\Temp\cc1cPPqc.s 			page 4


  87:main.c        ****     
  88:main.c        ****     for(;;)
  89:main.c        ****     {
  90:main.c        ****         while(dataReady == 0u)
  86              		.loc 1 90 0
  87 002c C046     		nop
  88              	.L2:
  89              		.loc 1 90 0 is_stmt 0 discriminator 1
  90 002e 284B     		ldr	r3, .L8+4
  91 0030 1B78     		ldrb	r3, [r3]
  92 0032 DBB2     		uxtb	r3, r3
  93 0034 002B     		cmp	r3, #0
  94 0036 FAD0     		beq	.L2
  91:main.c        ****         {
  92:main.c        ****             ; /* Wait for ADC conversion */
  93:main.c        ****         }
  94:main.c        ****         /* Buffer the results */
  95:main.c        ****         adcVal[CHANNEL_1] = ADC_GetResult16(CHANNEL_1);
  95              		.loc 1 95 0 is_stmt 1
  96 0038 0020     		movs	r0, #0
  97 003a FFF7FEFF 		bl	ADC_GetResult16
  98 003e 0300     		movs	r3, r0
  99 0040 1A00     		movs	r2, r3
 100 0042 3B00     		movs	r3, r7
 101 0044 1A80     		strh	r2, [r3]
  96:main.c        ****         
  97:main.c        ****         /* Check for ADC window limit interrupt */
  98:main.c        ****         if(windowFlag != 0u)
 102              		.loc 1 98 0
 103 0046 234B     		ldr	r3, .L8+8
 104 0048 1B68     		ldr	r3, [r3]
 105 004a 002B     		cmp	r3, #0
 106 004c 03D0     		beq	.L3
  99:main.c        ****         {
 100:main.c        ****             /* Turn ON the LED when input is outside the voltage window (1250mV - 3750mV) */
 101:main.c        ****             LED_Write(LOW);
 107              		.loc 1 101 0
 108 004e 0020     		movs	r0, #0
 109 0050 FFF7FEFF 		bl	LED_Write
 110 0054 02E0     		b	.L4
 111              	.L3:
 102:main.c        ****             
 103:main.c        ****             /* Note: If LED is active HIGH, then replace "LOW" with "HIGH" */
 104:main.c        ****         }
 105:main.c        ****         else
 106:main.c        ****         {
 107:main.c        ****             /* Turn OFF the LED when input is within the voltage window (250mV - 750mV) */
 108:main.c        ****             LED_Write(HIGH);
 112              		.loc 1 108 0
 113 0056 0120     		movs	r0, #1
 114 0058 FFF7FEFF 		bl	LED_Write
 115              	.L4:
 109:main.c        ****             
 110:main.c        ****             /* Note:If LED is active HIGH, then replace "HIGH" with "LOW" */
 111:main.c        ****         }
 112:main.c        ****         
 113:main.c        **** 
ARM GAS  C:\Users\jagumiel\AppData\Local\Temp\cc1cPPqc.s 			page 5


 114:main.c        ****         /* Convert the ADC counts of active channel to mVolts */
 115:main.c        ****         mVolts = ADC_CountsTo_mVolts(channel, adcVal[channel]);
 116              		.loc 1 115 0
 117 005c 0D23     		movs	r3, #13
 118 005e FB18     		adds	r3, r7, r3
 119 0060 1878     		ldrb	r0, [r3]
 120 0062 0D23     		movs	r3, #13
 121 0064 FB18     		adds	r3, r7, r3
 122 0066 1A78     		ldrb	r2, [r3]
 123 0068 3B00     		movs	r3, r7
 124 006a 5200     		lsls	r2, r2, #1
 125 006c D35E     		ldrsh	r3, [r2, r3]
 126 006e 0A22     		movs	r2, #10
 127 0070 BC18     		adds	r4, r7, r2
 128 0072 1900     		movs	r1, r3
 129 0074 FFF7FEFF 		bl	ADC_CountsTo_mVolts
 130 0078 0300     		movs	r3, r0
 131 007a 2380     		strh	r3, [r4]
 116:main.c        **** 
 117:main.c        ****         /* If ADC result or channel has been changed, send the data to UART */
 118:main.c        ****         if((previousValue != mVolts) || (channelFlag != 0u))
 132              		.loc 1 118 0
 133 007c 0E23     		movs	r3, #14
 134 007e FA18     		adds	r2, r7, r3
 135 0080 0A23     		movs	r3, #10
 136 0082 FB18     		adds	r3, r7, r3
 137 0084 0021     		movs	r1, #0
 138 0086 525E     		ldrsh	r2, [r2, r1]
 139 0088 0021     		movs	r1, #0
 140 008a 5B5E     		ldrsh	r3, [r3, r1]
 141 008c 9A42     		cmp	r2, r3
 142 008e 04D1     		bne	.L5
 143              		.loc 1 118 0 is_stmt 0 discriminator 1
 144 0090 114B     		ldr	r3, .L8+12
 145 0092 1B78     		ldrb	r3, [r3]
 146 0094 DBB2     		uxtb	r3, r3
 147 0096 002B     		cmp	r3, #0
 148 0098 13D0     		beq	.L6
 149              	.L5:
 119:main.c        ****         {    
 120:main.c        ****             SendChannelVoltage(channel, mVolts);
 150              		.loc 1 120 0 is_stmt 1
 151 009a 0A23     		movs	r3, #10
 152 009c FB18     		adds	r3, r7, r3
 153 009e 0022     		movs	r2, #0
 154 00a0 9A5E     		ldrsh	r2, [r3, r2]
 155 00a2 0D23     		movs	r3, #13
 156 00a4 FB18     		adds	r3, r7, r3
 157 00a6 1B78     		ldrb	r3, [r3]
 158 00a8 1100     		movs	r1, r2
 159 00aa 1800     		movs	r0, r3
 160 00ac FFF7FEFF 		bl	SendChannelVoltage
 121:main.c        ****             previousValue = mVolts;
 161              		.loc 1 121 0
 162 00b0 0E23     		movs	r3, #14
 163 00b2 FB18     		adds	r3, r7, r3
 164 00b4 0A22     		movs	r2, #10
ARM GAS  C:\Users\jagumiel\AppData\Local\Temp\cc1cPPqc.s 			page 6


 165 00b6 BA18     		adds	r2, r7, r2
 166 00b8 1288     		ldrh	r2, [r2]
 167 00ba 1A80     		strh	r2, [r3]
 122:main.c        ****             
 123:main.c        ****             /* Clear the flag */
 124:main.c        ****             channelFlag = 0u;
 168              		.loc 1 124 0
 169 00bc 064B     		ldr	r3, .L8+12
 170 00be 0022     		movs	r2, #0
 171 00c0 1A70     		strb	r2, [r3]
 172              	.L6:
 125:main.c        ****         }
 126:main.c        ****         dataReady = 0u;
 173              		.loc 1 126 0
 174 00c2 034B     		ldr	r3, .L8+4
 175 00c4 0022     		movs	r2, #0
 176 00c6 1A70     		strb	r2, [r3]
 127:main.c        ****     }
 177              		.loc 1 127 0
 178 00c8 B0E7     		b	.L7
 179              	.L9:
 180 00ca C046     		.align	2
 181              	.L8:
 182 00cc 00000000 		.word	ADC_ISR_Handler
 183 00d0 00000000 		.word	dataReady
 184 00d4 00000000 		.word	windowFlag
 185 00d8 00000000 		.word	channelFlag
 186              		.cfi_endproc
 187              	.LFE32:
 188              		.size	main, .-main
 189              		.section	.rodata
 190              		.align	2
 191              	.LC4:
 192 0000 4368616E 		.ascii	"Channel \000"
 192      6E656C20 
 192      00
 193 0009 000000   		.align	2
 194              	.LC6:
 195 000c 203D2000 		.ascii	" = \000"
 196              		.align	2
 197              	.LC8:
 198 0010 2D00     		.ascii	"-\000"
 199              		.global	__aeabi_uidiv
 200              		.global	__aeabi_uidivmod
 201 0012 0000     		.align	2
 202              	.LC10:
 203 0014 206D5600 		.ascii	" mV\000"
 204              		.section	.text.SendChannelVoltage,"ax",%progbits
 205              		.align	2
 206              		.code	16
 207              		.thumb_func
 208              		.type	SendChannelVoltage, %function
 209              	SendChannelVoltage:
 210              	.LFB33:
 128:main.c        **** }
 129:main.c        **** 
 130:main.c        **** /*******************************************************************************
ARM GAS  C:\Users\jagumiel\AppData\Local\Temp\cc1cPPqc.s 			page 7


 131:main.c        **** * Function Name: SendChannelVoltage
 132:main.c        **** ********************************************************************************
 133:main.c        **** *
 134:main.c        **** * Summary:
 135:main.c        **** *  Performs the following tasks:
 136:main.c        **** *   - Converts the channel number to ASCII character
 137:main.c        **** *   - Clears terminal screen
 138:main.c        **** *   - Sends the channel number and voltage to UART
 139:main.c        **** *
 140:main.c        **** * Parameters:
 141:main.c        **** *  uint8 channel : Channel Number
 142:main.c        **** *  int16 mVolts  : ADC counts    
 143:main.c        **** *
 144:main.c        **** * Return:
 145:main.c        **** *  None.
 146:main.c        **** *
 147:main.c        **** ********************************************************************************/
 148:main.c        **** static void SendChannelVoltage(uint8 channel, int16 mVolts)
 149:main.c        **** {
 211              		.loc 1 149 0
 212              		.cfi_startproc
 213              		@ args = 0, pretend = 0, frame = 8
 214              		@ frame_needed = 1, uses_anonymous_args = 0
 215 0000 80B5     		push	{r7, lr}
 216              		.cfi_def_cfa_offset 8
 217              		.cfi_offset 7, -8
 218              		.cfi_offset 14, -4
 219 0002 82B0     		sub	sp, sp, #8
 220              		.cfi_def_cfa_offset 16
 221 0004 00AF     		add	r7, sp, #0
 222              		.cfi_def_cfa_register 7
 223 0006 0200     		movs	r2, r0
 224 0008 FB1D     		adds	r3, r7, #7
 225 000a 1A70     		strb	r2, [r3]
 226 000c 3B1D     		adds	r3, r7, #4
 227 000e 0A1C     		adds	r2, r1, #0
 228 0010 1A80     		strh	r2, [r3]
 150:main.c        ****     /* Clear screen */ 
 151:main.c        ****     UART_UartPutChar(CLEAR_SCREEN);
 229              		.loc 1 151 0
 230 0012 0C20     		movs	r0, #12
 231 0014 FFF7FEFF 		bl	UART_SpiUartWriteTxData
 152:main.c        ****     UART_UartPutString("Channel ");
 232              		.loc 1 152 0
 233 0018 3F4B     		ldr	r3, .L12
 234 001a 1800     		movs	r0, r3
 235 001c FFF7FEFF 		bl	UART_UartPutString
 153:main.c        ****     
 154:main.c        ****     /* Display the channel number starting from 1 */
 155:main.c        ****     channel++;
 236              		.loc 1 155 0
 237 0020 FB1D     		adds	r3, r7, #7
 238 0022 1A78     		ldrb	r2, [r3]
 239 0024 FB1D     		adds	r3, r7, #7
 240 0026 0132     		adds	r2, r2, #1
 241 0028 1A70     		strb	r2, [r3]
 156:main.c        ****     channel += CONVERT_TO_ASCII;
ARM GAS  C:\Users\jagumiel\AppData\Local\Temp\cc1cPPqc.s 			page 8


 242              		.loc 1 156 0
 243 002a FB1D     		adds	r3, r7, #7
 244 002c FA1D     		adds	r2, r7, #7
 245 002e 1278     		ldrb	r2, [r2]
 246 0030 3032     		adds	r2, r2, #48
 247 0032 1A70     		strb	r2, [r3]
 157:main.c        ****     UART_UartPutChar(channel);
 248              		.loc 1 157 0
 249 0034 FB1D     		adds	r3, r7, #7
 250 0036 1B78     		ldrb	r3, [r3]
 251 0038 1800     		movs	r0, r3
 252 003a FFF7FEFF 		bl	UART_SpiUartWriteTxData
 158:main.c        ****     UART_UartPutString(" = ");
 253              		.loc 1 158 0
 254 003e 374B     		ldr	r3, .L12+4
 255 0040 1800     		movs	r0, r3
 256 0042 FFF7FEFF 		bl	UART_UartPutString
 159:main.c        ****     
 160:main.c        ****     /* Find the sign of the result */
 161:main.c        ****     if(mVolts < 0)
 257              		.loc 1 161 0
 258 0046 3B1D     		adds	r3, r7, #4
 259 0048 0022     		movs	r2, #0
 260 004a 9B5E     		ldrsh	r3, [r3, r2]
 261 004c 002B     		cmp	r3, #0
 262 004e 09DA     		bge	.L11
 162:main.c        ****     {
 163:main.c        ****         UART_UartPutString("-");
 263              		.loc 1 163 0
 264 0050 334B     		ldr	r3, .L12+8
 265 0052 1800     		movs	r0, r3
 266 0054 FFF7FEFF 		bl	UART_UartPutString
 164:main.c        ****         mVolts = -mVolts;
 267              		.loc 1 164 0
 268 0058 3B1D     		adds	r3, r7, #4
 269 005a 1B88     		ldrh	r3, [r3]
 270 005c 5B42     		rsbs	r3, r3, #0
 271 005e 9AB2     		uxth	r2, r3
 272 0060 3B1D     		adds	r3, r7, #4
 273 0062 1A80     		strh	r2, [r3]
 274              	.L11:
 165:main.c        ****     }
 166:main.c        ****         
 167:main.c        ****     /* Send voltage to UART */
 168:main.c        ****     UART_UartPutChar((mVolts/1000u) + CONVERT_TO_ASCII);
 275              		.loc 1 168 0
 276 0064 3B1D     		adds	r3, r7, #4
 277 0066 0022     		movs	r2, #0
 278 0068 9A5E     		ldrsh	r2, [r3, r2]
 279 006a FA23     		movs	r3, #250
 280 006c 9900     		lsls	r1, r3, #2
 281 006e 1000     		movs	r0, r2
 282 0070 FFF7FEFF 		bl	__aeabi_uidiv
 283 0074 0300     		movs	r3, r0
 284 0076 3033     		adds	r3, r3, #48
 285 0078 1800     		movs	r0, r3
 286 007a FFF7FEFF 		bl	UART_SpiUartWriteTxData
ARM GAS  C:\Users\jagumiel\AppData\Local\Temp\cc1cPPqc.s 			page 9


 169:main.c        ****     mVolts %= 1000u;
 287              		.loc 1 169 0
 288 007e 3B1D     		adds	r3, r7, #4
 289 0080 0022     		movs	r2, #0
 290 0082 9A5E     		ldrsh	r2, [r3, r2]
 291 0084 FA23     		movs	r3, #250
 292 0086 9900     		lsls	r1, r3, #2
 293 0088 1000     		movs	r0, r2
 294 008a FFF7FEFF 		bl	__aeabi_uidivmod
 295 008e 0B00     		movs	r3, r1
 296 0090 1A00     		movs	r2, r3
 297 0092 3B1D     		adds	r3, r7, #4
 298 0094 1A80     		strh	r2, [r3]
 170:main.c        ****     UART_UartPutChar((mVolts/100u) + CONVERT_TO_ASCII);
 299              		.loc 1 170 0
 300 0096 3B1D     		adds	r3, r7, #4
 301 0098 0022     		movs	r2, #0
 302 009a 9B5E     		ldrsh	r3, [r3, r2]
 303 009c 6421     		movs	r1, #100
 304 009e 1800     		movs	r0, r3
 305 00a0 FFF7FEFF 		bl	__aeabi_uidiv
 306 00a4 0300     		movs	r3, r0
 307 00a6 3033     		adds	r3, r3, #48
 308 00a8 1800     		movs	r0, r3
 309 00aa FFF7FEFF 		bl	UART_SpiUartWriteTxData
 171:main.c        ****     mVolts %= 100u;
 310              		.loc 1 171 0
 311 00ae 3B1D     		adds	r3, r7, #4
 312 00b0 0022     		movs	r2, #0
 313 00b2 9B5E     		ldrsh	r3, [r3, r2]
 314 00b4 6421     		movs	r1, #100
 315 00b6 1800     		movs	r0, r3
 316 00b8 FFF7FEFF 		bl	__aeabi_uidivmod
 317 00bc 0B00     		movs	r3, r1
 318 00be 1A00     		movs	r2, r3
 319 00c0 3B1D     		adds	r3, r7, #4
 320 00c2 1A80     		strh	r2, [r3]
 172:main.c        ****     UART_UartPutChar((mVolts/10u) + CONVERT_TO_ASCII);
 321              		.loc 1 172 0
 322 00c4 3B1D     		adds	r3, r7, #4
 323 00c6 0022     		movs	r2, #0
 324 00c8 9B5E     		ldrsh	r3, [r3, r2]
 325 00ca 0A21     		movs	r1, #10
 326 00cc 1800     		movs	r0, r3
 327 00ce FFF7FEFF 		bl	__aeabi_uidiv
 328 00d2 0300     		movs	r3, r0
 329 00d4 3033     		adds	r3, r3, #48
 330 00d6 1800     		movs	r0, r3
 331 00d8 FFF7FEFF 		bl	UART_SpiUartWriteTxData
 173:main.c        ****     mVolts %= 10u;
 332              		.loc 1 173 0
 333 00dc 3B1D     		adds	r3, r7, #4
 334 00de 0022     		movs	r2, #0
 335 00e0 9B5E     		ldrsh	r3, [r3, r2]
 336 00e2 0A21     		movs	r1, #10
 337 00e4 1800     		movs	r0, r3
 338 00e6 FFF7FEFF 		bl	__aeabi_uidivmod
ARM GAS  C:\Users\jagumiel\AppData\Local\Temp\cc1cPPqc.s 			page 10


 339 00ea 0B00     		movs	r3, r1
 340 00ec 1A00     		movs	r2, r3
 341 00ee 3B1D     		adds	r3, r7, #4
 342 00f0 1A80     		strh	r2, [r3]
 174:main.c        ****     UART_UartPutChar(mVolts + CONVERT_TO_ASCII);
 343              		.loc 1 174 0
 344 00f2 3B1D     		adds	r3, r7, #4
 345 00f4 0022     		movs	r2, #0
 346 00f6 9B5E     		ldrsh	r3, [r3, r2]
 347 00f8 3033     		adds	r3, r3, #48
 348 00fa 1800     		movs	r0, r3
 349 00fc FFF7FEFF 		bl	UART_SpiUartWriteTxData
 175:main.c        ****     UART_UartPutString(" mV");
 350              		.loc 1 175 0
 351 0100 084B     		ldr	r3, .L12+12
 352 0102 1800     		movs	r0, r3
 353 0104 FFF7FEFF 		bl	UART_UartPutString
 176:main.c        ****     UART_UartPutCRLF(0u);
 354              		.loc 1 176 0
 355 0108 0020     		movs	r0, #0
 356 010a FFF7FEFF 		bl	UART_UartPutCRLF
 177:main.c        **** }
 357              		.loc 1 177 0
 358 010e C046     		nop
 359 0110 BD46     		mov	sp, r7
 360 0112 02B0     		add	sp, sp, #8
 361              		@ sp needed
 362 0114 80BD     		pop	{r7, pc}
 363              	.L13:
 364 0116 C046     		.align	2
 365              	.L12:
 366 0118 00000000 		.word	.LC4
 367 011c 0C000000 		.word	.LC6
 368 0120 10000000 		.word	.LC8
 369 0124 14000000 		.word	.LC10
 370              		.cfi_endproc
 371              	.LFE33:
 372              		.size	SendChannelVoltage, .-SendChannelVoltage
 373              		.section	.text.ADC_ISR_Handler,"ax",%progbits
 374              		.align	2
 375              		.global	ADC_ISR_Handler
 376              		.code	16
 377              		.thumb_func
 378              		.type	ADC_ISR_Handler, %function
 379              	ADC_ISR_Handler:
 380              	.LFB34:
 178:main.c        **** 
 179:main.c        **** 
 180:main.c        **** /******************************************************************************
 181:main.c        **** * Function Name: ADC_ISR_Handler
 182:main.c        **** *******************************************************************************
 183:main.c        **** *
 184:main.c        **** * Summary:
 185:main.c        **** *  Interrupt Service Routine. Check the ADC status and sets window and data
 186:main.c        **** *  ready flags.
 187:main.c        **** *
 188:main.c        **** ******************************************************************************/
ARM GAS  C:\Users\jagumiel\AppData\Local\Temp\cc1cPPqc.s 			page 11


 189:main.c        **** CY_ISR(ADC_ISR_Handler)
 190:main.c        **** {
 381              		.loc 1 190 0
 382              		.cfi_startproc
 383              		@ args = 0, pretend = 0, frame = 8
 384              		@ frame_needed = 1, uses_anonymous_args = 0
 385 0000 80B5     		push	{r7, lr}
 386              		.cfi_def_cfa_offset 8
 387              		.cfi_offset 7, -8
 388              		.cfi_offset 14, -4
 389 0002 82B0     		sub	sp, sp, #8
 390              		.cfi_def_cfa_offset 16
 391 0004 00AF     		add	r7, sp, #0
 392              		.cfi_def_cfa_register 7
 191:main.c        ****     uint32 intr_status;
 192:main.c        **** 
 193:main.c        ****     /* Read interrupt status registers */
 194:main.c        ****     intr_status = ADC_SAR_INTR_MASKED_REG;
 393              		.loc 1 194 0
 394 0006 0C4B     		ldr	r3, .L16
 395 0008 1B68     		ldr	r3, [r3]
 396 000a 7B60     		str	r3, [r7, #4]
 195:main.c        ****     /* Check for End of Scan interrupt */
 196:main.c        ****     if((intr_status & ADC_EOS_MASK) != 0u)
 397              		.loc 1 196 0
 398 000c 7B68     		ldr	r3, [r7, #4]
 399 000e 0122     		movs	r2, #1
 400 0010 1340     		ands	r3, r2
 401 0012 0AD0     		beq	.L15
 197:main.c        ****     {
 198:main.c        ****         /* Read range interrupt status and raise the flag */
 199:main.c        ****         windowFlag = ADC_SAR_RANGE_INTR_MASKED_REG;
 402              		.loc 1 199 0
 403 0014 094B     		ldr	r3, .L16+4
 404 0016 1A68     		ldr	r2, [r3]
 405 0018 094B     		ldr	r3, .L16+8
 406 001a 1A60     		str	r2, [r3]
 200:main.c        ****         /* Clear range detect status */
 201:main.c        ****         ADC_SAR_RANGE_INTR_REG = windowFlag;
 407              		.loc 1 201 0
 408 001c 094A     		ldr	r2, .L16+12
 409 001e 084B     		ldr	r3, .L16+8
 410 0020 1B68     		ldr	r3, [r3]
 411 0022 1360     		str	r3, [r2]
 202:main.c        ****         dataReady = 1u;
 412              		.loc 1 202 0
 413 0024 084B     		ldr	r3, .L16+16
 414 0026 0122     		movs	r2, #1
 415 0028 1A70     		strb	r2, [r3]
 416              	.L15:
 203:main.c        ****     }
 204:main.c        ****     /* Clear handled interrupt */
 205:main.c        ****     ADC_SAR_INTR_REG = intr_status;
 417              		.loc 1 205 0
 418 002a 084B     		ldr	r3, .L16+20
 419 002c 7A68     		ldr	r2, [r7, #4]
 420 002e 1A60     		str	r2, [r3]
ARM GAS  C:\Users\jagumiel\AppData\Local\Temp\cc1cPPqc.s 			page 12


 206:main.c        **** }
 421              		.loc 1 206 0
 422 0030 C046     		nop
 423 0032 BD46     		mov	sp, r7
 424 0034 02B0     		add	sp, sp, #8
 425              		@ sp needed
 426 0036 80BD     		pop	{r7, pc}
 427              	.L17:
 428              		.align	2
 429              	.L16:
 430 0038 1C021A40 		.word	1075446300
 431 003c 3C021A40 		.word	1075446332
 432 0040 00000000 		.word	windowFlag
 433 0044 30021A40 		.word	1075446320
 434 0048 00000000 		.word	dataReady
 435 004c 10021A40 		.word	1075446288
 436              		.cfi_endproc
 437              	.LFE34:
 438              		.size	ADC_ISR_Handler, .-ADC_ISR_Handler
 439              		.text
 440              	.Letext0:
 441              		.file 2 "Generated_Source\\PSoC4/cytypes.h"