ARM GAS  C:\Users\jagumiel\AppData\Local\Temp\ccv2rUUu.s 			page 1


   1              		.syntax unified
   2              		.cpu cortex-m0
   3              		.fpu softvfp
   4              		.eabi_attribute 20, 1
   5              		.eabi_attribute 21, 1
   6              		.eabi_attribute 23, 3
   7              		.eabi_attribute 24, 1
   8              		.eabi_attribute 25, 1
   9              		.eabi_attribute 26, 1
  10              		.eabi_attribute 30, 6
  11              		.eabi_attribute 34, 0
  12              		.eabi_attribute 18, 4
  13              		.thumb
  14              		.syntax unified
  15              		.file	"UART.c"
  16              		.text
  17              	.Ltext0:
  18              		.cfi_sections	.debug_frame
  19              		.global	UART_initVar
  20              		.bss
  21              		.type	UART_initVar, %object
  22              		.size	UART_initVar, 1
  23              	UART_initVar:
  24 0000 00       		.space	1
  25              		.global	UART_IntrTxMask
  26 0001 00       		.align	1
  27              		.type	UART_IntrTxMask, %object
  28              		.size	UART_IntrTxMask, 2
  29              	UART_IntrTxMask:
  30 0002 0000     		.space	2
  31              		.section	.text.UART_Init,"ax",%progbits
  32              		.align	2
  33              		.global	UART_Init
  34              		.code	16
  35              		.thumb_func
  36              		.type	UART_Init, %function
  37              	UART_Init:
  38              	.LFB0:
  39              		.file 1 "Generated_Source\\PSoC4\\UART.c"
   1:Generated_Source\PSoC4/UART.c **** /***************************************************************************//**
   2:Generated_Source\PSoC4/UART.c **** * \file UART.c
   3:Generated_Source\PSoC4/UART.c **** * \version 4.0
   4:Generated_Source\PSoC4/UART.c **** *
   5:Generated_Source\PSoC4/UART.c **** * \brief
   6:Generated_Source\PSoC4/UART.c **** *  This file provides the source code to the API for the SCB Component.
   7:Generated_Source\PSoC4/UART.c **** *
   8:Generated_Source\PSoC4/UART.c **** * Note:
   9:Generated_Source\PSoC4/UART.c **** *
  10:Generated_Source\PSoC4/UART.c **** *******************************************************************************
  11:Generated_Source\PSoC4/UART.c **** * \copyright
  12:Generated_Source\PSoC4/UART.c **** * Copyright 2013-2017, Cypress Semiconductor Corporation.  All rights reserved.
  13:Generated_Source\PSoC4/UART.c **** * You may use this file only in accordance with the license, terms, conditions,
  14:Generated_Source\PSoC4/UART.c **** * disclaimers, and limitations in the end user license agreement accompanying
  15:Generated_Source\PSoC4/UART.c **** * the software package with which this file was provided.
  16:Generated_Source\PSoC4/UART.c **** *******************************************************************************/
  17:Generated_Source\PSoC4/UART.c **** 
  18:Generated_Source\PSoC4/UART.c **** #include "UART_PVT.h"
ARM GAS  C:\Users\jagumiel\AppData\Local\Temp\ccv2rUUu.s 			page 2


  19:Generated_Source\PSoC4/UART.c **** 
  20:Generated_Source\PSoC4/UART.c **** #if (UART_SCB_MODE_I2C_INC)
  21:Generated_Source\PSoC4/UART.c ****     #include "UART_I2C_PVT.h"
  22:Generated_Source\PSoC4/UART.c **** #endif /* (UART_SCB_MODE_I2C_INC) */
  23:Generated_Source\PSoC4/UART.c **** 
  24:Generated_Source\PSoC4/UART.c **** #if (UART_SCB_MODE_EZI2C_INC)
  25:Generated_Source\PSoC4/UART.c ****     #include "UART_EZI2C_PVT.h"
  26:Generated_Source\PSoC4/UART.c **** #endif /* (UART_SCB_MODE_EZI2C_INC) */
  27:Generated_Source\PSoC4/UART.c **** 
  28:Generated_Source\PSoC4/UART.c **** #if (UART_SCB_MODE_SPI_INC || UART_SCB_MODE_UART_INC)
  29:Generated_Source\PSoC4/UART.c ****     #include "UART_SPI_UART_PVT.h"
  30:Generated_Source\PSoC4/UART.c **** #endif /* (UART_SCB_MODE_SPI_INC || UART_SCB_MODE_UART_INC) */
  31:Generated_Source\PSoC4/UART.c **** 
  32:Generated_Source\PSoC4/UART.c **** 
  33:Generated_Source\PSoC4/UART.c **** /***************************************
  34:Generated_Source\PSoC4/UART.c **** *    Run Time Configuration Vars
  35:Generated_Source\PSoC4/UART.c **** ***************************************/
  36:Generated_Source\PSoC4/UART.c **** 
  37:Generated_Source\PSoC4/UART.c **** /* Stores internal component configuration for Unconfigured mode */
  38:Generated_Source\PSoC4/UART.c **** #if (UART_SCB_MODE_UNCONFIG_CONST_CFG)
  39:Generated_Source\PSoC4/UART.c ****     /* Common configuration variables */
  40:Generated_Source\PSoC4/UART.c ****     uint8 UART_scbMode = UART_SCB_MODE_UNCONFIG;
  41:Generated_Source\PSoC4/UART.c ****     uint8 UART_scbEnableWake;
  42:Generated_Source\PSoC4/UART.c ****     uint8 UART_scbEnableIntr;
  43:Generated_Source\PSoC4/UART.c **** 
  44:Generated_Source\PSoC4/UART.c ****     /* I2C configuration variables */
  45:Generated_Source\PSoC4/UART.c ****     uint8 UART_mode;
  46:Generated_Source\PSoC4/UART.c ****     uint8 UART_acceptAddr;
  47:Generated_Source\PSoC4/UART.c **** 
  48:Generated_Source\PSoC4/UART.c ****     /* SPI/UART configuration variables */
  49:Generated_Source\PSoC4/UART.c ****     volatile uint8 * UART_rxBuffer;
  50:Generated_Source\PSoC4/UART.c ****     uint8  UART_rxDataBits;
  51:Generated_Source\PSoC4/UART.c ****     uint32 UART_rxBufferSize;
  52:Generated_Source\PSoC4/UART.c **** 
  53:Generated_Source\PSoC4/UART.c ****     volatile uint8 * UART_txBuffer;
  54:Generated_Source\PSoC4/UART.c ****     uint8  UART_txDataBits;
  55:Generated_Source\PSoC4/UART.c ****     uint32 UART_txBufferSize;
  56:Generated_Source\PSoC4/UART.c **** 
  57:Generated_Source\PSoC4/UART.c ****     /* EZI2C configuration variables */
  58:Generated_Source\PSoC4/UART.c ****     uint8 UART_numberOfAddr;
  59:Generated_Source\PSoC4/UART.c ****     uint8 UART_subAddrSize;
  60:Generated_Source\PSoC4/UART.c **** #endif /* (UART_SCB_MODE_UNCONFIG_CONST_CFG) */
  61:Generated_Source\PSoC4/UART.c **** 
  62:Generated_Source\PSoC4/UART.c **** 
  63:Generated_Source\PSoC4/UART.c **** /***************************************
  64:Generated_Source\PSoC4/UART.c **** *     Common SCB Vars
  65:Generated_Source\PSoC4/UART.c **** ***************************************/
  66:Generated_Source\PSoC4/UART.c **** /**
  67:Generated_Source\PSoC4/UART.c **** * \addtogroup group_general
  68:Generated_Source\PSoC4/UART.c **** * \{
  69:Generated_Source\PSoC4/UART.c **** */
  70:Generated_Source\PSoC4/UART.c **** 
  71:Generated_Source\PSoC4/UART.c **** /** UART_initVar indicates whether the UART 
  72:Generated_Source\PSoC4/UART.c **** *  component has been initialized. The variable is initialized to 0 
  73:Generated_Source\PSoC4/UART.c **** *  and set to 1 the first time SCB_Start() is called. This allows 
  74:Generated_Source\PSoC4/UART.c **** *  the component to restart without reinitialization after the first 
  75:Generated_Source\PSoC4/UART.c **** *  call to the UART_Start() routine.
ARM GAS  C:\Users\jagumiel\AppData\Local\Temp\ccv2rUUu.s 			page 3


  76:Generated_Source\PSoC4/UART.c **** *
  77:Generated_Source\PSoC4/UART.c **** *  If re-initialization of the component is required, then the 
  78:Generated_Source\PSoC4/UART.c **** *  UART_Init() function can be called before the 
  79:Generated_Source\PSoC4/UART.c **** *  UART_Start() or UART_Enable() function.
  80:Generated_Source\PSoC4/UART.c **** */
  81:Generated_Source\PSoC4/UART.c **** uint8 UART_initVar = 0u;
  82:Generated_Source\PSoC4/UART.c **** 
  83:Generated_Source\PSoC4/UART.c **** 
  84:Generated_Source\PSoC4/UART.c **** #if (! (UART_SCB_MODE_I2C_CONST_CFG || \
  85:Generated_Source\PSoC4/UART.c ****         UART_SCB_MODE_EZI2C_CONST_CFG))
  86:Generated_Source\PSoC4/UART.c ****     /** This global variable stores TX interrupt sources after 
  87:Generated_Source\PSoC4/UART.c ****     * UART_Stop() is called. Only these TX interrupt sources 
  88:Generated_Source\PSoC4/UART.c ****     * will be restored on a subsequent UART_Enable() call.
  89:Generated_Source\PSoC4/UART.c ****     */
  90:Generated_Source\PSoC4/UART.c ****     uint16 UART_IntrTxMask = 0u;
  91:Generated_Source\PSoC4/UART.c **** #endif /* (! (UART_SCB_MODE_I2C_CONST_CFG || \
  92:Generated_Source\PSoC4/UART.c ****               UART_SCB_MODE_EZI2C_CONST_CFG)) */
  93:Generated_Source\PSoC4/UART.c **** /** \} globals */
  94:Generated_Source\PSoC4/UART.c **** 
  95:Generated_Source\PSoC4/UART.c **** #if (UART_SCB_IRQ_INTERNAL)
  96:Generated_Source\PSoC4/UART.c **** #if !defined (CY_REMOVE_UART_CUSTOM_INTR_HANDLER)
  97:Generated_Source\PSoC4/UART.c ****     void (*UART_customIntrHandler)(void) = NULL;
  98:Generated_Source\PSoC4/UART.c **** #endif /* !defined (CY_REMOVE_UART_CUSTOM_INTR_HANDLER) */
  99:Generated_Source\PSoC4/UART.c **** #endif /* (UART_SCB_IRQ_INTERNAL) */
 100:Generated_Source\PSoC4/UART.c **** 
 101:Generated_Source\PSoC4/UART.c **** 
 102:Generated_Source\PSoC4/UART.c **** /***************************************
 103:Generated_Source\PSoC4/UART.c **** *    Private Function Prototypes
 104:Generated_Source\PSoC4/UART.c **** ***************************************/
 105:Generated_Source\PSoC4/UART.c **** 
 106:Generated_Source\PSoC4/UART.c **** static void UART_ScbEnableIntr(void);
 107:Generated_Source\PSoC4/UART.c **** static void UART_ScbModeStop(void);
 108:Generated_Source\PSoC4/UART.c **** static void UART_ScbModePostEnable(void);
 109:Generated_Source\PSoC4/UART.c **** 
 110:Generated_Source\PSoC4/UART.c **** 
 111:Generated_Source\PSoC4/UART.c **** /*******************************************************************************
 112:Generated_Source\PSoC4/UART.c **** * Function Name: UART_Init
 113:Generated_Source\PSoC4/UART.c **** ****************************************************************************//**
 114:Generated_Source\PSoC4/UART.c **** *
 115:Generated_Source\PSoC4/UART.c **** *  Initializes the UART component to operate in one of the selected
 116:Generated_Source\PSoC4/UART.c **** *  configurations: I2C, SPI, UART or EZI2C.
 117:Generated_Source\PSoC4/UART.c **** *  When the configuration is set to "Unconfigured SCB", this function does
 118:Generated_Source\PSoC4/UART.c **** *  not do any initialization. Use mode-specific initialization APIs instead:
 119:Generated_Source\PSoC4/UART.c **** *  UART_I2CInit, UART_SpiInit, 
 120:Generated_Source\PSoC4/UART.c **** *  UART_UartInit or UART_EzI2CInit.
 121:Generated_Source\PSoC4/UART.c **** *
 122:Generated_Source\PSoC4/UART.c **** *******************************************************************************/
 123:Generated_Source\PSoC4/UART.c **** void UART_Init(void)
 124:Generated_Source\PSoC4/UART.c **** {
  40              		.loc 1 124 0
  41              		.cfi_startproc
  42              		@ args = 0, pretend = 0, frame = 0
  43              		@ frame_needed = 1, uses_anonymous_args = 0
  44 0000 80B5     		push	{r7, lr}
  45              		.cfi_def_cfa_offset 8
  46              		.cfi_offset 7, -8
  47              		.cfi_offset 14, -4
ARM GAS  C:\Users\jagumiel\AppData\Local\Temp\ccv2rUUu.s 			page 4


  48 0002 00AF     		add	r7, sp, #0
  49              		.cfi_def_cfa_register 7
 125:Generated_Source\PSoC4/UART.c **** #if (UART_SCB_MODE_UNCONFIG_CONST_CFG)
 126:Generated_Source\PSoC4/UART.c ****     if (UART_SCB_MODE_UNCONFIG_RUNTM_CFG)
 127:Generated_Source\PSoC4/UART.c ****     {
 128:Generated_Source\PSoC4/UART.c ****         UART_initVar = 0u;
 129:Generated_Source\PSoC4/UART.c ****     }
 130:Generated_Source\PSoC4/UART.c ****     else
 131:Generated_Source\PSoC4/UART.c ****     {
 132:Generated_Source\PSoC4/UART.c ****         /* Initialization was done before this function call */
 133:Generated_Source\PSoC4/UART.c ****     }
 134:Generated_Source\PSoC4/UART.c **** 
 135:Generated_Source\PSoC4/UART.c **** #elif (UART_SCB_MODE_I2C_CONST_CFG)
 136:Generated_Source\PSoC4/UART.c ****     UART_I2CInit();
 137:Generated_Source\PSoC4/UART.c **** 
 138:Generated_Source\PSoC4/UART.c **** #elif (UART_SCB_MODE_SPI_CONST_CFG)
 139:Generated_Source\PSoC4/UART.c ****     UART_SpiInit();
 140:Generated_Source\PSoC4/UART.c **** 
 141:Generated_Source\PSoC4/UART.c **** #elif (UART_SCB_MODE_UART_CONST_CFG)
 142:Generated_Source\PSoC4/UART.c ****     UART_UartInit();
  50              		.loc 1 142 0
  51 0004 FFF7FEFF 		bl	UART_UartInit
 143:Generated_Source\PSoC4/UART.c **** 
 144:Generated_Source\PSoC4/UART.c **** #elif (UART_SCB_MODE_EZI2C_CONST_CFG)
 145:Generated_Source\PSoC4/UART.c ****     UART_EzI2CInit();
 146:Generated_Source\PSoC4/UART.c **** 
 147:Generated_Source\PSoC4/UART.c **** #endif /* (UART_SCB_MODE_UNCONFIG_CONST_CFG) */
 148:Generated_Source\PSoC4/UART.c **** }
  52              		.loc 1 148 0
  53 0008 C046     		nop
  54 000a BD46     		mov	sp, r7
  55              		@ sp needed
  56 000c 80BD     		pop	{r7, pc}
  57              		.cfi_endproc
  58              	.LFE0:
  59              		.size	UART_Init, .-UART_Init
  60 000e C046     		.section	.text.UART_Enable,"ax",%progbits
  61              		.align	2
  62              		.global	UART_Enable
  63              		.code	16
  64              		.thumb_func
  65              		.type	UART_Enable, %function
  66              	UART_Enable:
  67              	.LFB1:
 149:Generated_Source\PSoC4/UART.c **** 
 150:Generated_Source\PSoC4/UART.c **** 
 151:Generated_Source\PSoC4/UART.c **** /*******************************************************************************
 152:Generated_Source\PSoC4/UART.c **** * Function Name: UART_Enable
 153:Generated_Source\PSoC4/UART.c **** ****************************************************************************//**
 154:Generated_Source\PSoC4/UART.c **** *
 155:Generated_Source\PSoC4/UART.c **** *  Enables UART component operation: activates the hardware and 
 156:Generated_Source\PSoC4/UART.c **** *  internal interrupt. It also restores TX interrupt sources disabled after the 
 157:Generated_Source\PSoC4/UART.c **** *  UART_Stop() function was called (note that level-triggered TX 
 158:Generated_Source\PSoC4/UART.c **** *  interrupt sources remain disabled to not cause code lock-up).
 159:Generated_Source\PSoC4/UART.c **** *  For I2C and EZI2C modes the interrupt is internal and mandatory for 
 160:Generated_Source\PSoC4/UART.c **** *  operation. For SPI and UART modes the interrupt can be configured as none, 
 161:Generated_Source\PSoC4/UART.c **** *  internal or external.
ARM GAS  C:\Users\jagumiel\AppData\Local\Temp\ccv2rUUu.s 			page 5


 162:Generated_Source\PSoC4/UART.c **** *  The UART configuration should be not changed when the component
 163:Generated_Source\PSoC4/UART.c **** *  is enabled. Any configuration changes should be made after disabling the 
 164:Generated_Source\PSoC4/UART.c **** *  component.
 165:Generated_Source\PSoC4/UART.c **** *  When configuration is set to “Unconfigured UART”, the component 
 166:Generated_Source\PSoC4/UART.c **** *  must first be initialized to operate in one of the following configurations: 
 167:Generated_Source\PSoC4/UART.c **** *  I2C, SPI, UART or EZ I2C, using the mode-specific initialization API. 
 168:Generated_Source\PSoC4/UART.c **** *  Otherwise this function does not enable the component.
 169:Generated_Source\PSoC4/UART.c **** *
 170:Generated_Source\PSoC4/UART.c **** *******************************************************************************/
 171:Generated_Source\PSoC4/UART.c **** void UART_Enable(void)
 172:Generated_Source\PSoC4/UART.c **** {
  68              		.loc 1 172 0
  69              		.cfi_startproc
  70              		@ args = 0, pretend = 0, frame = 0
  71              		@ frame_needed = 1, uses_anonymous_args = 0
  72 0000 80B5     		push	{r7, lr}
  73              		.cfi_def_cfa_offset 8
  74              		.cfi_offset 7, -8
  75              		.cfi_offset 14, -4
  76 0002 00AF     		add	r7, sp, #0
  77              		.cfi_def_cfa_register 7
 173:Generated_Source\PSoC4/UART.c **** #if (UART_SCB_MODE_UNCONFIG_CONST_CFG)
 174:Generated_Source\PSoC4/UART.c ****     /* Enable SCB block, only if it is already configured */
 175:Generated_Source\PSoC4/UART.c ****     if (!UART_SCB_MODE_UNCONFIG_RUNTM_CFG)
 176:Generated_Source\PSoC4/UART.c ****     {
 177:Generated_Source\PSoC4/UART.c ****         UART_CTRL_REG |= UART_CTRL_ENABLED;
 178:Generated_Source\PSoC4/UART.c **** 
 179:Generated_Source\PSoC4/UART.c ****         UART_ScbEnableIntr();
 180:Generated_Source\PSoC4/UART.c **** 
 181:Generated_Source\PSoC4/UART.c ****         /* Call PostEnable function specific to current operation mode */
 182:Generated_Source\PSoC4/UART.c ****         UART_ScbModePostEnable();
 183:Generated_Source\PSoC4/UART.c ****     }
 184:Generated_Source\PSoC4/UART.c **** #else
 185:Generated_Source\PSoC4/UART.c ****     UART_CTRL_REG |= UART_CTRL_ENABLED;
  78              		.loc 1 185 0
  79 0004 064B     		ldr	r3, .L3
  80 0006 064A     		ldr	r2, .L3
  81 0008 1268     		ldr	r2, [r2]
  82 000a 8021     		movs	r1, #128
  83 000c 0906     		lsls	r1, r1, #24
  84 000e 0A43     		orrs	r2, r1
  85 0010 1A60     		str	r2, [r3]
 186:Generated_Source\PSoC4/UART.c **** 
 187:Generated_Source\PSoC4/UART.c ****     UART_ScbEnableIntr();
  86              		.loc 1 187 0
  87 0012 FFF7FEFF 		bl	UART_ScbEnableIntr
 188:Generated_Source\PSoC4/UART.c **** 
 189:Generated_Source\PSoC4/UART.c ****     /* Call PostEnable function specific to current operation mode */
 190:Generated_Source\PSoC4/UART.c ****     UART_ScbModePostEnable();
  88              		.loc 1 190 0
  89 0016 FFF7FEFF 		bl	UART_ScbModePostEnable
 191:Generated_Source\PSoC4/UART.c **** #endif /* (UART_SCB_MODE_UNCONFIG_CONST_CFG) */
 192:Generated_Source\PSoC4/UART.c **** }
  90              		.loc 1 192 0
  91 001a C046     		nop
  92 001c BD46     		mov	sp, r7
  93              		@ sp needed
ARM GAS  C:\Users\jagumiel\AppData\Local\Temp\ccv2rUUu.s 			page 6


  94 001e 80BD     		pop	{r7, pc}
  95              	.L4:
  96              		.align	2
  97              	.L3:
  98 0020 00000640 		.word	1074135040
  99              		.cfi_endproc
 100              	.LFE1:
 101              		.size	UART_Enable, .-UART_Enable
 102              		.section	.text.UART_Start,"ax",%progbits
 103              		.align	2
 104              		.global	UART_Start
 105              		.code	16
 106              		.thumb_func
 107              		.type	UART_Start, %function
 108              	UART_Start:
 109              	.LFB2:
 193:Generated_Source\PSoC4/UART.c **** 
 194:Generated_Source\PSoC4/UART.c **** 
 195:Generated_Source\PSoC4/UART.c **** /*******************************************************************************
 196:Generated_Source\PSoC4/UART.c **** * Function Name: UART_Start
 197:Generated_Source\PSoC4/UART.c **** ****************************************************************************//**
 198:Generated_Source\PSoC4/UART.c **** *
 199:Generated_Source\PSoC4/UART.c **** *  Invokes UART_Init() and UART_Enable().
 200:Generated_Source\PSoC4/UART.c **** *  After this function call, the component is enabled and ready for operation.
 201:Generated_Source\PSoC4/UART.c **** *  When configuration is set to "Unconfigured SCB", the component must first be
 202:Generated_Source\PSoC4/UART.c **** *  initialized to operate in one of the following configurations: I2C, SPI, UART
 203:Generated_Source\PSoC4/UART.c **** *  or EZI2C. Otherwise this function does not enable the component.
 204:Generated_Source\PSoC4/UART.c **** *
 205:Generated_Source\PSoC4/UART.c **** * \globalvars
 206:Generated_Source\PSoC4/UART.c **** *  UART_initVar - used to check initial configuration, modified
 207:Generated_Source\PSoC4/UART.c **** *  on first function call.
 208:Generated_Source\PSoC4/UART.c **** *
 209:Generated_Source\PSoC4/UART.c **** *******************************************************************************/
 210:Generated_Source\PSoC4/UART.c **** void UART_Start(void)
 211:Generated_Source\PSoC4/UART.c **** {
 110              		.loc 1 211 0
 111              		.cfi_startproc
 112              		@ args = 0, pretend = 0, frame = 0
 113              		@ frame_needed = 1, uses_anonymous_args = 0
 114 0000 80B5     		push	{r7, lr}
 115              		.cfi_def_cfa_offset 8
 116              		.cfi_offset 7, -8
 117              		.cfi_offset 14, -4
 118 0002 00AF     		add	r7, sp, #0
 119              		.cfi_def_cfa_register 7
 212:Generated_Source\PSoC4/UART.c ****     if (0u == UART_initVar)
 120              		.loc 1 212 0
 121 0004 064B     		ldr	r3, .L7
 122 0006 1B78     		ldrb	r3, [r3]
 123 0008 002B     		cmp	r3, #0
 124 000a 04D1     		bne	.L6
 213:Generated_Source\PSoC4/UART.c ****     {
 214:Generated_Source\PSoC4/UART.c ****         UART_Init();
 125              		.loc 1 214 0
 126 000c FFF7FEFF 		bl	UART_Init
 215:Generated_Source\PSoC4/UART.c ****         UART_initVar = 1u; /* Component was initialized */
 127              		.loc 1 215 0
ARM GAS  C:\Users\jagumiel\AppData\Local\Temp\ccv2rUUu.s 			page 7


 128 0010 034B     		ldr	r3, .L7
 129 0012 0122     		movs	r2, #1
 130 0014 1A70     		strb	r2, [r3]
 131              	.L6:
 216:Generated_Source\PSoC4/UART.c ****     }
 217:Generated_Source\PSoC4/UART.c **** 
 218:Generated_Source\PSoC4/UART.c ****     UART_Enable();
 132              		.loc 1 218 0
 133 0016 FFF7FEFF 		bl	UART_Enable
 219:Generated_Source\PSoC4/UART.c **** }
 134              		.loc 1 219 0
 135 001a C046     		nop
 136 001c BD46     		mov	sp, r7
 137              		@ sp needed
 138 001e 80BD     		pop	{r7, pc}
 139              	.L8:
 140              		.align	2
 141              	.L7:
 142 0020 00000000 		.word	UART_initVar
 143              		.cfi_endproc
 144              	.LFE2:
 145              		.size	UART_Start, .-UART_Start
 146              		.section	.text.UART_Stop,"ax",%progbits
 147              		.align	2
 148              		.global	UART_Stop
 149              		.code	16
 150              		.thumb_func
 151              		.type	UART_Stop, %function
 152              	UART_Stop:
 153              	.LFB3:
 220:Generated_Source\PSoC4/UART.c **** 
 221:Generated_Source\PSoC4/UART.c **** 
 222:Generated_Source\PSoC4/UART.c **** /*******************************************************************************
 223:Generated_Source\PSoC4/UART.c **** * Function Name: UART_Stop
 224:Generated_Source\PSoC4/UART.c **** ****************************************************************************//**
 225:Generated_Source\PSoC4/UART.c **** *
 226:Generated_Source\PSoC4/UART.c **** *  Disables the UART component: disable the hardware and internal 
 227:Generated_Source\PSoC4/UART.c **** *  interrupt. It also disables all TX interrupt sources so as not to cause an 
 228:Generated_Source\PSoC4/UART.c **** *  unexpected interrupt trigger because after the component is enabled, the 
 229:Generated_Source\PSoC4/UART.c **** *  TX FIFO is empty.
 230:Generated_Source\PSoC4/UART.c **** *  Refer to the function UART_Enable() for the interrupt 
 231:Generated_Source\PSoC4/UART.c **** *  configuration details.
 232:Generated_Source\PSoC4/UART.c **** *  This function disables the SCB component without checking to see if 
 233:Generated_Source\PSoC4/UART.c **** *  communication is in progress. Before calling this function it may be 
 234:Generated_Source\PSoC4/UART.c **** *  necessary to check the status of communication to make sure communication 
 235:Generated_Source\PSoC4/UART.c **** *  is complete. If this is not done then communication could be stopped mid 
 236:Generated_Source\PSoC4/UART.c **** *  byte and corrupted data could result.
 237:Generated_Source\PSoC4/UART.c **** *
 238:Generated_Source\PSoC4/UART.c **** *******************************************************************************/
 239:Generated_Source\PSoC4/UART.c **** void UART_Stop(void)
 240:Generated_Source\PSoC4/UART.c **** {
 154              		.loc 1 240 0
 155              		.cfi_startproc
 156              		@ args = 0, pretend = 0, frame = 0
 157              		@ frame_needed = 1, uses_anonymous_args = 0
 158 0000 80B5     		push	{r7, lr}
 159              		.cfi_def_cfa_offset 8
ARM GAS  C:\Users\jagumiel\AppData\Local\Temp\ccv2rUUu.s 			page 8


 160              		.cfi_offset 7, -8
 161              		.cfi_offset 14, -4
 162 0002 00AF     		add	r7, sp, #0
 163              		.cfi_def_cfa_register 7
 241:Generated_Source\PSoC4/UART.c **** #if (UART_SCB_IRQ_INTERNAL)
 242:Generated_Source\PSoC4/UART.c ****     UART_DisableInt();
 243:Generated_Source\PSoC4/UART.c **** #endif /* (UART_SCB_IRQ_INTERNAL) */
 244:Generated_Source\PSoC4/UART.c **** 
 245:Generated_Source\PSoC4/UART.c ****     /* Call Stop function specific to current operation mode */
 246:Generated_Source\PSoC4/UART.c ****     UART_ScbModeStop();
 164              		.loc 1 246 0
 165 0004 FFF7FEFF 		bl	UART_ScbModeStop
 247:Generated_Source\PSoC4/UART.c **** 
 248:Generated_Source\PSoC4/UART.c ****     /* Disable SCB IP */
 249:Generated_Source\PSoC4/UART.c ****     UART_CTRL_REG &= (uint32) ~UART_CTRL_ENABLED;
 166              		.loc 1 249 0
 167 0008 054B     		ldr	r3, .L10
 168 000a 054A     		ldr	r2, .L10
 169 000c 1268     		ldr	r2, [r2]
 170 000e 5200     		lsls	r2, r2, #1
 171 0010 5208     		lsrs	r2, r2, #1
 172 0012 1A60     		str	r2, [r3]
 250:Generated_Source\PSoC4/UART.c **** 
 251:Generated_Source\PSoC4/UART.c ****     /* Disable all TX interrupt sources so as not to cause an unexpected
 252:Generated_Source\PSoC4/UART.c ****     * interrupt trigger after the component will be enabled because the 
 253:Generated_Source\PSoC4/UART.c ****     * TX FIFO is empty.
 254:Generated_Source\PSoC4/UART.c ****     * For SCB IP v0, it is critical as it does not mask-out interrupt
 255:Generated_Source\PSoC4/UART.c ****     * sources when it is disabled. This can cause a code lock-up in the
 256:Generated_Source\PSoC4/UART.c ****     * interrupt handler because TX FIFO cannot be loaded after the block
 257:Generated_Source\PSoC4/UART.c ****     * is disabled.
 258:Generated_Source\PSoC4/UART.c ****     */
 259:Generated_Source\PSoC4/UART.c ****     UART_SetTxInterruptMode(UART_NO_INTR_SOURCES);
 173              		.loc 1 259 0
 174 0014 034B     		ldr	r3, .L10+4
 175 0016 0022     		movs	r2, #0
 176 0018 1A60     		str	r2, [r3]
 260:Generated_Source\PSoC4/UART.c **** 
 261:Generated_Source\PSoC4/UART.c **** #if (UART_SCB_IRQ_INTERNAL)
 262:Generated_Source\PSoC4/UART.c ****     UART_ClearPendingInt();
 263:Generated_Source\PSoC4/UART.c **** #endif /* (UART_SCB_IRQ_INTERNAL) */
 264:Generated_Source\PSoC4/UART.c **** }
 177              		.loc 1 264 0
 178 001a C046     		nop
 179 001c BD46     		mov	sp, r7
 180              		@ sp needed
 181 001e 80BD     		pop	{r7, pc}
 182              	.L11:
 183              		.align	2
 184              	.L10:
 185 0020 00000640 		.word	1074135040
 186 0024 880F0640 		.word	1074139016
 187              		.cfi_endproc
 188              	.LFE3:
 189              		.size	UART_Stop, .-UART_Stop
 190              		.section	.text.UART_SetRxFifoLevel,"ax",%progbits
 191              		.align	2
 192              		.global	UART_SetRxFifoLevel
ARM GAS  C:\Users\jagumiel\AppData\Local\Temp\ccv2rUUu.s 			page 9


 193              		.code	16
 194              		.thumb_func
 195              		.type	UART_SetRxFifoLevel, %function
 196              	UART_SetRxFifoLevel:
 197              	.LFB4:
 265:Generated_Source\PSoC4/UART.c **** 
 266:Generated_Source\PSoC4/UART.c **** 
 267:Generated_Source\PSoC4/UART.c **** /*******************************************************************************
 268:Generated_Source\PSoC4/UART.c **** * Function Name: UART_SetRxFifoLevel
 269:Generated_Source\PSoC4/UART.c **** ****************************************************************************//**
 270:Generated_Source\PSoC4/UART.c **** *
 271:Generated_Source\PSoC4/UART.c **** *  Sets level in the RX FIFO to generate a RX level interrupt.
 272:Generated_Source\PSoC4/UART.c **** *  When the RX FIFO has more entries than the RX FIFO level an RX level
 273:Generated_Source\PSoC4/UART.c **** *  interrupt request is generated.
 274:Generated_Source\PSoC4/UART.c **** *
 275:Generated_Source\PSoC4/UART.c **** *  \param level: Level in the RX FIFO to generate RX level interrupt.
 276:Generated_Source\PSoC4/UART.c **** *   The range of valid level values is between 0 and RX FIFO depth - 1.
 277:Generated_Source\PSoC4/UART.c **** *
 278:Generated_Source\PSoC4/UART.c **** *******************************************************************************/
 279:Generated_Source\PSoC4/UART.c **** void UART_SetRxFifoLevel(uint32 level)
 280:Generated_Source\PSoC4/UART.c **** {
 198              		.loc 1 280 0
 199              		.cfi_startproc
 200              		@ args = 0, pretend = 0, frame = 16
 201              		@ frame_needed = 1, uses_anonymous_args = 0
 202 0000 80B5     		push	{r7, lr}
 203              		.cfi_def_cfa_offset 8
 204              		.cfi_offset 7, -8
 205              		.cfi_offset 14, -4
 206 0002 84B0     		sub	sp, sp, #16
 207              		.cfi_def_cfa_offset 24
 208 0004 00AF     		add	r7, sp, #0
 209              		.cfi_def_cfa_register 7
 210 0006 7860     		str	r0, [r7, #4]
 281:Generated_Source\PSoC4/UART.c ****     uint32 rxFifoCtrl;
 282:Generated_Source\PSoC4/UART.c **** 
 283:Generated_Source\PSoC4/UART.c ****     rxFifoCtrl = UART_RX_FIFO_CTRL_REG;
 211              		.loc 1 283 0
 212 0008 094B     		ldr	r3, .L13
 213 000a 1B68     		ldr	r3, [r3]
 214 000c FB60     		str	r3, [r7, #12]
 284:Generated_Source\PSoC4/UART.c **** 
 285:Generated_Source\PSoC4/UART.c ****     rxFifoCtrl &= ((uint32) ~UART_RX_FIFO_CTRL_TRIGGER_LEVEL_MASK); /* Clear level mask bits */
 215              		.loc 1 285 0
 216 000e FB68     		ldr	r3, [r7, #12]
 217 0010 0722     		movs	r2, #7
 218 0012 9343     		bics	r3, r2
 219 0014 FB60     		str	r3, [r7, #12]
 286:Generated_Source\PSoC4/UART.c ****     rxFifoCtrl |= ((uint32) (UART_RX_FIFO_CTRL_TRIGGER_LEVEL_MASK & level));
 220              		.loc 1 286 0
 221 0016 7B68     		ldr	r3, [r7, #4]
 222 0018 0722     		movs	r2, #7
 223 001a 1340     		ands	r3, r2
 224 001c FA68     		ldr	r2, [r7, #12]
 225 001e 1343     		orrs	r3, r2
 226 0020 FB60     		str	r3, [r7, #12]
 287:Generated_Source\PSoC4/UART.c **** 
ARM GAS  C:\Users\jagumiel\AppData\Local\Temp\ccv2rUUu.s 			page 10


 288:Generated_Source\PSoC4/UART.c ****     UART_RX_FIFO_CTRL_REG = rxFifoCtrl;
 227              		.loc 1 288 0
 228 0022 034B     		ldr	r3, .L13
 229 0024 FA68     		ldr	r2, [r7, #12]
 230 0026 1A60     		str	r2, [r3]
 289:Generated_Source\PSoC4/UART.c **** }
 231              		.loc 1 289 0
 232 0028 C046     		nop
 233 002a BD46     		mov	sp, r7
 234 002c 04B0     		add	sp, sp, #16
 235              		@ sp needed
 236 002e 80BD     		pop	{r7, pc}
 237              	.L14:
 238              		.align	2
 239              	.L13:
 240 0030 04030640 		.word	1074135812
 241              		.cfi_endproc
 242              	.LFE4:
 243              		.size	UART_SetRxFifoLevel, .-UART_SetRxFifoLevel
 244              		.section	.text.UART_SetTxFifoLevel,"ax",%progbits
 245              		.align	2
 246              		.global	UART_SetTxFifoLevel
 247              		.code	16
 248              		.thumb_func
 249              		.type	UART_SetTxFifoLevel, %function
 250              	UART_SetTxFifoLevel:
 251              	.LFB5:
 290:Generated_Source\PSoC4/UART.c **** 
 291:Generated_Source\PSoC4/UART.c **** 
 292:Generated_Source\PSoC4/UART.c **** /*******************************************************************************
 293:Generated_Source\PSoC4/UART.c **** * Function Name: UART_SetTxFifoLevel
 294:Generated_Source\PSoC4/UART.c **** ****************************************************************************//**
 295:Generated_Source\PSoC4/UART.c **** *
 296:Generated_Source\PSoC4/UART.c **** *  Sets level in the TX FIFO to generate a TX level interrupt.
 297:Generated_Source\PSoC4/UART.c **** *  When the TX FIFO has less entries than the TX FIFO level an TX level
 298:Generated_Source\PSoC4/UART.c **** *  interrupt request is generated.
 299:Generated_Source\PSoC4/UART.c **** *
 300:Generated_Source\PSoC4/UART.c **** *  \param level: Level in the TX FIFO to generate TX level interrupt.
 301:Generated_Source\PSoC4/UART.c **** *   The range of valid level values is between 0 and TX FIFO depth - 1.
 302:Generated_Source\PSoC4/UART.c **** *
 303:Generated_Source\PSoC4/UART.c **** *******************************************************************************/
 304:Generated_Source\PSoC4/UART.c **** void UART_SetTxFifoLevel(uint32 level)
 305:Generated_Source\PSoC4/UART.c **** {
 252              		.loc 1 305 0
 253              		.cfi_startproc
 254              		@ args = 0, pretend = 0, frame = 16
 255              		@ frame_needed = 1, uses_anonymous_args = 0
 256 0000 80B5     		push	{r7, lr}
 257              		.cfi_def_cfa_offset 8
 258              		.cfi_offset 7, -8
 259              		.cfi_offset 14, -4
 260 0002 84B0     		sub	sp, sp, #16
 261              		.cfi_def_cfa_offset 24
 262 0004 00AF     		add	r7, sp, #0
 263              		.cfi_def_cfa_register 7
 264 0006 7860     		str	r0, [r7, #4]
 306:Generated_Source\PSoC4/UART.c ****     uint32 txFifoCtrl;
ARM GAS  C:\Users\jagumiel\AppData\Local\Temp\ccv2rUUu.s 			page 11


 307:Generated_Source\PSoC4/UART.c **** 
 308:Generated_Source\PSoC4/UART.c ****     txFifoCtrl = UART_TX_FIFO_CTRL_REG;
 265              		.loc 1 308 0
 266 0008 094B     		ldr	r3, .L16
 267 000a 1B68     		ldr	r3, [r3]
 268 000c FB60     		str	r3, [r7, #12]
 309:Generated_Source\PSoC4/UART.c **** 
 310:Generated_Source\PSoC4/UART.c ****     txFifoCtrl &= ((uint32) ~UART_TX_FIFO_CTRL_TRIGGER_LEVEL_MASK); /* Clear level mask bits */
 269              		.loc 1 310 0
 270 000e FB68     		ldr	r3, [r7, #12]
 271 0010 0722     		movs	r2, #7
 272 0012 9343     		bics	r3, r2
 273 0014 FB60     		str	r3, [r7, #12]
 311:Generated_Source\PSoC4/UART.c ****     txFifoCtrl |= ((uint32) (UART_TX_FIFO_CTRL_TRIGGER_LEVEL_MASK & level));
 274              		.loc 1 311 0
 275 0016 7B68     		ldr	r3, [r7, #4]
 276 0018 0722     		movs	r2, #7
 277 001a 1340     		ands	r3, r2
 278 001c FA68     		ldr	r2, [r7, #12]
 279 001e 1343     		orrs	r3, r2
 280 0020 FB60     		str	r3, [r7, #12]
 312:Generated_Source\PSoC4/UART.c **** 
 313:Generated_Source\PSoC4/UART.c ****     UART_TX_FIFO_CTRL_REG = txFifoCtrl;
 281              		.loc 1 313 0
 282 0022 034B     		ldr	r3, .L16
 283 0024 FA68     		ldr	r2, [r7, #12]
 284 0026 1A60     		str	r2, [r3]
 314:Generated_Source\PSoC4/UART.c **** }
 285              		.loc 1 314 0
 286 0028 C046     		nop
 287 002a BD46     		mov	sp, r7
 288 002c 04B0     		add	sp, sp, #16
 289              		@ sp needed
 290 002e 80BD     		pop	{r7, pc}
 291              	.L17:
 292              		.align	2
 293              	.L16:
 294 0030 04020640 		.word	1074135556
 295              		.cfi_endproc
 296              	.LFE5:
 297              		.size	UART_SetTxFifoLevel, .-UART_SetTxFifoLevel
 298              		.section	.text.UART_ScbEnableIntr,"ax",%progbits
 299              		.align	2
 300              		.code	16
 301              		.thumb_func
 302              		.type	UART_ScbEnableIntr, %function
 303              	UART_ScbEnableIntr:
 304              	.LFB6:
 315:Generated_Source\PSoC4/UART.c **** 
 316:Generated_Source\PSoC4/UART.c **** 
 317:Generated_Source\PSoC4/UART.c **** #if (UART_SCB_IRQ_INTERNAL)
 318:Generated_Source\PSoC4/UART.c ****     /*******************************************************************************
 319:Generated_Source\PSoC4/UART.c ****     * Function Name: UART_SetCustomInterruptHandler
 320:Generated_Source\PSoC4/UART.c ****     ****************************************************************************//**
 321:Generated_Source\PSoC4/UART.c ****     *
 322:Generated_Source\PSoC4/UART.c ****     *  Registers a function to be called by the internal interrupt handler.
 323:Generated_Source\PSoC4/UART.c ****     *  First the function that is registered is called, then the internal interrupt
ARM GAS  C:\Users\jagumiel\AppData\Local\Temp\ccv2rUUu.s 			page 12


 324:Generated_Source\PSoC4/UART.c ****     *  handler performs any operation such as software buffer management functions
 325:Generated_Source\PSoC4/UART.c ****     *  before the interrupt returns.  It is the user's responsibility not to break
 326:Generated_Source\PSoC4/UART.c ****     *  the software buffer operations. Only one custom handler is supported, which
 327:Generated_Source\PSoC4/UART.c ****     *  is the function provided by the most recent call.
 328:Generated_Source\PSoC4/UART.c ****     *  At the initialization time no custom handler is registered.
 329:Generated_Source\PSoC4/UART.c ****     *
 330:Generated_Source\PSoC4/UART.c ****     *  \param func: Pointer to the function to register.
 331:Generated_Source\PSoC4/UART.c ****     *        The value NULL indicates to remove the current custom interrupt
 332:Generated_Source\PSoC4/UART.c ****     *        handler.
 333:Generated_Source\PSoC4/UART.c ****     *
 334:Generated_Source\PSoC4/UART.c ****     *******************************************************************************/
 335:Generated_Source\PSoC4/UART.c ****     void UART_SetCustomInterruptHandler(void (*func)(void))
 336:Generated_Source\PSoC4/UART.c ****     {
 337:Generated_Source\PSoC4/UART.c ****     #if !defined (CY_REMOVE_UART_CUSTOM_INTR_HANDLER)
 338:Generated_Source\PSoC4/UART.c ****         UART_customIntrHandler = func; /* Register interrupt handler */
 339:Generated_Source\PSoC4/UART.c ****     #else
 340:Generated_Source\PSoC4/UART.c ****         if (NULL != func)
 341:Generated_Source\PSoC4/UART.c ****         {
 342:Generated_Source\PSoC4/UART.c ****             /* Suppress compiler warning */
 343:Generated_Source\PSoC4/UART.c ****         }
 344:Generated_Source\PSoC4/UART.c ****     #endif /* !defined (CY_REMOVE_UART_CUSTOM_INTR_HANDLER) */
 345:Generated_Source\PSoC4/UART.c ****     }
 346:Generated_Source\PSoC4/UART.c **** #endif /* (UART_SCB_IRQ_INTERNAL) */
 347:Generated_Source\PSoC4/UART.c **** 
 348:Generated_Source\PSoC4/UART.c **** 
 349:Generated_Source\PSoC4/UART.c **** /*******************************************************************************
 350:Generated_Source\PSoC4/UART.c **** * Function Name: UART_ScbModeEnableIntr
 351:Generated_Source\PSoC4/UART.c **** ****************************************************************************//**
 352:Generated_Source\PSoC4/UART.c **** *
 353:Generated_Source\PSoC4/UART.c **** *  Enables an interrupt for a specific mode.
 354:Generated_Source\PSoC4/UART.c **** *
 355:Generated_Source\PSoC4/UART.c **** *******************************************************************************/
 356:Generated_Source\PSoC4/UART.c **** static void UART_ScbEnableIntr(void)
 357:Generated_Source\PSoC4/UART.c **** {
 305              		.loc 1 357 0
 306              		.cfi_startproc
 307              		@ args = 0, pretend = 0, frame = 0
 308              		@ frame_needed = 1, uses_anonymous_args = 0
 309 0000 80B5     		push	{r7, lr}
 310              		.cfi_def_cfa_offset 8
 311              		.cfi_offset 7, -8
 312              		.cfi_offset 14, -4
 313 0002 00AF     		add	r7, sp, #0
 314              		.cfi_def_cfa_register 7
 358:Generated_Source\PSoC4/UART.c **** #if (UART_SCB_IRQ_INTERNAL)
 359:Generated_Source\PSoC4/UART.c ****     /* Enable interrupt in NVIC */
 360:Generated_Source\PSoC4/UART.c ****     #if (UART_SCB_MODE_UNCONFIG_CONST_CFG)
 361:Generated_Source\PSoC4/UART.c ****         if (0u != UART_scbEnableIntr)
 362:Generated_Source\PSoC4/UART.c ****         {
 363:Generated_Source\PSoC4/UART.c ****             UART_EnableInt();
 364:Generated_Source\PSoC4/UART.c ****         }
 365:Generated_Source\PSoC4/UART.c **** 
 366:Generated_Source\PSoC4/UART.c ****     #else
 367:Generated_Source\PSoC4/UART.c ****         UART_EnableInt();
 368:Generated_Source\PSoC4/UART.c **** 
 369:Generated_Source\PSoC4/UART.c ****     #endif /* (UART_SCB_MODE_UNCONFIG_CONST_CFG) */
 370:Generated_Source\PSoC4/UART.c **** #endif /* (UART_SCB_IRQ_INTERNAL) */
ARM GAS  C:\Users\jagumiel\AppData\Local\Temp\ccv2rUUu.s 			page 13


 371:Generated_Source\PSoC4/UART.c **** }
 315              		.loc 1 371 0
 316 0004 C046     		nop
 317 0006 BD46     		mov	sp, r7
 318              		@ sp needed
 319 0008 80BD     		pop	{r7, pc}
 320              		.cfi_endproc
 321              	.LFE6:
 322              		.size	UART_ScbEnableIntr, .-UART_ScbEnableIntr
 323 000a C046     		.section	.text.UART_ScbModePostEnable,"ax",%progbits
 324              		.align	2
 325              		.code	16
 326              		.thumb_func
 327              		.type	UART_ScbModePostEnable, %function
 328              	UART_ScbModePostEnable:
 329              	.LFB7:
 372:Generated_Source\PSoC4/UART.c **** 
 373:Generated_Source\PSoC4/UART.c **** 
 374:Generated_Source\PSoC4/UART.c **** /*******************************************************************************
 375:Generated_Source\PSoC4/UART.c **** * Function Name: UART_ScbModePostEnable
 376:Generated_Source\PSoC4/UART.c **** ****************************************************************************//**
 377:Generated_Source\PSoC4/UART.c **** *
 378:Generated_Source\PSoC4/UART.c **** *  Calls the PostEnable function for a specific operation mode.
 379:Generated_Source\PSoC4/UART.c **** *
 380:Generated_Source\PSoC4/UART.c **** *******************************************************************************/
 381:Generated_Source\PSoC4/UART.c **** static void UART_ScbModePostEnable(void)
 382:Generated_Source\PSoC4/UART.c **** {
 330              		.loc 1 382 0
 331              		.cfi_startproc
 332              		@ args = 0, pretend = 0, frame = 0
 333              		@ frame_needed = 1, uses_anonymous_args = 0
 334 0000 80B5     		push	{r7, lr}
 335              		.cfi_def_cfa_offset 8
 336              		.cfi_offset 7, -8
 337              		.cfi_offset 14, -4
 338 0002 00AF     		add	r7, sp, #0
 339              		.cfi_def_cfa_register 7
 383:Generated_Source\PSoC4/UART.c **** #if (UART_SCB_MODE_UNCONFIG_CONST_CFG)
 384:Generated_Source\PSoC4/UART.c **** #if (!UART_CY_SCBIP_V1)
 385:Generated_Source\PSoC4/UART.c ****     if (UART_SCB_MODE_SPI_RUNTM_CFG)
 386:Generated_Source\PSoC4/UART.c ****     {
 387:Generated_Source\PSoC4/UART.c ****         UART_SpiPostEnable();
 388:Generated_Source\PSoC4/UART.c ****     }
 389:Generated_Source\PSoC4/UART.c ****     else if (UART_SCB_MODE_UART_RUNTM_CFG)
 390:Generated_Source\PSoC4/UART.c ****     {
 391:Generated_Source\PSoC4/UART.c ****         UART_UartPostEnable();
 392:Generated_Source\PSoC4/UART.c ****     }
 393:Generated_Source\PSoC4/UART.c ****     else
 394:Generated_Source\PSoC4/UART.c ****     {
 395:Generated_Source\PSoC4/UART.c ****         /* Unknown mode: do nothing */
 396:Generated_Source\PSoC4/UART.c ****     }
 397:Generated_Source\PSoC4/UART.c **** #endif /* (!UART_CY_SCBIP_V1) */
 398:Generated_Source\PSoC4/UART.c **** 
 399:Generated_Source\PSoC4/UART.c **** #elif (UART_SCB_MODE_SPI_CONST_CFG)
 400:Generated_Source\PSoC4/UART.c ****     UART_SpiPostEnable();
 401:Generated_Source\PSoC4/UART.c **** 
 402:Generated_Source\PSoC4/UART.c **** #elif (UART_SCB_MODE_UART_CONST_CFG)
ARM GAS  C:\Users\jagumiel\AppData\Local\Temp\ccv2rUUu.s 			page 14


 403:Generated_Source\PSoC4/UART.c ****     UART_UartPostEnable();
 340              		.loc 1 403 0
 341 0004 FFF7FEFF 		bl	UART_UartPostEnable
 404:Generated_Source\PSoC4/UART.c **** 
 405:Generated_Source\PSoC4/UART.c **** #else
 406:Generated_Source\PSoC4/UART.c ****     /* Unknown mode: do nothing */
 407:Generated_Source\PSoC4/UART.c **** #endif /* (UART_SCB_MODE_UNCONFIG_CONST_CFG) */
 408:Generated_Source\PSoC4/UART.c **** }
 342              		.loc 1 408 0
 343 0008 C046     		nop
 344 000a BD46     		mov	sp, r7
 345              		@ sp needed
 346 000c 80BD     		pop	{r7, pc}
 347              		.cfi_endproc
 348              	.LFE7:
 349              		.size	UART_ScbModePostEnable, .-UART_ScbModePostEnable
 350 000e C046     		.section	.text.UART_ScbModeStop,"ax",%progbits
 351              		.align	2
 352              		.code	16
 353              		.thumb_func
 354              		.type	UART_ScbModeStop, %function
 355              	UART_ScbModeStop:
 356              	.LFB8:
 409:Generated_Source\PSoC4/UART.c **** 
 410:Generated_Source\PSoC4/UART.c **** 
 411:Generated_Source\PSoC4/UART.c **** /*******************************************************************************
 412:Generated_Source\PSoC4/UART.c **** * Function Name: UART_ScbModeStop
 413:Generated_Source\PSoC4/UART.c **** ****************************************************************************//**
 414:Generated_Source\PSoC4/UART.c **** *
 415:Generated_Source\PSoC4/UART.c **** *  Calls the Stop function for a specific operation mode.
 416:Generated_Source\PSoC4/UART.c **** *
 417:Generated_Source\PSoC4/UART.c **** *******************************************************************************/
 418:Generated_Source\PSoC4/UART.c **** static void UART_ScbModeStop(void)
 419:Generated_Source\PSoC4/UART.c **** {
 357              		.loc 1 419 0
 358              		.cfi_startproc
 359              		@ args = 0, pretend = 0, frame = 0
 360              		@ frame_needed = 1, uses_anonymous_args = 0
 361 0000 80B5     		push	{r7, lr}
 362              		.cfi_def_cfa_offset 8
 363              		.cfi_offset 7, -8
 364              		.cfi_offset 14, -4
 365 0002 00AF     		add	r7, sp, #0
 366              		.cfi_def_cfa_register 7
 420:Generated_Source\PSoC4/UART.c **** #if (UART_SCB_MODE_UNCONFIG_CONST_CFG)
 421:Generated_Source\PSoC4/UART.c ****     if (UART_SCB_MODE_I2C_RUNTM_CFG)
 422:Generated_Source\PSoC4/UART.c ****     {
 423:Generated_Source\PSoC4/UART.c ****         UART_I2CStop();
 424:Generated_Source\PSoC4/UART.c ****     }
 425:Generated_Source\PSoC4/UART.c ****     else if (UART_SCB_MODE_EZI2C_RUNTM_CFG)
 426:Generated_Source\PSoC4/UART.c ****     {
 427:Generated_Source\PSoC4/UART.c ****         UART_EzI2CStop();
 428:Generated_Source\PSoC4/UART.c ****     }
 429:Generated_Source\PSoC4/UART.c **** #if (!UART_CY_SCBIP_V1)
 430:Generated_Source\PSoC4/UART.c ****     else if (UART_SCB_MODE_SPI_RUNTM_CFG)
 431:Generated_Source\PSoC4/UART.c ****     {
 432:Generated_Source\PSoC4/UART.c ****         UART_SpiStop();
ARM GAS  C:\Users\jagumiel\AppData\Local\Temp\ccv2rUUu.s 			page 15


 433:Generated_Source\PSoC4/UART.c ****     }
 434:Generated_Source\PSoC4/UART.c ****     else if (UART_SCB_MODE_UART_RUNTM_CFG)
 435:Generated_Source\PSoC4/UART.c ****     {
 436:Generated_Source\PSoC4/UART.c ****         UART_UartStop();
 437:Generated_Source\PSoC4/UART.c ****     }
 438:Generated_Source\PSoC4/UART.c **** #endif /* (!UART_CY_SCBIP_V1) */
 439:Generated_Source\PSoC4/UART.c ****     else
 440:Generated_Source\PSoC4/UART.c ****     {
 441:Generated_Source\PSoC4/UART.c ****         /* Unknown mode: do nothing */
 442:Generated_Source\PSoC4/UART.c ****     }
 443:Generated_Source\PSoC4/UART.c **** #elif (UART_SCB_MODE_I2C_CONST_CFG)
 444:Generated_Source\PSoC4/UART.c ****     UART_I2CStop();
 445:Generated_Source\PSoC4/UART.c **** 
 446:Generated_Source\PSoC4/UART.c **** #elif (UART_SCB_MODE_EZI2C_CONST_CFG)
 447:Generated_Source\PSoC4/UART.c ****     UART_EzI2CStop();
 448:Generated_Source\PSoC4/UART.c **** 
 449:Generated_Source\PSoC4/UART.c **** #elif (UART_SCB_MODE_SPI_CONST_CFG)
 450:Generated_Source\PSoC4/UART.c ****     UART_SpiStop();
 451:Generated_Source\PSoC4/UART.c **** 
 452:Generated_Source\PSoC4/UART.c **** #elif (UART_SCB_MODE_UART_CONST_CFG)
 453:Generated_Source\PSoC4/UART.c ****     UART_UartStop();
 367              		.loc 1 453 0
 368 0004 FFF7FEFF 		bl	UART_UartStop
 454:Generated_Source\PSoC4/UART.c **** 
 455:Generated_Source\PSoC4/UART.c **** #else
 456:Generated_Source\PSoC4/UART.c ****     /* Unknown mode: do nothing */
 457:Generated_Source\PSoC4/UART.c **** #endif /* (UART_SCB_MODE_UNCONFIG_CONST_CFG) */
 458:Generated_Source\PSoC4/UART.c **** }
 369              		.loc 1 458 0
 370 0008 C046     		nop
 371 000a BD46     		mov	sp, r7
 372              		@ sp needed
 373 000c 80BD     		pop	{r7, pc}
 374              		.cfi_endproc
 375              	.LFE8:
 376              		.size	UART_ScbModeStop, .-UART_ScbModeStop
 377 000e C046     		.section	.text.UART_I2CSlaveNackGeneration,"ax",%progbits
 378              		.align	2
 379              		.global	UART_I2CSlaveNackGeneration
 380              		.code	16
 381              		.thumb_func
 382              		.type	UART_I2CSlaveNackGeneration, %function
 383              	UART_I2CSlaveNackGeneration:
 384              	.LFB9:
 459:Generated_Source\PSoC4/UART.c **** 
 460:Generated_Source\PSoC4/UART.c **** 
 461:Generated_Source\PSoC4/UART.c **** #if (UART_SCB_MODE_UNCONFIG_CONST_CFG)
 462:Generated_Source\PSoC4/UART.c ****     /*******************************************************************************
 463:Generated_Source\PSoC4/UART.c ****     * Function Name: UART_SetPins
 464:Generated_Source\PSoC4/UART.c ****     ****************************************************************************//**
 465:Generated_Source\PSoC4/UART.c ****     *
 466:Generated_Source\PSoC4/UART.c ****     *  Sets the pins settings accordingly to the selected operation mode.
 467:Generated_Source\PSoC4/UART.c ****     *  Only available in the Unconfigured operation mode. The mode specific
 468:Generated_Source\PSoC4/UART.c ****     *  initialization function calls it.
 469:Generated_Source\PSoC4/UART.c ****     *  Pins configuration is set by PSoC Creator when a specific mode of operation
 470:Generated_Source\PSoC4/UART.c ****     *  is selected in design time.
 471:Generated_Source\PSoC4/UART.c ****     *
ARM GAS  C:\Users\jagumiel\AppData\Local\Temp\ccv2rUUu.s 			page 16


 472:Generated_Source\PSoC4/UART.c ****     *  \param mode:      Mode of SCB operation.
 473:Generated_Source\PSoC4/UART.c ****     *  \param subMode:   Sub-mode of SCB operation. It is only required for SPI and UART
 474:Generated_Source\PSoC4/UART.c ****     *             modes.
 475:Generated_Source\PSoC4/UART.c ****     *  \param uartEnableMask: enables TX or RX direction and RTS and CTS signals.
 476:Generated_Source\PSoC4/UART.c ****     *
 477:Generated_Source\PSoC4/UART.c ****     *******************************************************************************/
 478:Generated_Source\PSoC4/UART.c ****     void UART_SetPins(uint32 mode, uint32 subMode, uint32 uartEnableMask)
 479:Generated_Source\PSoC4/UART.c ****     {
 480:Generated_Source\PSoC4/UART.c ****         uint32 pinsDm[UART_SCB_PINS_NUMBER];
 481:Generated_Source\PSoC4/UART.c ****         uint32 i;
 482:Generated_Source\PSoC4/UART.c ****         
 483:Generated_Source\PSoC4/UART.c ****     #if (!UART_CY_SCBIP_V1)
 484:Generated_Source\PSoC4/UART.c ****         uint32 pinsInBuf = 0u;
 485:Generated_Source\PSoC4/UART.c ****     #endif /* (!UART_CY_SCBIP_V1) */
 486:Generated_Source\PSoC4/UART.c ****         
 487:Generated_Source\PSoC4/UART.c ****         uint32 hsiomSel[UART_SCB_PINS_NUMBER] = 
 488:Generated_Source\PSoC4/UART.c ****         {
 489:Generated_Source\PSoC4/UART.c ****             UART_RX_SCL_MOSI_HSIOM_SEL_GPIO,
 490:Generated_Source\PSoC4/UART.c ****             UART_TX_SDA_MISO_HSIOM_SEL_GPIO,
 491:Generated_Source\PSoC4/UART.c ****             0u,
 492:Generated_Source\PSoC4/UART.c ****             0u,
 493:Generated_Source\PSoC4/UART.c ****             0u,
 494:Generated_Source\PSoC4/UART.c ****             0u,
 495:Generated_Source\PSoC4/UART.c ****             0u,
 496:Generated_Source\PSoC4/UART.c ****         };
 497:Generated_Source\PSoC4/UART.c **** 
 498:Generated_Source\PSoC4/UART.c ****     #if (UART_CY_SCBIP_V1)
 499:Generated_Source\PSoC4/UART.c ****         /* Supress compiler warning. */
 500:Generated_Source\PSoC4/UART.c ****         if ((0u == subMode) || (0u == uartEnableMask))
 501:Generated_Source\PSoC4/UART.c ****         {
 502:Generated_Source\PSoC4/UART.c ****         }
 503:Generated_Source\PSoC4/UART.c ****     #endif /* (UART_CY_SCBIP_V1) */
 504:Generated_Source\PSoC4/UART.c **** 
 505:Generated_Source\PSoC4/UART.c ****         /* Set default HSIOM to GPIO and Drive Mode to Analog Hi-Z */
 506:Generated_Source\PSoC4/UART.c ****         for (i = 0u; i < UART_SCB_PINS_NUMBER; i++)
 507:Generated_Source\PSoC4/UART.c ****         {
 508:Generated_Source\PSoC4/UART.c ****             pinsDm[i] = UART_PIN_DM_ALG_HIZ;
 509:Generated_Source\PSoC4/UART.c ****         }
 510:Generated_Source\PSoC4/UART.c **** 
 511:Generated_Source\PSoC4/UART.c ****         if ((UART_SCB_MODE_I2C   == mode) ||
 512:Generated_Source\PSoC4/UART.c ****             (UART_SCB_MODE_EZI2C == mode))
 513:Generated_Source\PSoC4/UART.c ****         {
 514:Generated_Source\PSoC4/UART.c ****         #if (UART_RX_SCL_MOSI_PIN)
 515:Generated_Source\PSoC4/UART.c ****             hsiomSel[UART_RX_SCL_MOSI_PIN_INDEX] = UART_RX_SCL_MOSI_HSIOM_SEL_I2C;
 516:Generated_Source\PSoC4/UART.c ****             pinsDm  [UART_RX_SCL_MOSI_PIN_INDEX] = UART_PIN_DM_OD_LO;
 517:Generated_Source\PSoC4/UART.c ****         #elif (UART_RX_WAKE_SCL_MOSI_PIN)
 518:Generated_Source\PSoC4/UART.c ****             hsiomSel[UART_RX_WAKE_SCL_MOSI_PIN_INDEX] = UART_RX_WAKE_SCL_MOSI_HSIOM_SEL_I2C;
 519:Generated_Source\PSoC4/UART.c ****             pinsDm  [UART_RX_WAKE_SCL_MOSI_PIN_INDEX] = UART_PIN_DM_OD_LO;
 520:Generated_Source\PSoC4/UART.c ****         #else
 521:Generated_Source\PSoC4/UART.c ****         #endif /* (UART_RX_SCL_MOSI_PIN) */
 522:Generated_Source\PSoC4/UART.c ****         
 523:Generated_Source\PSoC4/UART.c ****         #if (UART_TX_SDA_MISO_PIN)
 524:Generated_Source\PSoC4/UART.c ****             hsiomSel[UART_TX_SDA_MISO_PIN_INDEX] = UART_TX_SDA_MISO_HSIOM_SEL_I2C;
 525:Generated_Source\PSoC4/UART.c ****             pinsDm  [UART_TX_SDA_MISO_PIN_INDEX] = UART_PIN_DM_OD_LO;
 526:Generated_Source\PSoC4/UART.c ****         #endif /* (UART_TX_SDA_MISO_PIN) */
 527:Generated_Source\PSoC4/UART.c ****         }
 528:Generated_Source\PSoC4/UART.c ****     #if (!UART_CY_SCBIP_V1)
ARM GAS  C:\Users\jagumiel\AppData\Local\Temp\ccv2rUUu.s 			page 17


 529:Generated_Source\PSoC4/UART.c ****         else if (UART_SCB_MODE_SPI == mode)
 530:Generated_Source\PSoC4/UART.c ****         {
 531:Generated_Source\PSoC4/UART.c ****         #if (UART_RX_SCL_MOSI_PIN)
 532:Generated_Source\PSoC4/UART.c ****             hsiomSel[UART_RX_SCL_MOSI_PIN_INDEX] = UART_RX_SCL_MOSI_HSIOM_SEL_SPI;
 533:Generated_Source\PSoC4/UART.c ****         #elif (UART_RX_WAKE_SCL_MOSI_PIN)
 534:Generated_Source\PSoC4/UART.c ****             hsiomSel[UART_RX_WAKE_SCL_MOSI_PIN_INDEX] = UART_RX_WAKE_SCL_MOSI_HSIOM_SEL_SPI;
 535:Generated_Source\PSoC4/UART.c ****         #else
 536:Generated_Source\PSoC4/UART.c ****         #endif /* (UART_RX_SCL_MOSI_PIN) */
 537:Generated_Source\PSoC4/UART.c ****         
 538:Generated_Source\PSoC4/UART.c ****         #if (UART_TX_SDA_MISO_PIN)
 539:Generated_Source\PSoC4/UART.c ****             hsiomSel[UART_TX_SDA_MISO_PIN_INDEX] = UART_TX_SDA_MISO_HSIOM_SEL_SPI;
 540:Generated_Source\PSoC4/UART.c ****         #endif /* (UART_TX_SDA_MISO_PIN) */
 541:Generated_Source\PSoC4/UART.c ****         
 542:Generated_Source\PSoC4/UART.c ****         #if (UART_SCLK_PIN)
 543:Generated_Source\PSoC4/UART.c ****             hsiomSel[UART_SCLK_PIN_INDEX] = UART_SCLK_HSIOM_SEL_SPI;
 544:Generated_Source\PSoC4/UART.c ****         #endif /* (UART_SCLK_PIN) */
 545:Generated_Source\PSoC4/UART.c **** 
 546:Generated_Source\PSoC4/UART.c ****             if (UART_SPI_SLAVE == subMode)
 547:Generated_Source\PSoC4/UART.c ****             {
 548:Generated_Source\PSoC4/UART.c ****                 /* Slave */
 549:Generated_Source\PSoC4/UART.c ****                 pinsDm[UART_RX_SCL_MOSI_PIN_INDEX] = UART_PIN_DM_DIG_HIZ;
 550:Generated_Source\PSoC4/UART.c ****                 pinsDm[UART_TX_SDA_MISO_PIN_INDEX] = UART_PIN_DM_STRONG;
 551:Generated_Source\PSoC4/UART.c ****                 pinsDm[UART_SCLK_PIN_INDEX] = UART_PIN_DM_DIG_HIZ;
 552:Generated_Source\PSoC4/UART.c **** 
 553:Generated_Source\PSoC4/UART.c ****             #if (UART_SS0_PIN)
 554:Generated_Source\PSoC4/UART.c ****                 /* Only SS0 is valid choice for Slave */
 555:Generated_Source\PSoC4/UART.c ****                 hsiomSel[UART_SS0_PIN_INDEX] = UART_SS0_HSIOM_SEL_SPI;
 556:Generated_Source\PSoC4/UART.c ****                 pinsDm  [UART_SS0_PIN_INDEX] = UART_PIN_DM_DIG_HIZ;
 557:Generated_Source\PSoC4/UART.c ****             #endif /* (UART_SS0_PIN) */
 558:Generated_Source\PSoC4/UART.c **** 
 559:Generated_Source\PSoC4/UART.c ****             #if (UART_TX_SDA_MISO_PIN)
 560:Generated_Source\PSoC4/UART.c ****                 /* Disable input buffer */
 561:Generated_Source\PSoC4/UART.c ****                  pinsInBuf |= UART_TX_SDA_MISO_PIN_MASK;
 562:Generated_Source\PSoC4/UART.c ****             #endif /* (UART_TX_SDA_MISO_PIN) */
 563:Generated_Source\PSoC4/UART.c ****             }
 564:Generated_Source\PSoC4/UART.c ****             else 
 565:Generated_Source\PSoC4/UART.c ****             {
 566:Generated_Source\PSoC4/UART.c ****                 /* (Master) */
 567:Generated_Source\PSoC4/UART.c ****                 pinsDm[UART_RX_SCL_MOSI_PIN_INDEX] = UART_PIN_DM_STRONG;
 568:Generated_Source\PSoC4/UART.c ****                 pinsDm[UART_TX_SDA_MISO_PIN_INDEX] = UART_PIN_DM_DIG_HIZ;
 569:Generated_Source\PSoC4/UART.c ****                 pinsDm[UART_SCLK_PIN_INDEX] = UART_PIN_DM_STRONG;
 570:Generated_Source\PSoC4/UART.c **** 
 571:Generated_Source\PSoC4/UART.c ****             #if (UART_SS0_PIN)
 572:Generated_Source\PSoC4/UART.c ****                 hsiomSel [UART_SS0_PIN_INDEX] = UART_SS0_HSIOM_SEL_SPI;
 573:Generated_Source\PSoC4/UART.c ****                 pinsDm   [UART_SS0_PIN_INDEX] = UART_PIN_DM_STRONG;
 574:Generated_Source\PSoC4/UART.c ****                 pinsInBuf |= UART_SS0_PIN_MASK;
 575:Generated_Source\PSoC4/UART.c ****             #endif /* (UART_SS0_PIN) */
 576:Generated_Source\PSoC4/UART.c **** 
 577:Generated_Source\PSoC4/UART.c ****             #if (UART_SS1_PIN)
 578:Generated_Source\PSoC4/UART.c ****                 hsiomSel [UART_SS1_PIN_INDEX] = UART_SS1_HSIOM_SEL_SPI;
 579:Generated_Source\PSoC4/UART.c ****                 pinsDm   [UART_SS1_PIN_INDEX] = UART_PIN_DM_STRONG;
 580:Generated_Source\PSoC4/UART.c ****                 pinsInBuf |= UART_SS1_PIN_MASK;
 581:Generated_Source\PSoC4/UART.c ****             #endif /* (UART_SS1_PIN) */
 582:Generated_Source\PSoC4/UART.c **** 
 583:Generated_Source\PSoC4/UART.c ****             #if (UART_SS2_PIN)
 584:Generated_Source\PSoC4/UART.c ****                 hsiomSel [UART_SS2_PIN_INDEX] = UART_SS2_HSIOM_SEL_SPI;
 585:Generated_Source\PSoC4/UART.c ****                 pinsDm   [UART_SS2_PIN_INDEX] = UART_PIN_DM_STRONG;
ARM GAS  C:\Users\jagumiel\AppData\Local\Temp\ccv2rUUu.s 			page 18


 586:Generated_Source\PSoC4/UART.c ****                 pinsInBuf |= UART_SS2_PIN_MASK;
 587:Generated_Source\PSoC4/UART.c ****             #endif /* (UART_SS2_PIN) */
 588:Generated_Source\PSoC4/UART.c **** 
 589:Generated_Source\PSoC4/UART.c ****             #if (UART_SS3_PIN)
 590:Generated_Source\PSoC4/UART.c ****                 hsiomSel [UART_SS3_PIN_INDEX] = UART_SS3_HSIOM_SEL_SPI;
 591:Generated_Source\PSoC4/UART.c ****                 pinsDm   [UART_SS3_PIN_INDEX] = UART_PIN_DM_STRONG;
 592:Generated_Source\PSoC4/UART.c ****                 pinsInBuf |= UART_SS3_PIN_MASK;
 593:Generated_Source\PSoC4/UART.c ****             #endif /* (UART_SS3_PIN) */
 594:Generated_Source\PSoC4/UART.c **** 
 595:Generated_Source\PSoC4/UART.c ****                 /* Disable input buffers */
 596:Generated_Source\PSoC4/UART.c ****             #if (UART_RX_SCL_MOSI_PIN)
 597:Generated_Source\PSoC4/UART.c ****                 pinsInBuf |= UART_RX_SCL_MOSI_PIN_MASK;
 598:Generated_Source\PSoC4/UART.c ****             #elif (UART_RX_WAKE_SCL_MOSI_PIN)
 599:Generated_Source\PSoC4/UART.c ****                 pinsInBuf |= UART_RX_WAKE_SCL_MOSI_PIN_MASK;
 600:Generated_Source\PSoC4/UART.c ****             #else
 601:Generated_Source\PSoC4/UART.c ****             #endif /* (UART_RX_SCL_MOSI_PIN) */
 602:Generated_Source\PSoC4/UART.c **** 
 603:Generated_Source\PSoC4/UART.c ****             #if (UART_SCLK_PIN)
 604:Generated_Source\PSoC4/UART.c ****                 pinsInBuf |= UART_SCLK_PIN_MASK;
 605:Generated_Source\PSoC4/UART.c ****             #endif /* (UART_SCLK_PIN) */
 606:Generated_Source\PSoC4/UART.c ****             }
 607:Generated_Source\PSoC4/UART.c ****         }
 608:Generated_Source\PSoC4/UART.c ****         else /* UART */
 609:Generated_Source\PSoC4/UART.c ****         {
 610:Generated_Source\PSoC4/UART.c ****             if (UART_UART_MODE_SMARTCARD == subMode)
 611:Generated_Source\PSoC4/UART.c ****             {
 612:Generated_Source\PSoC4/UART.c ****                 /* SmartCard */
 613:Generated_Source\PSoC4/UART.c ****             #if (UART_TX_SDA_MISO_PIN)
 614:Generated_Source\PSoC4/UART.c ****                 hsiomSel[UART_TX_SDA_MISO_PIN_INDEX] = UART_TX_SDA_MISO_HSIOM_SEL_UART;
 615:Generated_Source\PSoC4/UART.c ****                 pinsDm  [UART_TX_SDA_MISO_PIN_INDEX] = UART_PIN_DM_OD_LO;
 616:Generated_Source\PSoC4/UART.c ****             #endif /* (UART_TX_SDA_MISO_PIN) */
 617:Generated_Source\PSoC4/UART.c ****             }
 618:Generated_Source\PSoC4/UART.c ****             else /* Standard or IrDA */
 619:Generated_Source\PSoC4/UART.c ****             {
 620:Generated_Source\PSoC4/UART.c ****                 if (0u != (UART_UART_RX_PIN_ENABLE & uartEnableMask))
 621:Generated_Source\PSoC4/UART.c ****                 {
 622:Generated_Source\PSoC4/UART.c ****                 #if (UART_RX_SCL_MOSI_PIN)
 623:Generated_Source\PSoC4/UART.c ****                     hsiomSel[UART_RX_SCL_MOSI_PIN_INDEX] = UART_RX_SCL_MOSI_HSIOM_SEL_UART;
 624:Generated_Source\PSoC4/UART.c ****                     pinsDm  [UART_RX_SCL_MOSI_PIN_INDEX] = UART_PIN_DM_DIG_HIZ;
 625:Generated_Source\PSoC4/UART.c ****                 #elif (UART_RX_WAKE_SCL_MOSI_PIN)
 626:Generated_Source\PSoC4/UART.c ****                     hsiomSel[UART_RX_WAKE_SCL_MOSI_PIN_INDEX] = UART_RX_WAKE_SCL_MOSI_HSIOM_SEL_UAR
 627:Generated_Source\PSoC4/UART.c ****                     pinsDm  [UART_RX_WAKE_SCL_MOSI_PIN_INDEX] = UART_PIN_DM_DIG_HIZ;
 628:Generated_Source\PSoC4/UART.c ****                 #else
 629:Generated_Source\PSoC4/UART.c ****                 #endif /* (UART_RX_SCL_MOSI_PIN) */
 630:Generated_Source\PSoC4/UART.c ****                 }
 631:Generated_Source\PSoC4/UART.c **** 
 632:Generated_Source\PSoC4/UART.c ****                 if (0u != (UART_UART_TX_PIN_ENABLE & uartEnableMask))
 633:Generated_Source\PSoC4/UART.c ****                 {
 634:Generated_Source\PSoC4/UART.c ****                 #if (UART_TX_SDA_MISO_PIN)
 635:Generated_Source\PSoC4/UART.c ****                     hsiomSel[UART_TX_SDA_MISO_PIN_INDEX] = UART_TX_SDA_MISO_HSIOM_SEL_UART;
 636:Generated_Source\PSoC4/UART.c ****                     pinsDm  [UART_TX_SDA_MISO_PIN_INDEX] = UART_PIN_DM_STRONG;
 637:Generated_Source\PSoC4/UART.c ****                     
 638:Generated_Source\PSoC4/UART.c ****                     /* Disable input buffer */
 639:Generated_Source\PSoC4/UART.c ****                     pinsInBuf |= UART_TX_SDA_MISO_PIN_MASK;
 640:Generated_Source\PSoC4/UART.c ****                 #endif /* (UART_TX_SDA_MISO_PIN) */
 641:Generated_Source\PSoC4/UART.c ****                 }
 642:Generated_Source\PSoC4/UART.c **** 
ARM GAS  C:\Users\jagumiel\AppData\Local\Temp\ccv2rUUu.s 			page 19


 643:Generated_Source\PSoC4/UART.c ****             #if !(UART_CY_SCBIP_V0 || UART_CY_SCBIP_V1)
 644:Generated_Source\PSoC4/UART.c ****                 if (UART_UART_MODE_STD == subMode)
 645:Generated_Source\PSoC4/UART.c ****                 {
 646:Generated_Source\PSoC4/UART.c ****                     if (0u != (UART_UART_CTS_PIN_ENABLE & uartEnableMask))
 647:Generated_Source\PSoC4/UART.c ****                     {
 648:Generated_Source\PSoC4/UART.c ****                         /* CTS input is multiplexed with SCLK */
 649:Generated_Source\PSoC4/UART.c ****                     #if (UART_SCLK_PIN)
 650:Generated_Source\PSoC4/UART.c ****                         hsiomSel[UART_SCLK_PIN_INDEX] = UART_SCLK_HSIOM_SEL_UART;
 651:Generated_Source\PSoC4/UART.c ****                         pinsDm  [UART_SCLK_PIN_INDEX] = UART_PIN_DM_DIG_HIZ;
 652:Generated_Source\PSoC4/UART.c ****                     #endif /* (UART_SCLK_PIN) */
 653:Generated_Source\PSoC4/UART.c ****                     }
 654:Generated_Source\PSoC4/UART.c **** 
 655:Generated_Source\PSoC4/UART.c ****                     if (0u != (UART_UART_RTS_PIN_ENABLE & uartEnableMask))
 656:Generated_Source\PSoC4/UART.c ****                     {
 657:Generated_Source\PSoC4/UART.c ****                         /* RTS output is multiplexed with SS0 */
 658:Generated_Source\PSoC4/UART.c ****                     #if (UART_SS0_PIN)
 659:Generated_Source\PSoC4/UART.c ****                         hsiomSel[UART_SS0_PIN_INDEX] = UART_SS0_HSIOM_SEL_UART;
 660:Generated_Source\PSoC4/UART.c ****                         pinsDm  [UART_SS0_PIN_INDEX] = UART_PIN_DM_STRONG;
 661:Generated_Source\PSoC4/UART.c ****                         
 662:Generated_Source\PSoC4/UART.c ****                         /* Disable input buffer */
 663:Generated_Source\PSoC4/UART.c ****                         pinsInBuf |= UART_SS0_PIN_MASK;
 664:Generated_Source\PSoC4/UART.c ****                     #endif /* (UART_SS0_PIN) */
 665:Generated_Source\PSoC4/UART.c ****                     }
 666:Generated_Source\PSoC4/UART.c ****                 }
 667:Generated_Source\PSoC4/UART.c ****             #endif /* !(UART_CY_SCBIP_V0 || UART_CY_SCBIP_V1) */
 668:Generated_Source\PSoC4/UART.c ****             }
 669:Generated_Source\PSoC4/UART.c ****         }
 670:Generated_Source\PSoC4/UART.c ****     #endif /* (!UART_CY_SCBIP_V1) */
 671:Generated_Source\PSoC4/UART.c **** 
 672:Generated_Source\PSoC4/UART.c ****     /* Configure pins: set HSIOM, DM and InputBufEnable */
 673:Generated_Source\PSoC4/UART.c ****     /* Note: the DR register settings do not effect the pin output if HSIOM is other than GPIO */
 674:Generated_Source\PSoC4/UART.c **** 
 675:Generated_Source\PSoC4/UART.c ****     #if (UART_RX_SCL_MOSI_PIN)
 676:Generated_Source\PSoC4/UART.c ****         UART_SET_HSIOM_SEL(UART_RX_SCL_MOSI_HSIOM_REG,
 677:Generated_Source\PSoC4/UART.c ****                                        UART_RX_SCL_MOSI_HSIOM_MASK,
 678:Generated_Source\PSoC4/UART.c ****                                        UART_RX_SCL_MOSI_HSIOM_POS,
 679:Generated_Source\PSoC4/UART.c ****                                         hsiomSel[UART_RX_SCL_MOSI_PIN_INDEX]);
 680:Generated_Source\PSoC4/UART.c **** 
 681:Generated_Source\PSoC4/UART.c ****         UART_uart_rx_i2c_scl_spi_mosi_SetDriveMode((uint8) pinsDm[UART_RX_SCL_MOSI_PIN_INDEX]);
 682:Generated_Source\PSoC4/UART.c **** 
 683:Generated_Source\PSoC4/UART.c ****         #if (!UART_CY_SCBIP_V1)
 684:Generated_Source\PSoC4/UART.c ****             UART_SET_INP_DIS(UART_uart_rx_i2c_scl_spi_mosi_INP_DIS,
 685:Generated_Source\PSoC4/UART.c ****                                          UART_uart_rx_i2c_scl_spi_mosi_MASK,
 686:Generated_Source\PSoC4/UART.c ****                                          (0u != (pinsInBuf & UART_RX_SCL_MOSI_PIN_MASK)));
 687:Generated_Source\PSoC4/UART.c ****         #endif /* (!UART_CY_SCBIP_V1) */
 688:Generated_Source\PSoC4/UART.c ****     
 689:Generated_Source\PSoC4/UART.c ****     #elif (UART_RX_WAKE_SCL_MOSI_PIN)
 690:Generated_Source\PSoC4/UART.c ****         UART_SET_HSIOM_SEL(UART_RX_WAKE_SCL_MOSI_HSIOM_REG,
 691:Generated_Source\PSoC4/UART.c ****                                        UART_RX_WAKE_SCL_MOSI_HSIOM_MASK,
 692:Generated_Source\PSoC4/UART.c ****                                        UART_RX_WAKE_SCL_MOSI_HSIOM_POS,
 693:Generated_Source\PSoC4/UART.c ****                                        hsiomSel[UART_RX_WAKE_SCL_MOSI_PIN_INDEX]);
 694:Generated_Source\PSoC4/UART.c **** 
 695:Generated_Source\PSoC4/UART.c ****         UART_uart_rx_wake_i2c_scl_spi_mosi_SetDriveMode((uint8)
 696:Generated_Source\PSoC4/UART.c ****                                                                pinsDm[UART_RX_WAKE_SCL_MOSI_PIN_IND
 697:Generated_Source\PSoC4/UART.c **** 
 698:Generated_Source\PSoC4/UART.c ****         UART_SET_INP_DIS(UART_uart_rx_wake_i2c_scl_spi_mosi_INP_DIS,
 699:Generated_Source\PSoC4/UART.c ****                                      UART_uart_rx_wake_i2c_scl_spi_mosi_MASK,
ARM GAS  C:\Users\jagumiel\AppData\Local\Temp\ccv2rUUu.s 			page 20


 700:Generated_Source\PSoC4/UART.c ****                                      (0u != (pinsInBuf & UART_RX_WAKE_SCL_MOSI_PIN_MASK)));
 701:Generated_Source\PSoC4/UART.c **** 
 702:Generated_Source\PSoC4/UART.c ****          /* Set interrupt on falling edge */
 703:Generated_Source\PSoC4/UART.c ****         UART_SET_INCFG_TYPE(UART_RX_WAKE_SCL_MOSI_INTCFG_REG,
 704:Generated_Source\PSoC4/UART.c ****                                         UART_RX_WAKE_SCL_MOSI_INTCFG_TYPE_MASK,
 705:Generated_Source\PSoC4/UART.c ****                                         UART_RX_WAKE_SCL_MOSI_INTCFG_TYPE_POS,
 706:Generated_Source\PSoC4/UART.c ****                                         UART_INTCFG_TYPE_FALLING_EDGE);
 707:Generated_Source\PSoC4/UART.c ****     #else
 708:Generated_Source\PSoC4/UART.c ****     #endif /* (UART_RX_WAKE_SCL_MOSI_PIN) */
 709:Generated_Source\PSoC4/UART.c **** 
 710:Generated_Source\PSoC4/UART.c ****     #if (UART_TX_SDA_MISO_PIN)
 711:Generated_Source\PSoC4/UART.c ****         UART_SET_HSIOM_SEL(UART_TX_SDA_MISO_HSIOM_REG,
 712:Generated_Source\PSoC4/UART.c ****                                        UART_TX_SDA_MISO_HSIOM_MASK,
 713:Generated_Source\PSoC4/UART.c ****                                        UART_TX_SDA_MISO_HSIOM_POS,
 714:Generated_Source\PSoC4/UART.c ****                                         hsiomSel[UART_TX_SDA_MISO_PIN_INDEX]);
 715:Generated_Source\PSoC4/UART.c **** 
 716:Generated_Source\PSoC4/UART.c ****         UART_uart_tx_i2c_sda_spi_miso_SetDriveMode((uint8) pinsDm[UART_TX_SDA_MISO_PIN_INDEX]);
 717:Generated_Source\PSoC4/UART.c **** 
 718:Generated_Source\PSoC4/UART.c ****     #if (!UART_CY_SCBIP_V1)
 719:Generated_Source\PSoC4/UART.c ****         UART_SET_INP_DIS(UART_uart_tx_i2c_sda_spi_miso_INP_DIS,
 720:Generated_Source\PSoC4/UART.c ****                                      UART_uart_tx_i2c_sda_spi_miso_MASK,
 721:Generated_Source\PSoC4/UART.c ****                                     (0u != (pinsInBuf & UART_TX_SDA_MISO_PIN_MASK)));
 722:Generated_Source\PSoC4/UART.c ****     #endif /* (!UART_CY_SCBIP_V1) */
 723:Generated_Source\PSoC4/UART.c ****     #endif /* (UART_RX_SCL_MOSI_PIN) */
 724:Generated_Source\PSoC4/UART.c **** 
 725:Generated_Source\PSoC4/UART.c ****     #if (UART_SCLK_PIN)
 726:Generated_Source\PSoC4/UART.c ****         UART_SET_HSIOM_SEL(UART_SCLK_HSIOM_REG,
 727:Generated_Source\PSoC4/UART.c ****                                        UART_SCLK_HSIOM_MASK,
 728:Generated_Source\PSoC4/UART.c ****                                        UART_SCLK_HSIOM_POS,
 729:Generated_Source\PSoC4/UART.c ****                                        hsiomSel[UART_SCLK_PIN_INDEX]);
 730:Generated_Source\PSoC4/UART.c **** 
 731:Generated_Source\PSoC4/UART.c ****         UART_spi_sclk_SetDriveMode((uint8) pinsDm[UART_SCLK_PIN_INDEX]);
 732:Generated_Source\PSoC4/UART.c **** 
 733:Generated_Source\PSoC4/UART.c ****         UART_SET_INP_DIS(UART_spi_sclk_INP_DIS,
 734:Generated_Source\PSoC4/UART.c ****                                      UART_spi_sclk_MASK,
 735:Generated_Source\PSoC4/UART.c ****                                      (0u != (pinsInBuf & UART_SCLK_PIN_MASK)));
 736:Generated_Source\PSoC4/UART.c ****     #endif /* (UART_SCLK_PIN) */
 737:Generated_Source\PSoC4/UART.c **** 
 738:Generated_Source\PSoC4/UART.c ****     #if (UART_SS0_PIN)
 739:Generated_Source\PSoC4/UART.c ****         UART_SET_HSIOM_SEL(UART_SS0_HSIOM_REG,
 740:Generated_Source\PSoC4/UART.c ****                                        UART_SS0_HSIOM_MASK,
 741:Generated_Source\PSoC4/UART.c ****                                        UART_SS0_HSIOM_POS,
 742:Generated_Source\PSoC4/UART.c ****                                        hsiomSel[UART_SS0_PIN_INDEX]);
 743:Generated_Source\PSoC4/UART.c **** 
 744:Generated_Source\PSoC4/UART.c ****         UART_spi_ss0_SetDriveMode((uint8) pinsDm[UART_SS0_PIN_INDEX]);
 745:Generated_Source\PSoC4/UART.c **** 
 746:Generated_Source\PSoC4/UART.c ****         UART_SET_INP_DIS(UART_spi_ss0_INP_DIS,
 747:Generated_Source\PSoC4/UART.c ****                                      UART_spi_ss0_MASK,
 748:Generated_Source\PSoC4/UART.c ****                                      (0u != (pinsInBuf & UART_SS0_PIN_MASK)));
 749:Generated_Source\PSoC4/UART.c ****     #endif /* (UART_SS0_PIN) */
 750:Generated_Source\PSoC4/UART.c **** 
 751:Generated_Source\PSoC4/UART.c ****     #if (UART_SS1_PIN)
 752:Generated_Source\PSoC4/UART.c ****         UART_SET_HSIOM_SEL(UART_SS1_HSIOM_REG,
 753:Generated_Source\PSoC4/UART.c ****                                        UART_SS1_HSIOM_MASK,
 754:Generated_Source\PSoC4/UART.c ****                                        UART_SS1_HSIOM_POS,
 755:Generated_Source\PSoC4/UART.c ****                                        hsiomSel[UART_SS1_PIN_INDEX]);
 756:Generated_Source\PSoC4/UART.c **** 
ARM GAS  C:\Users\jagumiel\AppData\Local\Temp\ccv2rUUu.s 			page 21


 757:Generated_Source\PSoC4/UART.c ****         UART_spi_ss1_SetDriveMode((uint8) pinsDm[UART_SS1_PIN_INDEX]);
 758:Generated_Source\PSoC4/UART.c **** 
 759:Generated_Source\PSoC4/UART.c ****         UART_SET_INP_DIS(UART_spi_ss1_INP_DIS,
 760:Generated_Source\PSoC4/UART.c ****                                      UART_spi_ss1_MASK,
 761:Generated_Source\PSoC4/UART.c ****                                      (0u != (pinsInBuf & UART_SS1_PIN_MASK)));
 762:Generated_Source\PSoC4/UART.c ****     #endif /* (UART_SS1_PIN) */
 763:Generated_Source\PSoC4/UART.c **** 
 764:Generated_Source\PSoC4/UART.c ****     #if (UART_SS2_PIN)
 765:Generated_Source\PSoC4/UART.c ****         UART_SET_HSIOM_SEL(UART_SS2_HSIOM_REG,
 766:Generated_Source\PSoC4/UART.c ****                                        UART_SS2_HSIOM_MASK,
 767:Generated_Source\PSoC4/UART.c ****                                        UART_SS2_HSIOM_POS,
 768:Generated_Source\PSoC4/UART.c ****                                        hsiomSel[UART_SS2_PIN_INDEX]);
 769:Generated_Source\PSoC4/UART.c **** 
 770:Generated_Source\PSoC4/UART.c ****         UART_spi_ss2_SetDriveMode((uint8) pinsDm[UART_SS2_PIN_INDEX]);
 771:Generated_Source\PSoC4/UART.c **** 
 772:Generated_Source\PSoC4/UART.c ****         UART_SET_INP_DIS(UART_spi_ss2_INP_DIS,
 773:Generated_Source\PSoC4/UART.c ****                                      UART_spi_ss2_MASK,
 774:Generated_Source\PSoC4/UART.c ****                                      (0u != (pinsInBuf & UART_SS2_PIN_MASK)));
 775:Generated_Source\PSoC4/UART.c ****     #endif /* (UART_SS2_PIN) */
 776:Generated_Source\PSoC4/UART.c **** 
 777:Generated_Source\PSoC4/UART.c ****     #if (UART_SS3_PIN)
 778:Generated_Source\PSoC4/UART.c ****         UART_SET_HSIOM_SEL(UART_SS3_HSIOM_REG,
 779:Generated_Source\PSoC4/UART.c ****                                        UART_SS3_HSIOM_MASK,
 780:Generated_Source\PSoC4/UART.c ****                                        UART_SS3_HSIOM_POS,
 781:Generated_Source\PSoC4/UART.c ****                                        hsiomSel[UART_SS3_PIN_INDEX]);
 782:Generated_Source\PSoC4/UART.c **** 
 783:Generated_Source\PSoC4/UART.c ****         UART_spi_ss3_SetDriveMode((uint8) pinsDm[UART_SS3_PIN_INDEX]);
 784:Generated_Source\PSoC4/UART.c **** 
 785:Generated_Source\PSoC4/UART.c ****         UART_SET_INP_DIS(UART_spi_ss3_INP_DIS,
 786:Generated_Source\PSoC4/UART.c ****                                      UART_spi_ss3_MASK,
 787:Generated_Source\PSoC4/UART.c ****                                      (0u != (pinsInBuf & UART_SS3_PIN_MASK)));
 788:Generated_Source\PSoC4/UART.c ****     #endif /* (UART_SS3_PIN) */
 789:Generated_Source\PSoC4/UART.c ****     }
 790:Generated_Source\PSoC4/UART.c **** 
 791:Generated_Source\PSoC4/UART.c **** #endif /* (UART_SCB_MODE_UNCONFIG_CONST_CFG) */
 792:Generated_Source\PSoC4/UART.c **** 
 793:Generated_Source\PSoC4/UART.c **** 
 794:Generated_Source\PSoC4/UART.c **** #if (UART_CY_SCBIP_V0 || UART_CY_SCBIP_V1)
 795:Generated_Source\PSoC4/UART.c ****     /*******************************************************************************
 796:Generated_Source\PSoC4/UART.c ****     * Function Name: UART_I2CSlaveNackGeneration
 797:Generated_Source\PSoC4/UART.c ****     ****************************************************************************//**
 798:Generated_Source\PSoC4/UART.c ****     *
 799:Generated_Source\PSoC4/UART.c ****     *  Sets command to generate NACK to the address or data.
 800:Generated_Source\PSoC4/UART.c ****     *
 801:Generated_Source\PSoC4/UART.c ****     *******************************************************************************/
 802:Generated_Source\PSoC4/UART.c ****     void UART_I2CSlaveNackGeneration(void)
 803:Generated_Source\PSoC4/UART.c ****     {
 385              		.loc 1 803 0
 386              		.cfi_startproc
 387              		@ args = 0, pretend = 0, frame = 0
 388              		@ frame_needed = 1, uses_anonymous_args = 0
 389 0000 80B5     		push	{r7, lr}
 390              		.cfi_def_cfa_offset 8
 391              		.cfi_offset 7, -8
 392              		.cfi_offset 14, -4
 393 0002 00AF     		add	r7, sp, #0
 394              		.cfi_def_cfa_register 7
ARM GAS  C:\Users\jagumiel\AppData\Local\Temp\ccv2rUUu.s 			page 22


 804:Generated_Source\PSoC4/UART.c ****         /* Check for EC_AM toggle condition: EC_AM and clock stretching for address are enabled */
 805:Generated_Source\PSoC4/UART.c ****         if ((0u != (UART_CTRL_REG & UART_CTRL_EC_AM_MODE)) &&
 395              		.loc 1 805 0
 396 0004 0F4B     		ldr	r3, .L23
 397 0006 1A68     		ldr	r2, [r3]
 398 0008 8023     		movs	r3, #128
 399 000a 5B00     		lsls	r3, r3, #1
 400 000c 1340     		ands	r3, r2
 401 000e 12D0     		beq	.L22
 806:Generated_Source\PSoC4/UART.c ****             (0u == (UART_I2C_CTRL_REG & UART_I2C_CTRL_S_NOT_READY_ADDR_NACK)))
 402              		.loc 1 806 0 discriminator 1
 403 0010 0D4B     		ldr	r3, .L23+4
 404 0012 1A68     		ldr	r2, [r3]
 405 0014 8023     		movs	r3, #128
 406 0016 DB01     		lsls	r3, r3, #7
 407 0018 1340     		ands	r3, r2
 805:Generated_Source\PSoC4/UART.c ****             (0u == (UART_I2C_CTRL_REG & UART_I2C_CTRL_S_NOT_READY_ADDR_NACK)))
 408              		.loc 1 805 0 discriminator 1
 409 001a 0CD1     		bne	.L22
 807:Generated_Source\PSoC4/UART.c ****         {
 808:Generated_Source\PSoC4/UART.c ****             /* Toggle EC_AM before NACK generation */
 809:Generated_Source\PSoC4/UART.c ****             UART_CTRL_REG &= ~UART_CTRL_EC_AM_MODE;
 410              		.loc 1 809 0
 411 001c 094B     		ldr	r3, .L23
 412 001e 094A     		ldr	r2, .L23
 413 0020 1268     		ldr	r2, [r2]
 414 0022 0A49     		ldr	r1, .L23+8
 415 0024 0A40     		ands	r2, r1
 416 0026 1A60     		str	r2, [r3]
 810:Generated_Source\PSoC4/UART.c ****             UART_CTRL_REG |=  UART_CTRL_EC_AM_MODE;
 417              		.loc 1 810 0
 418 0028 064B     		ldr	r3, .L23
 419 002a 064A     		ldr	r2, .L23
 420 002c 1268     		ldr	r2, [r2]
 421 002e 8021     		movs	r1, #128
 422 0030 4900     		lsls	r1, r1, #1
 423 0032 0A43     		orrs	r2, r1
 424 0034 1A60     		str	r2, [r3]
 425              	.L22:
 811:Generated_Source\PSoC4/UART.c ****         }
 812:Generated_Source\PSoC4/UART.c **** 
 813:Generated_Source\PSoC4/UART.c ****         UART_I2C_SLAVE_CMD_REG = UART_I2C_SLAVE_CMD_S_NACK;
 426              		.loc 1 813 0
 427 0036 064B     		ldr	r3, .L23+12
 428 0038 0222     		movs	r2, #2
 429 003a 1A60     		str	r2, [r3]
 814:Generated_Source\PSoC4/UART.c ****     }
 430              		.loc 1 814 0
 431 003c C046     		nop
 432 003e BD46     		mov	sp, r7
 433              		@ sp needed
 434 0040 80BD     		pop	{r7, pc}
 435              	.L24:
 436 0042 C046     		.align	2
 437              	.L23:
 438 0044 00000640 		.word	1074135040
 439 0048 60000640 		.word	1074135136
ARM GAS  C:\Users\jagumiel\AppData\Local\Temp\ccv2rUUu.s 			page 23


 440 004c FFFEFFFF 		.word	-257
 441 0050 6C000640 		.word	1074135148
 442              		.cfi_endproc
 443              	.LFE9:
 444              		.size	UART_I2CSlaveNackGeneration, .-UART_I2CSlaveNackGeneration
 445              		.text
 446              	.Letext0:
 447              		.file 2 "Generated_Source\\PSoC4/cytypes.h"