ARM GAS  C:\Users\jagumiel\AppData\Local\Temp\cc8LzGMF.s 			page 1


   1              		.syntax unified
   2              		.cpu cortex-m0
   3              		.fpu softvfp
   4              		.eabi_attribute 20, 1
   5              		.eabi_attribute 21, 1
   6              		.eabi_attribute 23, 3
   7              		.eabi_attribute 24, 1
   8              		.eabi_attribute 25, 1
   9              		.eabi_attribute 26, 1
  10              		.eabi_attribute 30, 1
  11              		.eabi_attribute 34, 0
  12              		.eabi_attribute 18, 4
  13              		.thumb
  14              		.syntax unified
  15              		.file	"main.c"
  16              		.text
  17              	.Ltext0:
  18              		.cfi_sections	.debug_frame
  19              		.section	.text.Pin_SW2_Handler,"ax",%progbits
  20              		.align	2
  21              		.global	Pin_SW2_Handler
  22              		.code	16
  23              		.thumb_func
  24              		.type	Pin_SW2_Handler, %function
  25              	Pin_SW2_Handler:
  26              	.LFB32:
  27              		.file 1 "main.c"
   1:main.c        **** /* ========================================
   2:main.c        ****  *
   3:main.c        ****  * Copyright YOUR COMPANY, THE YEAR
   4:main.c        ****  * All Rights Reserved
   5:main.c        ****  * UNPUBLISHED, LICENSED SOFTWARE.
   6:main.c        ****  *
   7:main.c        ****  * CONFIDENTIAL AND PROPRIETARY INFORMATION
   8:main.c        ****  * WHICH IS THE PROPERTY OF your company.
   9:main.c        ****  *
  10:main.c        ****  * ========================================
  11:main.c        **** */
  12:main.c        **** #include <project.h>
  13:main.c        **** 
  14:main.c        **** _Bool sleep = 0;
  15:main.c        **** 
  16:main.c        **** CY_ISR(Pin_SW2_Handler){
  28              		.loc 1 16 0
  29              		.cfi_startproc
  30              		@ args = 0, pretend = 0, frame = 0
  31              		@ frame_needed = 0, uses_anonymous_args = 0
  32 0000 10B5     		push	{r4, lr}
  33              		.cfi_def_cfa_offset 8
  34              		.cfi_offset 4, -8
  35              		.cfi_offset 14, -4
  17:main.c        ****     sleep=(!sleep);
  36              		.loc 1 17 0
  37 0002 074A     		ldr	r2, .L3
  38 0004 1178     		ldrb	r1, [r2]
  39 0006 0123     		movs	r3, #1
  40 0008 4B40     		eors	r3, r1
ARM GAS  C:\Users\jagumiel\AppData\Local\Temp\cc8LzGMF.s 			page 2


  41 000a DBB2     		uxtb	r3, r3
  42 000c 1370     		strb	r3, [r2]
  18:main.c        ****     if(sleep==0){
  43              		.loc 1 18 0
  44 000e 002B     		cmp	r3, #0
  45 0010 02D1     		bne	.L2
  19:main.c        ****         UART_UartPutString("Awake!\r\n");
  46              		.loc 1 19 0
  47 0012 0448     		ldr	r0, .L3+4
  48 0014 FFF7FEFF 		bl	UART_UartPutString
  49              	.LVL0:
  50              	.L2:
  20:main.c        ****     }
  21:main.c        ****     Pin_SW2_ClearInterrupt();
  51              		.loc 1 21 0
  52 0018 FFF7FEFF 		bl	Pin_SW2_ClearInterrupt
  53              	.LVL1:
  22:main.c        **** }
  54              		.loc 1 22 0
  55              		@ sp needed
  56 001c 10BD     		pop	{r4, pc}
  57              	.L4:
  58 001e C046     		.align	2
  59              	.L3:
  60 0020 00000000 		.word	.LANCHOR0
  61 0024 00000000 		.word	.LC1
  62              		.cfi_endproc
  63              	.LFE32:
  64              		.size	Pin_SW2_Handler, .-Pin_SW2_Handler
  65              		.section	.text.main,"ax",%progbits
  66              		.align	2
  67              		.global	main
  68              		.code	16
  69              		.thumb_func
  70              		.type	main, %function
  71              	main:
  72              	.LFB33:
  23:main.c        **** 
  24:main.c        **** int main (void)
  25:main.c        **** {
  73              		.loc 1 25 0
  74              		.cfi_startproc
  75              		@ Volatile: function does not return.
  76              		@ args = 0, pretend = 0, frame = 0
  77              		@ frame_needed = 0, uses_anonymous_args = 0
  78 0000 10B5     		push	{r4, lr}
  79              		.cfi_def_cfa_offset 8
  80              		.cfi_offset 4, -8
  81              		.cfi_offset 14, -4
  26:main.c        ****     CyGlobalIntEnable;      /* Enable global interrupts */
  82              		.loc 1 26 0
  83              		.syntax divided
  84              	@ 26 "main.c" 1
  85 0002 62B6     		CPSIE   i
  86              	@ 0 "" 2
  27:main.c        ****     
  28:main.c        ****     UART_Start();
ARM GAS  C:\Users\jagumiel\AppData\Local\Temp\cc8LzGMF.s 			page 3


  87              		.loc 1 28 0
  88              		.thumb
  89              		.syntax unified
  90 0004 FFF7FEFF 		bl	UART_Start
  91              	.LVL2:
  29:main.c        ****     
  30:main.c        ****     Pin_SW2_Int_StartEx(Pin_SW2_Handler);
  92              		.loc 1 30 0
  93 0008 0648     		ldr	r0, .L8
  94 000a FFF7FEFF 		bl	Pin_SW2_Int_StartEx
  95              	.LVL3:
  96              	.L6:
  31:main.c        ****     
  32:main.c        ****     /* Place your initialization/startup code here (e.g. MyInst_Start()) */
  33:main.c        ****     
  34:main.c        ****     for(;;)
  35:main.c        ****     {
  36:main.c        ****         if(sleep==1){
  97              		.loc 1 36 0
  98 000e 064B     		ldr	r3, .L8+4
  99 0010 1B78     		ldrb	r3, [r3]
 100 0012 002B     		cmp	r3, #0
 101 0014 FBD0     		beq	.L6
  37:main.c        ****             UART_UartPutString("Sleeping...\r\n");
 102              		.loc 1 37 0
 103 0016 0548     		ldr	r0, .L8+8
 104 0018 FFF7FEFF 		bl	UART_UartPutString
 105              	.LVL4:
  38:main.c        ****             CySysPmSleep();
 106              		.loc 1 38 0
 107 001c FFF7FEFF 		bl	CySysPmSleep
 108              	.LVL5:
 109 0020 F5E7     		b	.L6
 110              	.L9:
 111 0022 C046     		.align	2
 112              	.L8:
 113 0024 00000000 		.word	Pin_SW2_Handler
 114 0028 00000000 		.word	.LANCHOR0
 115 002c 0C000000 		.word	.LC5
 116              		.cfi_endproc
 117              	.LFE33:
 118              		.size	main, .-main
 119              		.global	sleep
 120              		.section	.rodata.str1.4,"aMS",%progbits,1
 121              		.align	2
 122              	.LC1:
 123 0000 4177616B 		.ascii	"Awake!\015\012\000"
 123      65210D0A 
 123      00
 124 0009 000000   		.space	3
 125              	.LC5:
 126 000c 536C6565 		.ascii	"Sleeping...\015\012\000"
 126      70696E67 
 126      2E2E2E0D 
 126      0A00
 127              		.bss
 128              		.set	.LANCHOR0,. + 0
ARM GAS  C:\Users\jagumiel\AppData\Local\Temp\cc8LzGMF.s 			page 4


 129              		.type	sleep, %object
 130              		.size	sleep, 1
 131              	sleep:
 132 0000 00       		.space	1
 133              		.text
 134              	.Letext0:
 135              		.file 2 "Generated_Source\\PSoC4/UART_SPI_UART.h"
 136              		.file 3 "Generated_Source\\PSoC4/Pin_SW2.h"
 137              		.file 4 "Generated_Source\\PSoC4/UART.h"
 138              		.file 5 "Generated_Source\\PSoC4/Pin_SW2_Int.h"
 139              		.file 6 "Generated_Source\\PSoC4/cyPm.h"