ARM GAS  C:\Users\jagumiel\AppData\Local\Temp\cc318Qbo.s 			page 1


   1              		.syntax unified
   2              		.cpu cortex-m0
   3              		.fpu softvfp
   4              		.eabi_attribute 20, 1
   5              		.eabi_attribute 21, 1
   6              		.eabi_attribute 23, 3
   7              		.eabi_attribute 24, 1
   8              		.eabi_attribute 25, 1
   9              		.eabi_attribute 26, 1
  10              		.eabi_attribute 30, 1
  11              		.eabi_attribute 34, 0
  12              		.eabi_attribute 18, 4
  13              		.thumb
  14              		.syntax unified
  15              		.file	"main.c"
  16              		.text
  17              	.Ltext0:
  18              		.cfi_sections	.debug_frame
  19              		.section	.text.Timer_Int_Handler,"ax",%progbits
  20              		.align	2
  21              		.global	Timer_Int_Handler
  22              		.code	16
  23              		.thumb_func
  24              		.type	Timer_Int_Handler, %function
  25              	Timer_Int_Handler:
  26              	.LFB32:
  27              		.file 1 "main.c"
   1:main.c        **** /* ========================================
   2:main.c        ****  *
   3:main.c        ****  * In this lesson there is a counter.
   4:main.c        ****  * It counts down from 2 to 0. So to make
   5:main.c        ****  * the led change it is needed to push the
   6:main.c        ****  * switch 3 times.
   7:main.c        ****  *
   8:main.c        ****  * ========================================
   9:main.c        **** */
  10:main.c        **** #include "project.h"
  11:main.c        **** 
  12:main.c        **** CY_ISR (Timer_Int_Handler){
  28              		.loc 1 12 0
  29              		.cfi_startproc
  30              		@ args = 0, pretend = 0, frame = 0
  31              		@ frame_needed = 0, uses_anonymous_args = 0
  32 0000 10B5     		push	{r4, lr}
  33              		.cfi_def_cfa_offset 8
  34              		.cfi_offset 4, -8
  35              		.cfi_offset 14, -4
  13:main.c        ****     uint16 counter = Timer_ReadCapture();
  36              		.loc 1 13 0
  37 0002 FFF7FEFF 		bl	Timer_ReadCapture
  38              	.LVL0:
  39 0006 80B2     		uxth	r0, r0
  40              	.LVL1:
  14:main.c        ****     if(counter>10000){
  41              		.loc 1 14 0
  42 0008 044B     		ldr	r3, .L4
  43 000a 9842     		cmp	r0, r3
ARM GAS  C:\Users\jagumiel\AppData\Local\Temp\cc318Qbo.s 			page 2


  44 000c 00D9     		bls	.L2
  15:main.c        ****         counter = 10000;   
  45              		.loc 1 15 0
  46 000e 1800     		movs	r0, r3
  47              	.LVL2:
  48              	.L2:
  16:main.c        ****     }
  17:main.c        ****     PWM_WriteCompare(counter);
  49              		.loc 1 17 0
  50 0010 FFF7FEFF 		bl	PWM_WriteCompare
  51              	.LVL3:
  18:main.c        ****     Timer_ClearInterrupt(Timer_INTR_MASK_CC_MATCH);
  52              		.loc 1 18 0
  53 0014 0220     		movs	r0, #2
  54 0016 FFF7FEFF 		bl	Timer_ClearInterrupt
  55              	.LVL4:
  19:main.c        **** }
  56              		.loc 1 19 0
  57              		@ sp needed
  58 001a 10BD     		pop	{r4, pc}
  59              	.L5:
  60              		.align	2
  61              	.L4:
  62 001c 10270000 		.word	10000
  63              		.cfi_endproc
  64              	.LFE32:
  65              		.size	Timer_Int_Handler, .-Timer_Int_Handler
  66              		.section	.text.main,"ax",%progbits
  67              		.align	2
  68              		.global	main
  69              		.code	16
  70              		.thumb_func
  71              		.type	main, %function
  72              	main:
  73              	.LFB33:
  20:main.c        **** 
  21:main.c        **** int main(void)
  22:main.c        **** {
  74              		.loc 1 22 0
  75              		.cfi_startproc
  76              		@ Volatile: function does not return.
  77              		@ args = 0, pretend = 0, frame = 0
  78              		@ frame_needed = 0, uses_anonymous_args = 0
  79 0000 10B5     		push	{r4, lr}
  80              		.cfi_def_cfa_offset 8
  81              		.cfi_offset 4, -8
  82              		.cfi_offset 14, -4
  23:main.c        ****     CyGlobalIntEnable; /* Enable global interrupts. */
  83              		.loc 1 23 0
  84              		.syntax divided
  85              	@ 23 "main.c" 1
  86 0002 62B6     		CPSIE   i
  87              	@ 0 "" 2
  24:main.c        ****     
  25:main.c        ****     PWM_Start();
  88              		.loc 1 25 0
  89              		.thumb
ARM GAS  C:\Users\jagumiel\AppData\Local\Temp\cc318Qbo.s 			page 3


  90              		.syntax unified
  91 0004 FFF7FEFF 		bl	PWM_Start
  92              	.LVL5:
  26:main.c        ****     Timer_Start();
  93              		.loc 1 26 0
  94 0008 FFF7FEFF 		bl	Timer_Start
  95              	.LVL6:
  27:main.c        ****     
  28:main.c        ****     Timer_Int_StartEx(Timer_Int_Handler);
  96              		.loc 1 28 0
  97 000c 0148     		ldr	r0, .L8
  98 000e FFF7FEFF 		bl	Timer_Int_StartEx
  99              	.LVL7:
 100              	.L7:
 101 0012 FEE7     		b	.L7
 102              	.L9:
 103              		.align	2
 104              	.L8:
 105 0014 00000000 		.word	Timer_Int_Handler
 106              		.cfi_endproc
 107              	.LFE33:
 108              		.size	main, .-main
 109              		.text
 110              	.Letext0:
 111              		.file 2 "Generated_Source\\PSoC4/cytypes.h"
 112              		.file 3 "Generated_Source\\PSoC4/Timer.h"
 113              		.file 4 "Generated_Source\\PSoC4/PWM.h"
 114              		.file 5 "Generated_Source\\PSoC4/Timer_Int.h"