ARM GAS  C:\Users\jagumiel\AppData\Local\Temp\ccTD7cEs.s 			page 1


   1              		.syntax unified
   2              		.cpu cortex-m0
   3              		.fpu softvfp
   4              		.eabi_attribute 20, 1
   5              		.eabi_attribute 21, 1
   6              		.eabi_attribute 23, 3
   7              		.eabi_attribute 24, 1
   8              		.eabi_attribute 25, 1
   9              		.eabi_attribute 26, 1
  10              		.eabi_attribute 30, 1
  11              		.eabi_attribute 34, 0
  12              		.eabi_attribute 18, 4
  13              		.thumb
  14              		.syntax unified
  15              		.file	"main.c"
  16              		.text
  17              	.Ltext0:
  18              		.cfi_sections	.debug_frame
  19              		.section	.text.main,"ax",%progbits
  20              		.align	2
  21              		.global	main
  22              		.code	16
  23              		.thumb_func
  24              		.type	main, %function
  25              	main:
  26              	.LFB33:
  27              		.file 1 "main.c"
   1:main.c        **** /* ========================================
   2:main.c        ****  *
   3:main.c        ****  * Copyright YOUR COMPANY, THE YEAR
   4:main.c        ****  * All Rights Reserved
   5:main.c        ****  * UNPUBLISHED, LICENSED SOFTWARE.
   6:main.c        ****  *
   7:main.c        ****  * CONFIDENTIAL AND PROPRIETARY INFORMATION
   8:main.c        ****  * WHICH IS THE PROPERTY OF your company.
   9:main.c        ****  *
  10:main.c        ****  * ========================================
  11:main.c        **** */
  12:main.c        **** #include "project.h"
  13:main.c        **** #include <stdio.h>
  14:main.c        **** 
  15:main.c        **** int main(void)
  16:main.c        **** {
  28              		.loc 1 16 0
  29              		.cfi_startproc
  30              		@ args = 0, pretend = 0, frame = 16
  31              		@ frame_needed = 0, uses_anonymous_args = 0
  32 0000 30B5     		push	{r4, r5, lr}
  33              		.cfi_def_cfa_offset 12
  34              		.cfi_offset 4, -12
  35              		.cfi_offset 5, -8
  36              		.cfi_offset 14, -4
  37 0002 85B0     		sub	sp, sp, #20
  38              		.cfi_def_cfa_offset 32
  17:main.c        ****     CyGlobalIntEnable; /* Enable global interrupts. */
  39              		.loc 1 17 0
  40              		.syntax divided
ARM GAS  C:\Users\jagumiel\AppData\Local\Temp\ccTD7cEs.s 			page 2


  41              	@ 17 "main.c" 1
  42 0004 62B6     		CPSIE   i
  43              	@ 0 "" 2
  44              	.LVL0:
  18:main.c        ****     uint16 sliderVal;
  19:main.c        ****     uint16 oldSliderVal=0xFFFF;
  20:main.c        ****     char msg[10];
  21:main.c        ****     
  22:main.c        ****     UART_Start();
  45              		.loc 1 22 0
  46              		.thumb
  47              		.syntax unified
  48 0006 FFF7FEFF 		bl	UART_Start
  49              	.LVL1:
  23:main.c        ****     CapSense_Start();
  50              		.loc 1 23 0
  51 000a FFF7FEFF 		bl	CapSense_Start
  52              	.LVL2:
  24:main.c        ****     CapSense_InitializeAllBaselines();
  53              		.loc 1 24 0
  54 000e FFF7FEFF 		bl	CapSense_InitializeAllBaselines
  55              	.LVL3:
  25:main.c        ****     CapSense_ScanEnabledWidgets();
  56              		.loc 1 25 0
  57 0012 FFF7FEFF 		bl	CapSense_ScanEnabledWidgets
  58              	.LVL4:
  19:main.c        ****     char msg[10];
  59              		.loc 1 19 0
  60 0016 0E4D     		ldr	r5, .L5
  61              	.LVL5:
  62              	.L2:
  26:main.c        **** 
  27:main.c        ****     /* Place your initialization/startup code here (e.g. MyInst_Start()) */
  28:main.c        **** 
  29:main.c        ****     for(;;)
  30:main.c        ****     {
  31:main.c        ****         if(!CapSense_IsBusy()){
  63              		.loc 1 31 0
  64 0018 FFF7FEFF 		bl	CapSense_IsBusy
  65              	.LVL6:
  66 001c 0028     		cmp	r0, #0
  67 001e FBD1     		bne	.L2
  32:main.c        ****             sliderVal=CapSense_GetCentroidPos(CapSense_LINEAR_SLIDERS_POS_FILTERS_MASK);
  68              		.loc 1 32 0
  69 0020 0830     		adds	r0, r0, #8
  70 0022 FFF7FEFF 		bl	CapSense_GetCentroidPos
  71              	.LVL7:
  72 0026 0400     		movs	r4, r0
  73              	.LVL8:
  33:main.c        ****             if(sliderVal!=0xFFFF && sliderVal!=oldSliderVal){
  74              		.loc 1 33 0
  75 0028 094A     		ldr	r2, .L5
  76 002a 9042     		cmp	r0, r2
  77 002c 0AD0     		beq	.L3
  78              		.loc 1 33 0 is_stmt 0 discriminator 1
  79 002e 8542     		cmp	r5, r0
  80 0030 08D0     		beq	.L3
ARM GAS  C:\Users\jagumiel\AppData\Local\Temp\ccTD7cEs.s 			page 3


  34:main.c        ****                 sprintf(msg, "%3d\r\n", sliderVal);
  81              		.loc 1 34 0 is_stmt 1
  82 0032 0200     		movs	r2, r0
  83 0034 0749     		ldr	r1, .L5+4
  84 0036 01A8     		add	r0, sp, #4
  85              	.LVL9:
  86 0038 FFF7FEFF 		bl	sprintf
  87              	.LVL10:
  35:main.c        ****                 UART_UartPutString(msg);
  88              		.loc 1 35 0
  89 003c 01A8     		add	r0, sp, #4
  90 003e FFF7FEFF 		bl	UART_UartPutString
  91              	.LVL11:
  36:main.c        ****                 oldSliderVal=sliderVal;
  92              		.loc 1 36 0
  93 0042 2500     		movs	r5, r4
  94              	.LVL12:
  95              	.L3:
  37:main.c        ****             }
  38:main.c        ****             CapSense_UpdateEnabledBaselines();
  96              		.loc 1 38 0
  97 0044 FFF7FEFF 		bl	CapSense_UpdateEnabledBaselines
  98              	.LVL13:
  39:main.c        ****             CapSense_ScanEnabledWidgets();
  99              		.loc 1 39 0
 100 0048 FFF7FEFF 		bl	CapSense_ScanEnabledWidgets
 101              	.LVL14:
 102 004c E4E7     		b	.L2
 103              	.L6:
 104 004e C046     		.align	2
 105              	.L5:
 106 0050 FFFF0000 		.word	65535
 107 0054 00000000 		.word	.LC0
 108              		.cfi_endproc
 109              	.LFE33:
 110              		.size	main, .-main
 111              		.section	.rodata.str1.4,"aMS",%progbits,1
 112              		.align	2
 113              	.LC0:
 114 0000 2533640D 		.ascii	"%3d\015\012\000"
 114      0A00
 115              		.text
 116              	.Letext0:
 117              		.file 2 "Generated_Source\\PSoC4/UART.h"
 118              		.file 3 "Generated_Source\\PSoC4/CapSense.h"
 119              		.file 4 "Generated_Source\\PSoC4/CapSense_CSHL.h"
 120              		.file 5 "c:\\program files (x86)\\cypress\\psoc creator\\4.2\\psoc creator\\import\\gnu\\arm\\5.4.
 121              		.file 6 "Generated_Source\\PSoC4/UART_SPI_UART.h"
 122              		.file 7 "Generated_Source\\PSoC4/cytypes.h"