ARM GAS  C:\Users\jagumiel\AppData\Local\Temp\ccArOLq7.s 			page 1


   1              		.syntax unified
   2              		.cpu cortex-m0
   3              		.fpu softvfp
   4              		.eabi_attribute 20, 1
   5              		.eabi_attribute 21, 1
   6              		.eabi_attribute 23, 3
   7              		.eabi_attribute 24, 1
   8              		.eabi_attribute 25, 1
   9              		.eabi_attribute 26, 1
  10              		.eabi_attribute 30, 1
  11              		.eabi_attribute 34, 0
  12              		.eabi_attribute 18, 4
  13              		.thumb
  14              		.syntax unified
  15              		.file	"main.c"
  16              		.text
  17              	.Ltext0:
  18              		.cfi_sections	.debug_frame
  19              		.section	.text.Timer_Int_Handler,"ax",%progbits
  20              		.align	2
  21              		.global	Timer_Int_Handler
  22              		.code	16
  23              		.thumb_func
  24              		.type	Timer_Int_Handler, %function
  25              	Timer_Int_Handler:
  26              	.LFB32:
  27              		.file 1 "main.c"
   1:main.c        **** /* ========================================
   2:main.c        ****  *
   3:main.c        ****  * Copyright YOUR COMPANY, THE YEAR
   4:main.c        ****  * All Rights Reserved
   5:main.c        ****  * UNPUBLISHED, LICENSED SOFTWARE.
   6:main.c        ****  *
   7:main.c        ****  * CONFIDENTIAL AND PROPRIETARY INFORMATION
   8:main.c        ****  * WHICH IS THE PROPERTY OF your company.
   9:main.c        ****  *
  10:main.c        ****  * ========================================
  11:main.c        **** */
  12:main.c        **** #include <project.h>
  13:main.c        **** 
  14:main.c        **** CY_ISR(Timer_Int_Handler){
  28              		.loc 1 14 0
  29              		.cfi_startproc
  30              		@ args = 0, pretend = 0, frame = 0
  31              		@ frame_needed = 0, uses_anonymous_args = 0
  32 0000 10B5     		push	{r4, lr}
  33              		.cfi_def_cfa_offset 8
  34              		.cfi_offset 4, -8
  35              		.cfi_offset 14, -4
  15:main.c        ****     Timer_ClearInterrupt(Timer_INTR_MASK_TC);
  36              		.loc 1 15 0
  37 0002 0120     		movs	r0, #1
  38 0004 FFF7FEFF 		bl	Timer_ClearInterrupt
  39              	.LVL0:
  16:main.c        **** }
  40              		.loc 1 16 0
  41              		@ sp needed
ARM GAS  C:\Users\jagumiel\AppData\Local\Temp\ccArOLq7.s 			page 2


  42 0008 10BD     		pop	{r4, pc}
  43              		.cfi_endproc
  44              	.LFE32:
  45              		.size	Timer_Int_Handler, .-Timer_Int_Handler
  46 000a C046     		.section	.text.main,"ax",%progbits
  47              		.align	2
  48              		.global	main
  49              		.code	16
  50              		.thumb_func
  51              		.type	main, %function
  52              	main:
  53              	.LFB33:
  17:main.c        **** 
  18:main.c        **** int main (void)
  19:main.c        **** {
  54              		.loc 1 19 0
  55              		.cfi_startproc
  56              		@ Volatile: function does not return.
  57              		@ args = 0, pretend = 0, frame = 0
  58              		@ frame_needed = 0, uses_anonymous_args = 0
  59 0000 10B5     		push	{r4, lr}
  60              		.cfi_def_cfa_offset 8
  61              		.cfi_offset 4, -8
  62              		.cfi_offset 14, -4
  20:main.c        ****     CyGlobalIntEnable;      /* Enable global interrupts */
  63              		.loc 1 20 0
  64              		.syntax divided
  65              	@ 20 "main.c" 1
  66 0002 62B6     		CPSIE   i
  67              	@ 0 "" 2
  21:main.c        ****     
  22:main.c        ****     UART_Start();
  68              		.loc 1 22 0
  69              		.thumb
  70              		.syntax unified
  71 0004 FFF7FEFF 		bl	UART_Start
  72              	.LVL1:
  23:main.c        ****     
  24:main.c        ****     Timer_Int_StartEx(Timer_Int_Handler);
  73              		.loc 1 24 0
  74 0008 0848     		ldr	r0, .L4
  75 000a FFF7FEFF 		bl	Timer_Int_StartEx
  76              	.LVL2:
  77              	.L3:
  25:main.c        ****     
  26:main.c        ****     /* Place your initialization/startup code here (e.g. MyInst_Start()) */
  27:main.c        ****     
  28:main.c        ****     for(;;)
  29:main.c        ****     {
  30:main.c        ****         CyDelay(5000);
  78              		.loc 1 30 0 discriminator 1
  79 000e 0848     		ldr	r0, .L4+4
  80 0010 FFF7FEFF 		bl	CyDelay
  81              	.LVL3:
  31:main.c        ****         UART_UartPutString("Sleeping... <Wake up in 10 seconds>\r\n");
  82              		.loc 1 31 0 discriminator 1
  83 0014 0748     		ldr	r0, .L4+8
ARM GAS  C:\Users\jagumiel\AppData\Local\Temp\ccArOLq7.s 			page 3


  84 0016 FFF7FEFF 		bl	UART_UartPutString
  85              	.LVL4:
  32:main.c        ****         Timer_Start();
  86              		.loc 1 32 0 discriminator 1
  87 001a FFF7FEFF 		bl	Timer_Start
  88              	.LVL5:
  33:main.c        ****         CySysPmSleep();
  89              		.loc 1 33 0 discriminator 1
  90 001e FFF7FEFF 		bl	CySysPmSleep
  91              	.LVL6:
  34:main.c        ****         UART_UartPutString("Awake!\r\n");
  92              		.loc 1 34 0 discriminator 1
  93 0022 0548     		ldr	r0, .L4+12
  94 0024 FFF7FEFF 		bl	UART_UartPutString
  95              	.LVL7:
  96 0028 F1E7     		b	.L3
  97              	.L5:
  98 002a C046     		.align	2
  99              	.L4:
 100 002c 00000000 		.word	Timer_Int_Handler
 101 0030 88130000 		.word	5000
 102 0034 00000000 		.word	.LC1
 103 0038 28000000 		.word	.LC3
 104              		.cfi_endproc
 105              	.LFE33:
 106              		.size	main, .-main
 107              		.section	.rodata.str1.4,"aMS",%progbits,1
 108              		.align	2
 109              	.LC1:
 110 0000 536C6565 		.ascii	"Sleeping... <Wake up in 10 seconds>\015\012\000"
 110      70696E67 
 110      2E2E2E20 
 110      3C57616B 
 110      65207570 
 111 0026 0000     		.space	2
 112              	.LC3:
 113 0028 4177616B 		.ascii	"Awake!\015\012\000"
 113      65210D0A 
 113      00
 114              		.text
 115              	.Letext0:
 116              		.file 2 "Generated_Source\\PSoC4/Timer.h"
 117              		.file 3 "Generated_Source\\PSoC4/UART.h"
 118              		.file 4 "Generated_Source\\PSoC4/Timer_Int.h"
 119              		.file 5 "Generated_Source\\PSoC4/CyLib.h"
 120              		.file 6 "Generated_Source\\PSoC4/UART_SPI_UART.h"
 121              		.file 7 "Generated_Source\\PSoC4/cyPm.h"
 122              		.file 8 "Generated_Source\\PSoC4/cytypes.h"