ARM GAS  C:\Users\jagumiel\AppData\Local\Temp\ccNv8gSf.s 			page 1


   1              		.syntax unified
   2              		.cpu cortex-m0
   3              		.fpu softvfp
   4              		.eabi_attribute 20, 1
   5              		.eabi_attribute 21, 1
   6              		.eabi_attribute 23, 3
   7              		.eabi_attribute 24, 1
   8              		.eabi_attribute 25, 1
   9              		.eabi_attribute 26, 1
  10              		.eabi_attribute 30, 6
  11              		.eabi_attribute 34, 0
  12              		.eabi_attribute 18, 4
  13              		.thumb
  14              		.syntax unified
  15              		.file	"main.c"
  16              		.text
  17              	.Ltext0:
  18              		.cfi_sections	.debug_frame
  19              		.global	windowFlag
  20              		.bss
  21              		.align	2
  22              		.type	windowFlag, %object
  23              		.size	windowFlag, 4
  24              	windowFlag:
  25 0000 00000000 		.space	4
  26              		.global	dataReady
  27              		.type	dataReady, %object
  28              		.size	dataReady, 1
  29              	dataReady:
  30 0004 00       		.space	1
  31              		.global	channelFlag
  32              		.type	channelFlag, %object
  33              		.size	channelFlag, 1
  34              	channelFlag:
  35 0005 00       		.space	1
  36              		.global	__aeabi_idiv
  37              		.section	.text.main,"ax",%progbits
  38              		.align	2
  39              		.global	main
  40              		.code	16
  41              		.thumb_func
  42              		.type	main, %function
  43              	main:
  44              	.LFB32:
  45              		.file 1 "main.c"
   1:main.c        **** /*******************************************************************************
   2:main.c        **** * File Name: main.c
   3:main.c        **** *
   4:main.c        **** * Version: 2.00
   5:main.c        **** *
   6:main.c        **** * Description:
   7:main.c        **** *  This example project shows how to sample four different channels using
   8:main.c        **** *  SAR MUX and ADC, and send channel output to HyperTerminal (PC) using UART.
   9:main.c        **** *
  10:main.c        **** ********************************************************************************
  11:main.c        **** * Copyright 2013-2018, Cypress Semiconductor Corporation. All rights reserved.
  12:main.c        **** * This software is owned by Cypress Semiconductor Corporation and is protected
ARM GAS  C:\Users\jagumiel\AppData\Local\Temp\ccNv8gSf.s 			page 2


  13:main.c        **** * by and subject to worldwide patent and copyright laws and treaties.
  14:main.c        **** * Therefore, you may use this software only as provided in the license agreement
  15:main.c        **** * accompanying the software package from which you obtained this software.
  16:main.c        **** * CYPRESS AND ITS SUPPLIERS MAKE NO WARRANTY OF ANY KIND, EXPRESS OR IMPLIED,
  17:main.c        **** * WITH REGARD TO THIS SOFTWARE, INCLUDING, BUT NOT LIMITED TO, NONINFRINGEMENT,
  18:main.c        **** * IMPLIED WARRANTIES OF MERCHANTABILITY AND FITNESS FOR A PARTICULAR PURPOSE.
  19:main.c        **** *******************************************************************************/
  20:main.c        **** 
  21:main.c        **** #include <project.h>
  22:main.c        **** 
  23:main.c        **** /* Macro definitions */
  24:main.c        **** #define LOW                 (0u)
  25:main.c        **** #define HIGH                (1u)
  26:main.c        **** #define CHANNEL_1           (0u)
  27:main.c        **** #define NO_OF_CHANNELS      (1u)
  28:main.c        **** #define CLEAR_SCREEN        (0x0C)
  29:main.c        **** #define CONVERT_TO_ASCII    (0x30u)
  30:main.c        **** 
  31:main.c        **** /* Resistor Values and Gain */
  32:main.c        **** #define RG                  (2200u)
  33:main.c        **** #define R1                  (10000u)
  34:main.c        **** #define GAIN                (1 + 2 * (float)R1 / RG)
  35:main.c        **** 
  36:main.c        **** /* Send the channel number and voltage to UART */
  37:main.c        **** static void SendChannelVoltage(uint8 channel, int16 mVolts);
  38:main.c        **** 
  39:main.c        **** /* Interrupt prototypes */
  40:main.c        **** CY_ISR_PROTO(ADC_ISR_Handler);
  41:main.c        **** 
  42:main.c        **** /* Global variables */
  43:main.c        **** volatile uint32 windowFlag    = 0u;
  44:main.c        **** volatile uint8  dataReady     = 0u;
  45:main.c        **** volatile uint8  channelFlag   = 0u;
  46:main.c        **** 
  47:main.c        **** 
  48:main.c        **** /*******************************************************************************
  49:main.c        **** * Function Name: main
  50:main.c        **** ********************************************************************************
  51:main.c        **** *
  52:main.c        **** * Summary:
  53:main.c        **** *  Performs the following tasks:
  54:main.c        **** *  - Start the components.
  55:main.c        **** *  - Starts ADC conversion.
  56:main.c        **** *  - Buffer ADC results.
  57:main.c        **** *  - Sends the result to HyperTerminal (PC) using UART.
  58:main.c        **** *  - Turns ON an LED when ADC input is outside the voltage 
  59:main.c        **** *     window of 1250mV to 3750mV.
  60:main.c        **** *
  61:main.c        **** * Parameters:
  62:main.c        **** *  None.
  63:main.c        **** *
  64:main.c        **** * Return:
  65:main.c        **** *  None.
  66:main.c        **** *
  67:main.c        **** *******************************************************************************/
  68:main.c        **** int main()
  69:main.c        **** {
ARM GAS  C:\Users\jagumiel\AppData\Local\Temp\ccNv8gSf.s 			page 3


  46              		.loc 1 69 0
  47              		.cfi_startproc
  48              		@ args = 0, pretend = 0, frame = 16
  49              		@ frame_needed = 1, uses_anonymous_args = 0
  50 0000 90B5     		push	{r4, r7, lr}
  51              		.cfi_def_cfa_offset 12
  52              		.cfi_offset 4, -12
  53              		.cfi_offset 7, -8
  54              		.cfi_offset 14, -4
  55 0002 85B0     		sub	sp, sp, #20
  56              		.cfi_def_cfa_offset 32
  57 0004 00AF     		add	r7, sp, #0
  58              		.cfi_def_cfa_register 7
  70:main.c        ****     uint8 channel = CHANNEL_1;
  59              		.loc 1 70 0
  60 0006 0D23     		movs	r3, #13
  61 0008 FB18     		adds	r3, r7, r3
  62 000a 0022     		movs	r2, #0
  63 000c 1A70     		strb	r2, [r3]
  71:main.c        ****     int16 adcVal[4u];
  72:main.c        ****     int16 mVolts;
  73:main.c        ****     int16 previousValue = 0;
  64              		.loc 1 73 0
  65 000e 0E23     		movs	r3, #14
  66 0010 FB18     		adds	r3, r7, r3
  67 0012 0022     		movs	r2, #0
  68 0014 1A80     		strh	r2, [r3]
  74:main.c        ****     
  75:main.c        ****     /* Start the Components */
  76:main.c        ****     UART_Start();
  69              		.loc 1 76 0
  70 0016 FFF7FEFF 		bl	UART_Start
  77:main.c        ****     ADC_Start();
  71              		.loc 1 77 0
  72 001a FFF7FEFF 		bl	ADC_Start
  78:main.c        ****     PWM_Start();
  73              		.loc 1 78 0
  74 001e FFF7FEFF 		bl	PWM_Start
  79:main.c        ****     
  80:main.c        ****     /* Start ISRs */
  81:main.c        ****     ADC_IRQ_StartEx(ADC_ISR_Handler);
  75              		.loc 1 81 0
  76 0022 2D4B     		ldr	r3, .L6
  77 0024 1800     		movs	r0, r3
  78 0026 FFF7FEFF 		bl	ADC_IRQ_StartEx
  82:main.c        ****     
  83:main.c        ****     /* Enable global interrupts */
  84:main.c        ****     CyGlobalIntEnable;
  79              		.loc 1 84 0
  80              		.syntax divided
  81              	@ 84 "main.c" 1
  82 002a 62B6     		CPSIE   i
  83              	@ 0 "" 2
  85:main.c        **** 
  86:main.c        ****     /* Start ADC conversion */
  87:main.c        ****     ADC_StartConvert();
  84              		.loc 1 87 0
ARM GAS  C:\Users\jagumiel\AppData\Local\Temp\ccNv8gSf.s 			page 4


  85              		.thumb
  86              		.syntax unified
  87 002c FFF7FEFF 		bl	ADC_StartConvert
  88              	.L5:
  88:main.c        ****     
  89:main.c        ****     for(;;)
  90:main.c        ****     {
  91:main.c        ****         while(dataReady == 0u)
  89              		.loc 1 91 0
  90 0030 C046     		nop
  91              	.L2:
  92              		.loc 1 91 0 is_stmt 0 discriminator 1
  93 0032 2A4B     		ldr	r3, .L6+4
  94 0034 1B78     		ldrb	r3, [r3]
  95 0036 DBB2     		uxtb	r3, r3
  96 0038 002B     		cmp	r3, #0
  97 003a FAD0     		beq	.L2
  92:main.c        ****         {
  93:main.c        ****             ; /* Wait for ADC conversion */
  94:main.c        ****         }
  95:main.c        ****         /* Buffer the results */
  96:main.c        ****         adcVal[CHANNEL_1] = ADC_GetResult16(CHANNEL_1);
  98              		.loc 1 96 0 is_stmt 1
  99 003c 0020     		movs	r0, #0
 100 003e FFF7FEFF 		bl	ADC_GetResult16
 101 0042 0300     		movs	r3, r0
 102 0044 1A00     		movs	r2, r3
 103 0046 3B00     		movs	r3, r7
 104 0048 1A80     		strh	r2, [r3]
  97:main.c        **** 
  98:main.c        ****         /* Convert the ADC counts of active channel to mVolts */
  99:main.c        ****         mVolts = ADC_CountsTo_mVolts(channel, adcVal[channel]);
 105              		.loc 1 99 0
 106 004a 0D23     		movs	r3, #13
 107 004c FB18     		adds	r3, r7, r3
 108 004e 1878     		ldrb	r0, [r3]
 109 0050 0D23     		movs	r3, #13
 110 0052 FB18     		adds	r3, r7, r3
 111 0054 1A78     		ldrb	r2, [r3]
 112 0056 3B00     		movs	r3, r7
 113 0058 5200     		lsls	r2, r2, #1
 114 005a D35E     		ldrsh	r3, [r2, r3]
 115 005c 0A22     		movs	r2, #10
 116 005e BC18     		adds	r4, r7, r2
 117 0060 1900     		movs	r1, r3
 118 0062 FFF7FEFF 		bl	ADC_CountsTo_mVolts
 119 0066 0300     		movs	r3, r0
 120 0068 2380     		strh	r3, [r4]
 100:main.c        **** 
 101:main.c        ****         /* If ADC result or channel has been changed, send the data to UART */
 102:main.c        ****         if((previousValue != mVolts) || (channelFlag != 0u))
 121              		.loc 1 102 0
 122 006a 0E23     		movs	r3, #14
 123 006c FA18     		adds	r2, r7, r3
 124 006e 0A23     		movs	r3, #10
 125 0070 FB18     		adds	r3, r7, r3
 126 0072 0021     		movs	r1, #0
ARM GAS  C:\Users\jagumiel\AppData\Local\Temp\ccNv8gSf.s 			page 5


 127 0074 525E     		ldrsh	r2, [r2, r1]
 128 0076 0021     		movs	r1, #0
 129 0078 5B5E     		ldrsh	r3, [r3, r1]
 130 007a 9A42     		cmp	r2, r3
 131 007c 04D1     		bne	.L3
 132              		.loc 1 102 0 is_stmt 0 discriminator 1
 133 007e 184B     		ldr	r3, .L6+8
 134 0080 1B78     		ldrb	r3, [r3]
 135 0082 DBB2     		uxtb	r3, r3
 136 0084 002B     		cmp	r3, #0
 137 0086 13D0     		beq	.L4
 138              	.L3:
 103:main.c        ****         {    
 104:main.c        ****             SendChannelVoltage(channel, mVolts);
 139              		.loc 1 104 0 is_stmt 1
 140 0088 0A23     		movs	r3, #10
 141 008a FB18     		adds	r3, r7, r3
 142 008c 0022     		movs	r2, #0
 143 008e 9A5E     		ldrsh	r2, [r3, r2]
 144 0090 0D23     		movs	r3, #13
 145 0092 FB18     		adds	r3, r7, r3
 146 0094 1B78     		ldrb	r3, [r3]
 147 0096 1100     		movs	r1, r2
 148 0098 1800     		movs	r0, r3
 149 009a FFF7FEFF 		bl	SendChannelVoltage
 105:main.c        ****             previousValue = mVolts;
 150              		.loc 1 105 0
 151 009e 0E23     		movs	r3, #14
 152 00a0 FB18     		adds	r3, r7, r3
 153 00a2 0A22     		movs	r2, #10
 154 00a4 BA18     		adds	r2, r7, r2
 155 00a6 1288     		ldrh	r2, [r2]
 156 00a8 1A80     		strh	r2, [r3]
 106:main.c        ****             
 107:main.c        ****             /* Clear the flag */
 108:main.c        ****             channelFlag = 0u;
 157              		.loc 1 108 0
 158 00aa 0D4B     		ldr	r3, .L6+8
 159 00ac 0022     		movs	r2, #0
 160 00ae 1A70     		strb	r2, [r3]
 161              	.L4:
 109:main.c        ****         }
 110:main.c        ****         dataReady = 0u;
 162              		.loc 1 110 0
 163 00b0 0A4B     		ldr	r3, .L6+4
 164 00b2 0022     		movs	r2, #0
 165 00b4 1A70     		strb	r2, [r3]
 111:main.c        ****         
 112:main.c        ****         /*Prepare and set the PWM DutyCycle*/
 113:main.c        ****         PWM_WriteCompare((mVolts*255)/5000);
 166              		.loc 1 113 0
 167 00b6 0A23     		movs	r3, #10
 168 00b8 FB18     		adds	r3, r7, r3
 169 00ba 0022     		movs	r2, #0
 170 00bc 9A5E     		ldrsh	r2, [r3, r2]
 171 00be 1300     		movs	r3, r2
 172 00c0 1B02     		lsls	r3, r3, #8
ARM GAS  C:\Users\jagumiel\AppData\Local\Temp\ccNv8gSf.s 			page 6


 173 00c2 9B1A     		subs	r3, r3, r2
 174 00c4 0749     		ldr	r1, .L6+12
 175 00c6 1800     		movs	r0, r3
 176 00c8 FFF7FEFF 		bl	__aeabi_idiv
 177 00cc 0300     		movs	r3, r0
 178 00ce DBB2     		uxtb	r3, r3
 179 00d0 1800     		movs	r0, r3
 180 00d2 FFF7FEFF 		bl	PWM_WriteCompare
 114:main.c        ****     }
 181              		.loc 1 114 0
 182 00d6 ABE7     		b	.L5
 183              	.L7:
 184              		.align	2
 185              	.L6:
 186 00d8 00000000 		.word	ADC_ISR_Handler
 187 00dc 00000000 		.word	dataReady
 188 00e0 00000000 		.word	channelFlag
 189 00e4 88130000 		.word	5000
 190              		.cfi_endproc
 191              	.LFE32:
 192              		.size	main, .-main
 193              		.section	.rodata
 194              		.align	2
 195              	.LC3:
 196 0000 4368616E 		.ascii	"Channel \000"
 196      6E656C20 
 196      00
 197 0009 000000   		.align	2
 198              	.LC5:
 199 000c 203D2000 		.ascii	" = \000"
 200              		.align	2
 201              	.LC7:
 202 0010 2D00     		.ascii	"-\000"
 203              		.global	__aeabi_uidiv
 204              		.global	__aeabi_uidivmod
 205 0012 0000     		.align	2
 206              	.LC9:
 207 0014 206D5600 		.ascii	" mV\000"
 208              		.section	.text.SendChannelVoltage,"ax",%progbits
 209              		.align	2
 210              		.code	16
 211              		.thumb_func
 212              		.type	SendChannelVoltage, %function
 213              	SendChannelVoltage:
 214              	.LFB33:
 115:main.c        **** }
 116:main.c        **** 
 117:main.c        **** /*******************************************************************************
 118:main.c        **** * Function Name: SendChannelVoltage
 119:main.c        **** ********************************************************************************
 120:main.c        **** *
 121:main.c        **** * Summary:
 122:main.c        **** *  Performs the following tasks:
 123:main.c        **** *   - Converts the channel number to ASCII character
 124:main.c        **** *   - Clears terminal screen
 125:main.c        **** *   - Sends the channel number and voltage to UART
 126:main.c        **** *
ARM GAS  C:\Users\jagumiel\AppData\Local\Temp\ccNv8gSf.s 			page 7


 127:main.c        **** * Parameters:
 128:main.c        **** *  uint8 channel : Channel Number
 129:main.c        **** *  int16 mVolts  : ADC counts    
 130:main.c        **** *
 131:main.c        **** * Return:
 132:main.c        **** *  None.
 133:main.c        **** *
 134:main.c        **** ********************************************************************************/
 135:main.c        **** static void SendChannelVoltage(uint8 channel, int16 mVolts)
 136:main.c        **** {
 215              		.loc 1 136 0
 216              		.cfi_startproc
 217              		@ args = 0, pretend = 0, frame = 8
 218              		@ frame_needed = 1, uses_anonymous_args = 0
 219 0000 80B5     		push	{r7, lr}
 220              		.cfi_def_cfa_offset 8
 221              		.cfi_offset 7, -8
 222              		.cfi_offset 14, -4
 223 0002 82B0     		sub	sp, sp, #8
 224              		.cfi_def_cfa_offset 16
 225 0004 00AF     		add	r7, sp, #0
 226              		.cfi_def_cfa_register 7
 227 0006 0200     		movs	r2, r0
 228 0008 FB1D     		adds	r3, r7, #7
 229 000a 1A70     		strb	r2, [r3]
 230 000c 3B1D     		adds	r3, r7, #4
 231 000e 0A1C     		adds	r2, r1, #0
 232 0010 1A80     		strh	r2, [r3]
 137:main.c        ****     /* Clear screen */ 
 138:main.c        ****     UART_UartPutChar(CLEAR_SCREEN);
 233              		.loc 1 138 0
 234 0012 0C20     		movs	r0, #12
 235 0014 FFF7FEFF 		bl	UART_SpiUartWriteTxData
 139:main.c        ****     UART_UartPutString("Channel ");
 236              		.loc 1 139 0
 237 0018 3F4B     		ldr	r3, .L10
 238 001a 1800     		movs	r0, r3
 239 001c FFF7FEFF 		bl	UART_UartPutString
 140:main.c        ****     
 141:main.c        ****     /* Display the channel number starting from 1 */
 142:main.c        ****     channel++;
 240              		.loc 1 142 0
 241 0020 FB1D     		adds	r3, r7, #7
 242 0022 1A78     		ldrb	r2, [r3]
 243 0024 FB1D     		adds	r3, r7, #7
 244 0026 0132     		adds	r2, r2, #1
 245 0028 1A70     		strb	r2, [r3]
 143:main.c        ****     channel += CONVERT_TO_ASCII;
 246              		.loc 1 143 0
 247 002a FB1D     		adds	r3, r7, #7
 248 002c FA1D     		adds	r2, r7, #7
 249 002e 1278     		ldrb	r2, [r2]
 250 0030 3032     		adds	r2, r2, #48
 251 0032 1A70     		strb	r2, [r3]
 144:main.c        ****     UART_UartPutChar(channel);
 252              		.loc 1 144 0
 253 0034 FB1D     		adds	r3, r7, #7
ARM GAS  C:\Users\jagumiel\AppData\Local\Temp\ccNv8gSf.s 			page 8


 254 0036 1B78     		ldrb	r3, [r3]
 255 0038 1800     		movs	r0, r3
 256 003a FFF7FEFF 		bl	UART_SpiUartWriteTxData
 145:main.c        ****     UART_UartPutString(" = ");
 257              		.loc 1 145 0
 258 003e 374B     		ldr	r3, .L10+4
 259 0040 1800     		movs	r0, r3
 260 0042 FFF7FEFF 		bl	UART_UartPutString
 146:main.c        ****     
 147:main.c        ****     /* Find the sign of the result */
 148:main.c        ****     if(mVolts < 0)
 261              		.loc 1 148 0
 262 0046 3B1D     		adds	r3, r7, #4
 263 0048 0022     		movs	r2, #0
 264 004a 9B5E     		ldrsh	r3, [r3, r2]
 265 004c 002B     		cmp	r3, #0
 266 004e 09DA     		bge	.L9
 149:main.c        ****     {
 150:main.c        ****         UART_UartPutString("-");
 267              		.loc 1 150 0
 268 0050 334B     		ldr	r3, .L10+8
 269 0052 1800     		movs	r0, r3
 270 0054 FFF7FEFF 		bl	UART_UartPutString
 151:main.c        ****         mVolts = -mVolts;
 271              		.loc 1 151 0
 272 0058 3B1D     		adds	r3, r7, #4
 273 005a 1B88     		ldrh	r3, [r3]
 274 005c 5B42     		rsbs	r3, r3, #0
 275 005e 9AB2     		uxth	r2, r3
 276 0060 3B1D     		adds	r3, r7, #4
 277 0062 1A80     		strh	r2, [r3]
 278              	.L9:
 152:main.c        ****     }
 153:main.c        ****         
 154:main.c        ****     /* Send voltage to UART */
 155:main.c        ****     UART_UartPutChar((mVolts/1000u) + CONVERT_TO_ASCII);
 279              		.loc 1 155 0
 280 0064 3B1D     		adds	r3, r7, #4
 281 0066 0022     		movs	r2, #0
 282 0068 9A5E     		ldrsh	r2, [r3, r2]
 283 006a FA23     		movs	r3, #250
 284 006c 9900     		lsls	r1, r3, #2
 285 006e 1000     		movs	r0, r2
 286 0070 FFF7FEFF 		bl	__aeabi_uidiv
 287 0074 0300     		movs	r3, r0
 288 0076 3033     		adds	r3, r3, #48
 289 0078 1800     		movs	r0, r3
 290 007a FFF7FEFF 		bl	UART_SpiUartWriteTxData
 156:main.c        ****     mVolts %= 1000u;
 291              		.loc 1 156 0
 292 007e 3B1D     		adds	r3, r7, #4
 293 0080 0022     		movs	r2, #0
 294 0082 9A5E     		ldrsh	r2, [r3, r2]
 295 0084 FA23     		movs	r3, #250
 296 0086 9900     		lsls	r1, r3, #2
 297 0088 1000     		movs	r0, r2
 298 008a FFF7FEFF 		bl	__aeabi_uidivmod
ARM GAS  C:\Users\jagumiel\AppData\Local\Temp\ccNv8gSf.s 			page 9


 299 008e 0B00     		movs	r3, r1
 300 0090 1A00     		movs	r2, r3
 301 0092 3B1D     		adds	r3, r7, #4
 302 0094 1A80     		strh	r2, [r3]
 157:main.c        ****     UART_UartPutChar((mVolts/100u) + CONVERT_TO_ASCII);
 303              		.loc 1 157 0
 304 0096 3B1D     		adds	r3, r7, #4
 305 0098 0022     		movs	r2, #0
 306 009a 9B5E     		ldrsh	r3, [r3, r2]
 307 009c 6421     		movs	r1, #100
 308 009e 1800     		movs	r0, r3
 309 00a0 FFF7FEFF 		bl	__aeabi_uidiv
 310 00a4 0300     		movs	r3, r0
 311 00a6 3033     		adds	r3, r3, #48
 312 00a8 1800     		movs	r0, r3
 313 00aa FFF7FEFF 		bl	UART_SpiUartWriteTxData
 158:main.c        ****     mVolts %= 100u;
 314              		.loc 1 158 0
 315 00ae 3B1D     		adds	r3, r7, #4
 316 00b0 0022     		movs	r2, #0
 317 00b2 9B5E     		ldrsh	r3, [r3, r2]
 318 00b4 6421     		movs	r1, #100
 319 00b6 1800     		movs	r0, r3
 320 00b8 FFF7FEFF 		bl	__aeabi_uidivmod
 321 00bc 0B00     		movs	r3, r1
 322 00be 1A00     		movs	r2, r3
 323 00c0 3B1D     		adds	r3, r7, #4
 324 00c2 1A80     		strh	r2, [r3]
 159:main.c        ****     UART_UartPutChar((mVolts/10u) + CONVERT_TO_ASCII);
 325              		.loc 1 159 0
 326 00c4 3B1D     		adds	r3, r7, #4
 327 00c6 0022     		movs	r2, #0
 328 00c8 9B5E     		ldrsh	r3, [r3, r2]
 329 00ca 0A21     		movs	r1, #10
 330 00cc 1800     		movs	r0, r3
 331 00ce FFF7FEFF 		bl	__aeabi_uidiv
 332 00d2 0300     		movs	r3, r0
 333 00d4 3033     		adds	r3, r3, #48
 334 00d6 1800     		movs	r0, r3
 335 00d8 FFF7FEFF 		bl	UART_SpiUartWriteTxData
 160:main.c        ****     mVolts %= 10u;
 336              		.loc 1 160 0
 337 00dc 3B1D     		adds	r3, r7, #4
 338 00de 0022     		movs	r2, #0
 339 00e0 9B5E     		ldrsh	r3, [r3, r2]
 340 00e2 0A21     		movs	r1, #10
 341 00e4 1800     		movs	r0, r3
 342 00e6 FFF7FEFF 		bl	__aeabi_uidivmod
 343 00ea 0B00     		movs	r3, r1
 344 00ec 1A00     		movs	r2, r3
 345 00ee 3B1D     		adds	r3, r7, #4
 346 00f0 1A80     		strh	r2, [r3]
 161:main.c        ****     UART_UartPutChar(mVolts + CONVERT_TO_ASCII);
 347              		.loc 1 161 0
 348 00f2 3B1D     		adds	r3, r7, #4
 349 00f4 0022     		movs	r2, #0
 350 00f6 9B5E     		ldrsh	r3, [r3, r2]
ARM GAS  C:\Users\jagumiel\AppData\Local\Temp\ccNv8gSf.s 			page 10


 351 00f8 3033     		adds	r3, r3, #48
 352 00fa 1800     		movs	r0, r3
 353 00fc FFF7FEFF 		bl	UART_SpiUartWriteTxData
 162:main.c        ****     UART_UartPutString(" mV");
 354              		.loc 1 162 0
 355 0100 084B     		ldr	r3, .L10+12
 356 0102 1800     		movs	r0, r3
 357 0104 FFF7FEFF 		bl	UART_UartPutString
 163:main.c        ****     UART_UartPutCRLF(0u);
 358              		.loc 1 163 0
 359 0108 0020     		movs	r0, #0
 360 010a FFF7FEFF 		bl	UART_UartPutCRLF
 164:main.c        **** }
 361              		.loc 1 164 0
 362 010e C046     		nop
 363 0110 BD46     		mov	sp, r7
 364 0112 02B0     		add	sp, sp, #8
 365              		@ sp needed
 366 0114 80BD     		pop	{r7, pc}
 367              	.L11:
 368 0116 C046     		.align	2
 369              	.L10:
 370 0118 00000000 		.word	.LC3
 371 011c 0C000000 		.word	.LC5
 372 0120 10000000 		.word	.LC7
 373 0124 14000000 		.word	.LC9
 374              		.cfi_endproc
 375              	.LFE33:
 376              		.size	SendChannelVoltage, .-SendChannelVoltage
 377              		.section	.text.ADC_ISR_Handler,"ax",%progbits
 378              		.align	2
 379              		.global	ADC_ISR_Handler
 380              		.code	16
 381              		.thumb_func
 382              		.type	ADC_ISR_Handler, %function
 383              	ADC_ISR_Handler:
 384              	.LFB34:
 165:main.c        **** 
 166:main.c        **** 
 167:main.c        **** /******************************************************************************
 168:main.c        **** * Function Name: ADC_ISR_Handler
 169:main.c        **** *******************************************************************************
 170:main.c        **** *
 171:main.c        **** * Summary:
 172:main.c        **** *  Interrupt Service Routine. Check the ADC status and sets window and data
 173:main.c        **** *  ready flags.
 174:main.c        **** *
 175:main.c        **** ******************************************************************************/
 176:main.c        **** CY_ISR(ADC_ISR_Handler)
 177:main.c        **** {
 385              		.loc 1 177 0
 386              		.cfi_startproc
 387              		@ args = 0, pretend = 0, frame = 8
 388              		@ frame_needed = 1, uses_anonymous_args = 0
 389 0000 80B5     		push	{r7, lr}
 390              		.cfi_def_cfa_offset 8
 391              		.cfi_offset 7, -8
ARM GAS  C:\Users\jagumiel\AppData\Local\Temp\ccNv8gSf.s 			page 11


 392              		.cfi_offset 14, -4
 393 0002 82B0     		sub	sp, sp, #8
 394              		.cfi_def_cfa_offset 16
 395 0004 00AF     		add	r7, sp, #0
 396              		.cfi_def_cfa_register 7
 178:main.c        ****     uint32 intr_status;
 179:main.c        **** 
 180:main.c        ****     /* Read interrupt status registers */
 181:main.c        ****     intr_status = ADC_SAR_INTR_MASKED_REG;
 397              		.loc 1 181 0
 398 0006 0C4B     		ldr	r3, .L14
 399 0008 1B68     		ldr	r3, [r3]
 400 000a 7B60     		str	r3, [r7, #4]
 182:main.c        ****     /* Check for End of Scan interrupt */
 183:main.c        ****     if((intr_status & ADC_EOS_MASK) != 0u)
 401              		.loc 1 183 0
 402 000c 7B68     		ldr	r3, [r7, #4]
 403 000e 0122     		movs	r2, #1
 404 0010 1340     		ands	r3, r2
 405 0012 0AD0     		beq	.L13
 184:main.c        ****     {
 185:main.c        ****         /* Read range interrupt status and raise the flag */
 186:main.c        ****         windowFlag = ADC_SAR_RANGE_INTR_MASKED_REG;
 406              		.loc 1 186 0
 407 0014 094B     		ldr	r3, .L14+4
 408 0016 1A68     		ldr	r2, [r3]
 409 0018 094B     		ldr	r3, .L14+8
 410 001a 1A60     		str	r2, [r3]
 187:main.c        ****         /* Clear range detect status */
 188:main.c        ****         ADC_SAR_RANGE_INTR_REG = windowFlag;
 411              		.loc 1 188 0
 412 001c 094A     		ldr	r2, .L14+12
 413 001e 084B     		ldr	r3, .L14+8
 414 0020 1B68     		ldr	r3, [r3]
 415 0022 1360     		str	r3, [r2]
 189:main.c        ****         dataReady = 1u;
 416              		.loc 1 189 0
 417 0024 084B     		ldr	r3, .L14+16
 418 0026 0122     		movs	r2, #1
 419 0028 1A70     		strb	r2, [r3]
 420              	.L13:
 190:main.c        ****     }
 191:main.c        ****     /* Clear handled interrupt */
 192:main.c        ****     ADC_SAR_INTR_REG = intr_status;
 421              		.loc 1 192 0
 422 002a 084B     		ldr	r3, .L14+20
 423 002c 7A68     		ldr	r2, [r7, #4]
 424 002e 1A60     		str	r2, [r3]
 193:main.c        **** }
 425              		.loc 1 193 0
 426 0030 C046     		nop
 427 0032 BD46     		mov	sp, r7
 428 0034 02B0     		add	sp, sp, #8
 429              		@ sp needed
 430 0036 80BD     		pop	{r7, pc}
 431              	.L15:
 432              		.align	2
ARM GAS  C:\Users\jagumiel\AppData\Local\Temp\ccNv8gSf.s 			page 12


 433              	.L14:
 434 0038 1C021A40 		.word	1075446300
 435 003c 3C021A40 		.word	1075446332
 436 0040 00000000 		.word	windowFlag
 437 0044 30021A40 		.word	1075446320
 438 0048 00000000 		.word	dataReady
 439 004c 10021A40 		.word	1075446288
 440              		.cfi_endproc
 441              	.LFE34:
 442              		.size	ADC_ISR_Handler, .-ADC_ISR_Handler
 443              		.text
 444              	.Letext0:
 445              		.file 2 "Generated_Source\\PSoC4/cytypes.h"