ARM GAS  C:\Users\jagumiel\AppData\Local\Temp\cc5sCiX0.s 			page 1


   1              		.syntax unified
   2              		.cpu cortex-m0
   3              		.fpu softvfp
   4              		.eabi_attribute 20, 1
   5              		.eabi_attribute 21, 1
   6              		.eabi_attribute 23, 3
   7              		.eabi_attribute 24, 1
   8              		.eabi_attribute 25, 1
   9              		.eabi_attribute 26, 1
  10              		.eabi_attribute 30, 1
  11              		.eabi_attribute 34, 0
  12              		.eabi_attribute 18, 4
  13              		.thumb
  14              		.syntax unified
  15              		.file	"I2C.c"
  16              		.text
  17              	.Ltext0:
  18              		.cfi_sections	.debug_frame
  19              		.section	.text.I2C_ScbEnableIntr,"ax",%progbits
  20              		.align	2
  21              		.code	16
  22              		.thumb_func
  23              		.type	I2C_ScbEnableIntr, %function
  24              	I2C_ScbEnableIntr:
  25              	.LFB7:
  26              		.file 1 "Generated_Source\\PSoC4\\I2C.c"
   1:Generated_Source\PSoC4/I2C.c **** /***************************************************************************//**
   2:Generated_Source\PSoC4/I2C.c **** * \file I2C.c
   3:Generated_Source\PSoC4/I2C.c **** * \version 4.0
   4:Generated_Source\PSoC4/I2C.c **** *
   5:Generated_Source\PSoC4/I2C.c **** * \brief
   6:Generated_Source\PSoC4/I2C.c **** *  This file provides the source code to the API for the SCB Component.
   7:Generated_Source\PSoC4/I2C.c **** *
   8:Generated_Source\PSoC4/I2C.c **** * Note:
   9:Generated_Source\PSoC4/I2C.c **** *
  10:Generated_Source\PSoC4/I2C.c **** *******************************************************************************
  11:Generated_Source\PSoC4/I2C.c **** * \copyright
  12:Generated_Source\PSoC4/I2C.c **** * Copyright 2013-2017, Cypress Semiconductor Corporation.  All rights reserved.
  13:Generated_Source\PSoC4/I2C.c **** * You may use this file only in accordance with the license, terms, conditions,
  14:Generated_Source\PSoC4/I2C.c **** * disclaimers, and limitations in the end user license agreement accompanying
  15:Generated_Source\PSoC4/I2C.c **** * the software package with which this file was provided.
  16:Generated_Source\PSoC4/I2C.c **** *******************************************************************************/
  17:Generated_Source\PSoC4/I2C.c **** 
  18:Generated_Source\PSoC4/I2C.c **** #include "I2C_PVT.h"
  19:Generated_Source\PSoC4/I2C.c **** 
  20:Generated_Source\PSoC4/I2C.c **** #if (I2C_SCB_MODE_I2C_INC)
  21:Generated_Source\PSoC4/I2C.c ****     #include "I2C_I2C_PVT.h"
  22:Generated_Source\PSoC4/I2C.c **** #endif /* (I2C_SCB_MODE_I2C_INC) */
  23:Generated_Source\PSoC4/I2C.c **** 
  24:Generated_Source\PSoC4/I2C.c **** #if (I2C_SCB_MODE_EZI2C_INC)
  25:Generated_Source\PSoC4/I2C.c ****     #include "I2C_EZI2C_PVT.h"
  26:Generated_Source\PSoC4/I2C.c **** #endif /* (I2C_SCB_MODE_EZI2C_INC) */
  27:Generated_Source\PSoC4/I2C.c **** 
  28:Generated_Source\PSoC4/I2C.c **** #if (I2C_SCB_MODE_SPI_INC || I2C_SCB_MODE_UART_INC)
  29:Generated_Source\PSoC4/I2C.c ****     #include "I2C_SPI_UART_PVT.h"
  30:Generated_Source\PSoC4/I2C.c **** #endif /* (I2C_SCB_MODE_SPI_INC || I2C_SCB_MODE_UART_INC) */
  31:Generated_Source\PSoC4/I2C.c **** 
ARM GAS  C:\Users\jagumiel\AppData\Local\Temp\cc5sCiX0.s 			page 2


  32:Generated_Source\PSoC4/I2C.c **** 
  33:Generated_Source\PSoC4/I2C.c **** /***************************************
  34:Generated_Source\PSoC4/I2C.c **** *    Run Time Configuration Vars
  35:Generated_Source\PSoC4/I2C.c **** ***************************************/
  36:Generated_Source\PSoC4/I2C.c **** 
  37:Generated_Source\PSoC4/I2C.c **** /* Stores internal component configuration for Unconfigured mode */
  38:Generated_Source\PSoC4/I2C.c **** #if (I2C_SCB_MODE_UNCONFIG_CONST_CFG)
  39:Generated_Source\PSoC4/I2C.c ****     /* Common configuration variables */
  40:Generated_Source\PSoC4/I2C.c ****     uint8 I2C_scbMode = I2C_SCB_MODE_UNCONFIG;
  41:Generated_Source\PSoC4/I2C.c ****     uint8 I2C_scbEnableWake;
  42:Generated_Source\PSoC4/I2C.c ****     uint8 I2C_scbEnableIntr;
  43:Generated_Source\PSoC4/I2C.c **** 
  44:Generated_Source\PSoC4/I2C.c ****     /* I2C configuration variables */
  45:Generated_Source\PSoC4/I2C.c ****     uint8 I2C_mode;
  46:Generated_Source\PSoC4/I2C.c ****     uint8 I2C_acceptAddr;
  47:Generated_Source\PSoC4/I2C.c **** 
  48:Generated_Source\PSoC4/I2C.c ****     /* SPI/UART configuration variables */
  49:Generated_Source\PSoC4/I2C.c ****     volatile uint8 * I2C_rxBuffer;
  50:Generated_Source\PSoC4/I2C.c ****     uint8  I2C_rxDataBits;
  51:Generated_Source\PSoC4/I2C.c ****     uint32 I2C_rxBufferSize;
  52:Generated_Source\PSoC4/I2C.c **** 
  53:Generated_Source\PSoC4/I2C.c ****     volatile uint8 * I2C_txBuffer;
  54:Generated_Source\PSoC4/I2C.c ****     uint8  I2C_txDataBits;
  55:Generated_Source\PSoC4/I2C.c ****     uint32 I2C_txBufferSize;
  56:Generated_Source\PSoC4/I2C.c **** 
  57:Generated_Source\PSoC4/I2C.c ****     /* EZI2C configuration variables */
  58:Generated_Source\PSoC4/I2C.c ****     uint8 I2C_numberOfAddr;
  59:Generated_Source\PSoC4/I2C.c ****     uint8 I2C_subAddrSize;
  60:Generated_Source\PSoC4/I2C.c **** #endif /* (I2C_SCB_MODE_UNCONFIG_CONST_CFG) */
  61:Generated_Source\PSoC4/I2C.c **** 
  62:Generated_Source\PSoC4/I2C.c **** 
  63:Generated_Source\PSoC4/I2C.c **** /***************************************
  64:Generated_Source\PSoC4/I2C.c **** *     Common SCB Vars
  65:Generated_Source\PSoC4/I2C.c **** ***************************************/
  66:Generated_Source\PSoC4/I2C.c **** /**
  67:Generated_Source\PSoC4/I2C.c **** * \addtogroup group_general
  68:Generated_Source\PSoC4/I2C.c **** * \{
  69:Generated_Source\PSoC4/I2C.c **** */
  70:Generated_Source\PSoC4/I2C.c **** 
  71:Generated_Source\PSoC4/I2C.c **** /** I2C_initVar indicates whether the I2C 
  72:Generated_Source\PSoC4/I2C.c **** *  component has been initialized. The variable is initialized to 0 
  73:Generated_Source\PSoC4/I2C.c **** *  and set to 1 the first time SCB_Start() is called. This allows 
  74:Generated_Source\PSoC4/I2C.c **** *  the component to restart without reinitialization after the first 
  75:Generated_Source\PSoC4/I2C.c **** *  call to the I2C_Start() routine.
  76:Generated_Source\PSoC4/I2C.c **** *
  77:Generated_Source\PSoC4/I2C.c **** *  If re-initialization of the component is required, then the 
  78:Generated_Source\PSoC4/I2C.c **** *  I2C_Init() function can be called before the 
  79:Generated_Source\PSoC4/I2C.c **** *  I2C_Start() or I2C_Enable() function.
  80:Generated_Source\PSoC4/I2C.c **** */
  81:Generated_Source\PSoC4/I2C.c **** uint8 I2C_initVar = 0u;
  82:Generated_Source\PSoC4/I2C.c **** 
  83:Generated_Source\PSoC4/I2C.c **** 
  84:Generated_Source\PSoC4/I2C.c **** #if (! (I2C_SCB_MODE_I2C_CONST_CFG || \
  85:Generated_Source\PSoC4/I2C.c ****         I2C_SCB_MODE_EZI2C_CONST_CFG))
  86:Generated_Source\PSoC4/I2C.c ****     /** This global variable stores TX interrupt sources after 
  87:Generated_Source\PSoC4/I2C.c ****     * I2C_Stop() is called. Only these TX interrupt sources 
  88:Generated_Source\PSoC4/I2C.c ****     * will be restored on a subsequent I2C_Enable() call.
ARM GAS  C:\Users\jagumiel\AppData\Local\Temp\cc5sCiX0.s 			page 3


  89:Generated_Source\PSoC4/I2C.c ****     */
  90:Generated_Source\PSoC4/I2C.c ****     uint16 I2C_IntrTxMask = 0u;
  91:Generated_Source\PSoC4/I2C.c **** #endif /* (! (I2C_SCB_MODE_I2C_CONST_CFG || \
  92:Generated_Source\PSoC4/I2C.c ****               I2C_SCB_MODE_EZI2C_CONST_CFG)) */
  93:Generated_Source\PSoC4/I2C.c **** /** \} globals */
  94:Generated_Source\PSoC4/I2C.c **** 
  95:Generated_Source\PSoC4/I2C.c **** #if (I2C_SCB_IRQ_INTERNAL)
  96:Generated_Source\PSoC4/I2C.c **** #if !defined (CY_REMOVE_I2C_CUSTOM_INTR_HANDLER)
  97:Generated_Source\PSoC4/I2C.c ****     void (*I2C_customIntrHandler)(void) = NULL;
  98:Generated_Source\PSoC4/I2C.c **** #endif /* !defined (CY_REMOVE_I2C_CUSTOM_INTR_HANDLER) */
  99:Generated_Source\PSoC4/I2C.c **** #endif /* (I2C_SCB_IRQ_INTERNAL) */
 100:Generated_Source\PSoC4/I2C.c **** 
 101:Generated_Source\PSoC4/I2C.c **** 
 102:Generated_Source\PSoC4/I2C.c **** /***************************************
 103:Generated_Source\PSoC4/I2C.c **** *    Private Function Prototypes
 104:Generated_Source\PSoC4/I2C.c **** ***************************************/
 105:Generated_Source\PSoC4/I2C.c **** 
 106:Generated_Source\PSoC4/I2C.c **** static void I2C_ScbEnableIntr(void);
 107:Generated_Source\PSoC4/I2C.c **** static void I2C_ScbModeStop(void);
 108:Generated_Source\PSoC4/I2C.c **** static void I2C_ScbModePostEnable(void);
 109:Generated_Source\PSoC4/I2C.c **** 
 110:Generated_Source\PSoC4/I2C.c **** 
 111:Generated_Source\PSoC4/I2C.c **** /*******************************************************************************
 112:Generated_Source\PSoC4/I2C.c **** * Function Name: I2C_Init
 113:Generated_Source\PSoC4/I2C.c **** ****************************************************************************//**
 114:Generated_Source\PSoC4/I2C.c **** *
 115:Generated_Source\PSoC4/I2C.c **** *  Initializes the I2C component to operate in one of the selected
 116:Generated_Source\PSoC4/I2C.c **** *  configurations: I2C, SPI, UART or EZI2C.
 117:Generated_Source\PSoC4/I2C.c **** *  When the configuration is set to "Unconfigured SCB", this function does
 118:Generated_Source\PSoC4/I2C.c **** *  not do any initialization. Use mode-specific initialization APIs instead:
 119:Generated_Source\PSoC4/I2C.c **** *  I2C_I2CInit, I2C_SpiInit, 
 120:Generated_Source\PSoC4/I2C.c **** *  I2C_UartInit or I2C_EzI2CInit.
 121:Generated_Source\PSoC4/I2C.c **** *
 122:Generated_Source\PSoC4/I2C.c **** *******************************************************************************/
 123:Generated_Source\PSoC4/I2C.c **** void I2C_Init(void)
 124:Generated_Source\PSoC4/I2C.c **** {
 125:Generated_Source\PSoC4/I2C.c **** #if (I2C_SCB_MODE_UNCONFIG_CONST_CFG)
 126:Generated_Source\PSoC4/I2C.c ****     if (I2C_SCB_MODE_UNCONFIG_RUNTM_CFG)
 127:Generated_Source\PSoC4/I2C.c ****     {
 128:Generated_Source\PSoC4/I2C.c ****         I2C_initVar = 0u;
 129:Generated_Source\PSoC4/I2C.c ****     }
 130:Generated_Source\PSoC4/I2C.c ****     else
 131:Generated_Source\PSoC4/I2C.c ****     {
 132:Generated_Source\PSoC4/I2C.c ****         /* Initialization was done before this function call */
 133:Generated_Source\PSoC4/I2C.c ****     }
 134:Generated_Source\PSoC4/I2C.c **** 
 135:Generated_Source\PSoC4/I2C.c **** #elif (I2C_SCB_MODE_I2C_CONST_CFG)
 136:Generated_Source\PSoC4/I2C.c ****     I2C_I2CInit();
 137:Generated_Source\PSoC4/I2C.c **** 
 138:Generated_Source\PSoC4/I2C.c **** #elif (I2C_SCB_MODE_SPI_CONST_CFG)
 139:Generated_Source\PSoC4/I2C.c ****     I2C_SpiInit();
 140:Generated_Source\PSoC4/I2C.c **** 
 141:Generated_Source\PSoC4/I2C.c **** #elif (I2C_SCB_MODE_UART_CONST_CFG)
 142:Generated_Source\PSoC4/I2C.c ****     I2C_UartInit();
 143:Generated_Source\PSoC4/I2C.c **** 
 144:Generated_Source\PSoC4/I2C.c **** #elif (I2C_SCB_MODE_EZI2C_CONST_CFG)
 145:Generated_Source\PSoC4/I2C.c ****     I2C_EzI2CInit();
ARM GAS  C:\Users\jagumiel\AppData\Local\Temp\cc5sCiX0.s 			page 4


 146:Generated_Source\PSoC4/I2C.c **** 
 147:Generated_Source\PSoC4/I2C.c **** #endif /* (I2C_SCB_MODE_UNCONFIG_CONST_CFG) */
 148:Generated_Source\PSoC4/I2C.c **** }
 149:Generated_Source\PSoC4/I2C.c **** 
 150:Generated_Source\PSoC4/I2C.c **** 
 151:Generated_Source\PSoC4/I2C.c **** /*******************************************************************************
 152:Generated_Source\PSoC4/I2C.c **** * Function Name: I2C_Enable
 153:Generated_Source\PSoC4/I2C.c **** ****************************************************************************//**
 154:Generated_Source\PSoC4/I2C.c **** *
 155:Generated_Source\PSoC4/I2C.c **** *  Enables I2C component operation: activates the hardware and 
 156:Generated_Source\PSoC4/I2C.c **** *  internal interrupt. It also restores TX interrupt sources disabled after the 
 157:Generated_Source\PSoC4/I2C.c **** *  I2C_Stop() function was called (note that level-triggered TX 
 158:Generated_Source\PSoC4/I2C.c **** *  interrupt sources remain disabled to not cause code lock-up).
 159:Generated_Source\PSoC4/I2C.c **** *  For I2C and EZI2C modes the interrupt is internal and mandatory for 
 160:Generated_Source\PSoC4/I2C.c **** *  operation. For SPI and UART modes the interrupt can be configured as none, 
 161:Generated_Source\PSoC4/I2C.c **** *  internal or external.
 162:Generated_Source\PSoC4/I2C.c **** *  The I2C configuration should be not changed when the component
 163:Generated_Source\PSoC4/I2C.c **** *  is enabled. Any configuration changes should be made after disabling the 
 164:Generated_Source\PSoC4/I2C.c **** *  component.
 165:Generated_Source\PSoC4/I2C.c **** *  When configuration is set to “Unconfigured I2C”, the component 
 166:Generated_Source\PSoC4/I2C.c **** *  must first be initialized to operate in one of the following configurations: 
 167:Generated_Source\PSoC4/I2C.c **** *  I2C, SPI, UART or EZ I2C, using the mode-specific initialization API. 
 168:Generated_Source\PSoC4/I2C.c **** *  Otherwise this function does not enable the component.
 169:Generated_Source\PSoC4/I2C.c **** *
 170:Generated_Source\PSoC4/I2C.c **** *******************************************************************************/
 171:Generated_Source\PSoC4/I2C.c **** void I2C_Enable(void)
 172:Generated_Source\PSoC4/I2C.c **** {
 173:Generated_Source\PSoC4/I2C.c **** #if (I2C_SCB_MODE_UNCONFIG_CONST_CFG)
 174:Generated_Source\PSoC4/I2C.c ****     /* Enable SCB block, only if it is already configured */
 175:Generated_Source\PSoC4/I2C.c ****     if (!I2C_SCB_MODE_UNCONFIG_RUNTM_CFG)
 176:Generated_Source\PSoC4/I2C.c ****     {
 177:Generated_Source\PSoC4/I2C.c ****         I2C_CTRL_REG |= I2C_CTRL_ENABLED;
 178:Generated_Source\PSoC4/I2C.c **** 
 179:Generated_Source\PSoC4/I2C.c ****         I2C_ScbEnableIntr();
 180:Generated_Source\PSoC4/I2C.c **** 
 181:Generated_Source\PSoC4/I2C.c ****         /* Call PostEnable function specific to current operation mode */
 182:Generated_Source\PSoC4/I2C.c ****         I2C_ScbModePostEnable();
 183:Generated_Source\PSoC4/I2C.c ****     }
 184:Generated_Source\PSoC4/I2C.c **** #else
 185:Generated_Source\PSoC4/I2C.c ****     I2C_CTRL_REG |= I2C_CTRL_ENABLED;
 186:Generated_Source\PSoC4/I2C.c **** 
 187:Generated_Source\PSoC4/I2C.c ****     I2C_ScbEnableIntr();
 188:Generated_Source\PSoC4/I2C.c **** 
 189:Generated_Source\PSoC4/I2C.c ****     /* Call PostEnable function specific to current operation mode */
 190:Generated_Source\PSoC4/I2C.c ****     I2C_ScbModePostEnable();
 191:Generated_Source\PSoC4/I2C.c **** #endif /* (I2C_SCB_MODE_UNCONFIG_CONST_CFG) */
 192:Generated_Source\PSoC4/I2C.c **** }
 193:Generated_Source\PSoC4/I2C.c **** 
 194:Generated_Source\PSoC4/I2C.c **** 
 195:Generated_Source\PSoC4/I2C.c **** /*******************************************************************************
 196:Generated_Source\PSoC4/I2C.c **** * Function Name: I2C_Start
 197:Generated_Source\PSoC4/I2C.c **** ****************************************************************************//**
 198:Generated_Source\PSoC4/I2C.c **** *
 199:Generated_Source\PSoC4/I2C.c **** *  Invokes I2C_Init() and I2C_Enable().
 200:Generated_Source\PSoC4/I2C.c **** *  After this function call, the component is enabled and ready for operation.
 201:Generated_Source\PSoC4/I2C.c **** *  When configuration is set to "Unconfigured SCB", the component must first be
 202:Generated_Source\PSoC4/I2C.c **** *  initialized to operate in one of the following configurations: I2C, SPI, UART
ARM GAS  C:\Users\jagumiel\AppData\Local\Temp\cc5sCiX0.s 			page 5


 203:Generated_Source\PSoC4/I2C.c **** *  or EZI2C. Otherwise this function does not enable the component.
 204:Generated_Source\PSoC4/I2C.c **** *
 205:Generated_Source\PSoC4/I2C.c **** * \globalvars
 206:Generated_Source\PSoC4/I2C.c **** *  I2C_initVar - used to check initial configuration, modified
 207:Generated_Source\PSoC4/I2C.c **** *  on first function call.
 208:Generated_Source\PSoC4/I2C.c **** *
 209:Generated_Source\PSoC4/I2C.c **** *******************************************************************************/
 210:Generated_Source\PSoC4/I2C.c **** void I2C_Start(void)
 211:Generated_Source\PSoC4/I2C.c **** {
 212:Generated_Source\PSoC4/I2C.c ****     if (0u == I2C_initVar)
 213:Generated_Source\PSoC4/I2C.c ****     {
 214:Generated_Source\PSoC4/I2C.c ****         I2C_Init();
 215:Generated_Source\PSoC4/I2C.c ****         I2C_initVar = 1u; /* Component was initialized */
 216:Generated_Source\PSoC4/I2C.c ****     }
 217:Generated_Source\PSoC4/I2C.c **** 
 218:Generated_Source\PSoC4/I2C.c ****     I2C_Enable();
 219:Generated_Source\PSoC4/I2C.c **** }
 220:Generated_Source\PSoC4/I2C.c **** 
 221:Generated_Source\PSoC4/I2C.c **** 
 222:Generated_Source\PSoC4/I2C.c **** /*******************************************************************************
 223:Generated_Source\PSoC4/I2C.c **** * Function Name: I2C_Stop
 224:Generated_Source\PSoC4/I2C.c **** ****************************************************************************//**
 225:Generated_Source\PSoC4/I2C.c **** *
 226:Generated_Source\PSoC4/I2C.c **** *  Disables the I2C component: disable the hardware and internal 
 227:Generated_Source\PSoC4/I2C.c **** *  interrupt. It also disables all TX interrupt sources so as not to cause an 
 228:Generated_Source\PSoC4/I2C.c **** *  unexpected interrupt trigger because after the component is enabled, the 
 229:Generated_Source\PSoC4/I2C.c **** *  TX FIFO is empty.
 230:Generated_Source\PSoC4/I2C.c **** *  Refer to the function I2C_Enable() for the interrupt 
 231:Generated_Source\PSoC4/I2C.c **** *  configuration details.
 232:Generated_Source\PSoC4/I2C.c **** *  This function disables the SCB component without checking to see if 
 233:Generated_Source\PSoC4/I2C.c **** *  communication is in progress. Before calling this function it may be 
 234:Generated_Source\PSoC4/I2C.c **** *  necessary to check the status of communication to make sure communication 
 235:Generated_Source\PSoC4/I2C.c **** *  is complete. If this is not done then communication could be stopped mid 
 236:Generated_Source\PSoC4/I2C.c **** *  byte and corrupted data could result.
 237:Generated_Source\PSoC4/I2C.c **** *
 238:Generated_Source\PSoC4/I2C.c **** *******************************************************************************/
 239:Generated_Source\PSoC4/I2C.c **** void I2C_Stop(void)
 240:Generated_Source\PSoC4/I2C.c **** {
 241:Generated_Source\PSoC4/I2C.c **** #if (I2C_SCB_IRQ_INTERNAL)
 242:Generated_Source\PSoC4/I2C.c ****     I2C_DisableInt();
 243:Generated_Source\PSoC4/I2C.c **** #endif /* (I2C_SCB_IRQ_INTERNAL) */
 244:Generated_Source\PSoC4/I2C.c **** 
 245:Generated_Source\PSoC4/I2C.c ****     /* Call Stop function specific to current operation mode */
 246:Generated_Source\PSoC4/I2C.c ****     I2C_ScbModeStop();
 247:Generated_Source\PSoC4/I2C.c **** 
 248:Generated_Source\PSoC4/I2C.c ****     /* Disable SCB IP */
 249:Generated_Source\PSoC4/I2C.c ****     I2C_CTRL_REG &= (uint32) ~I2C_CTRL_ENABLED;
 250:Generated_Source\PSoC4/I2C.c **** 
 251:Generated_Source\PSoC4/I2C.c ****     /* Disable all TX interrupt sources so as not to cause an unexpected
 252:Generated_Source\PSoC4/I2C.c ****     * interrupt trigger after the component will be enabled because the 
 253:Generated_Source\PSoC4/I2C.c ****     * TX FIFO is empty.
 254:Generated_Source\PSoC4/I2C.c ****     * For SCB IP v0, it is critical as it does not mask-out interrupt
 255:Generated_Source\PSoC4/I2C.c ****     * sources when it is disabled. This can cause a code lock-up in the
 256:Generated_Source\PSoC4/I2C.c ****     * interrupt handler because TX FIFO cannot be loaded after the block
 257:Generated_Source\PSoC4/I2C.c ****     * is disabled.
 258:Generated_Source\PSoC4/I2C.c ****     */
 259:Generated_Source\PSoC4/I2C.c ****     I2C_SetTxInterruptMode(I2C_NO_INTR_SOURCES);
ARM GAS  C:\Users\jagumiel\AppData\Local\Temp\cc5sCiX0.s 			page 6


 260:Generated_Source\PSoC4/I2C.c **** 
 261:Generated_Source\PSoC4/I2C.c **** #if (I2C_SCB_IRQ_INTERNAL)
 262:Generated_Source\PSoC4/I2C.c ****     I2C_ClearPendingInt();
 263:Generated_Source\PSoC4/I2C.c **** #endif /* (I2C_SCB_IRQ_INTERNAL) */
 264:Generated_Source\PSoC4/I2C.c **** }
 265:Generated_Source\PSoC4/I2C.c **** 
 266:Generated_Source\PSoC4/I2C.c **** 
 267:Generated_Source\PSoC4/I2C.c **** /*******************************************************************************
 268:Generated_Source\PSoC4/I2C.c **** * Function Name: I2C_SetRxFifoLevel
 269:Generated_Source\PSoC4/I2C.c **** ****************************************************************************//**
 270:Generated_Source\PSoC4/I2C.c **** *
 271:Generated_Source\PSoC4/I2C.c **** *  Sets level in the RX FIFO to generate a RX level interrupt.
 272:Generated_Source\PSoC4/I2C.c **** *  When the RX FIFO has more entries than the RX FIFO level an RX level
 273:Generated_Source\PSoC4/I2C.c **** *  interrupt request is generated.
 274:Generated_Source\PSoC4/I2C.c **** *
 275:Generated_Source\PSoC4/I2C.c **** *  \param level: Level in the RX FIFO to generate RX level interrupt.
 276:Generated_Source\PSoC4/I2C.c **** *   The range of valid level values is between 0 and RX FIFO depth - 1.
 277:Generated_Source\PSoC4/I2C.c **** *
 278:Generated_Source\PSoC4/I2C.c **** *******************************************************************************/
 279:Generated_Source\PSoC4/I2C.c **** void I2C_SetRxFifoLevel(uint32 level)
 280:Generated_Source\PSoC4/I2C.c **** {
 281:Generated_Source\PSoC4/I2C.c ****     uint32 rxFifoCtrl;
 282:Generated_Source\PSoC4/I2C.c **** 
 283:Generated_Source\PSoC4/I2C.c ****     rxFifoCtrl = I2C_RX_FIFO_CTRL_REG;
 284:Generated_Source\PSoC4/I2C.c **** 
 285:Generated_Source\PSoC4/I2C.c ****     rxFifoCtrl &= ((uint32) ~I2C_RX_FIFO_CTRL_TRIGGER_LEVEL_MASK); /* Clear level mask bits */
 286:Generated_Source\PSoC4/I2C.c ****     rxFifoCtrl |= ((uint32) (I2C_RX_FIFO_CTRL_TRIGGER_LEVEL_MASK & level));
 287:Generated_Source\PSoC4/I2C.c **** 
 288:Generated_Source\PSoC4/I2C.c ****     I2C_RX_FIFO_CTRL_REG = rxFifoCtrl;
 289:Generated_Source\PSoC4/I2C.c **** }
 290:Generated_Source\PSoC4/I2C.c **** 
 291:Generated_Source\PSoC4/I2C.c **** 
 292:Generated_Source\PSoC4/I2C.c **** /*******************************************************************************
 293:Generated_Source\PSoC4/I2C.c **** * Function Name: I2C_SetTxFifoLevel
 294:Generated_Source\PSoC4/I2C.c **** ****************************************************************************//**
 295:Generated_Source\PSoC4/I2C.c **** *
 296:Generated_Source\PSoC4/I2C.c **** *  Sets level in the TX FIFO to generate a TX level interrupt.
 297:Generated_Source\PSoC4/I2C.c **** *  When the TX FIFO has less entries than the TX FIFO level an TX level
 298:Generated_Source\PSoC4/I2C.c **** *  interrupt request is generated.
 299:Generated_Source\PSoC4/I2C.c **** *
 300:Generated_Source\PSoC4/I2C.c **** *  \param level: Level in the TX FIFO to generate TX level interrupt.
 301:Generated_Source\PSoC4/I2C.c **** *   The range of valid level values is between 0 and TX FIFO depth - 1.
 302:Generated_Source\PSoC4/I2C.c **** *
 303:Generated_Source\PSoC4/I2C.c **** *******************************************************************************/
 304:Generated_Source\PSoC4/I2C.c **** void I2C_SetTxFifoLevel(uint32 level)
 305:Generated_Source\PSoC4/I2C.c **** {
 306:Generated_Source\PSoC4/I2C.c ****     uint32 txFifoCtrl;
 307:Generated_Source\PSoC4/I2C.c **** 
 308:Generated_Source\PSoC4/I2C.c ****     txFifoCtrl = I2C_TX_FIFO_CTRL_REG;
 309:Generated_Source\PSoC4/I2C.c **** 
 310:Generated_Source\PSoC4/I2C.c ****     txFifoCtrl &= ((uint32) ~I2C_TX_FIFO_CTRL_TRIGGER_LEVEL_MASK); /* Clear level mask bits */
 311:Generated_Source\PSoC4/I2C.c ****     txFifoCtrl |= ((uint32) (I2C_TX_FIFO_CTRL_TRIGGER_LEVEL_MASK & level));
 312:Generated_Source\PSoC4/I2C.c **** 
 313:Generated_Source\PSoC4/I2C.c ****     I2C_TX_FIFO_CTRL_REG = txFifoCtrl;
 314:Generated_Source\PSoC4/I2C.c **** }
 315:Generated_Source\PSoC4/I2C.c **** 
 316:Generated_Source\PSoC4/I2C.c **** 
ARM GAS  C:\Users\jagumiel\AppData\Local\Temp\cc5sCiX0.s 			page 7


 317:Generated_Source\PSoC4/I2C.c **** #if (I2C_SCB_IRQ_INTERNAL)
 318:Generated_Source\PSoC4/I2C.c ****     /*******************************************************************************
 319:Generated_Source\PSoC4/I2C.c ****     * Function Name: I2C_SetCustomInterruptHandler
 320:Generated_Source\PSoC4/I2C.c ****     ****************************************************************************//**
 321:Generated_Source\PSoC4/I2C.c ****     *
 322:Generated_Source\PSoC4/I2C.c ****     *  Registers a function to be called by the internal interrupt handler.
 323:Generated_Source\PSoC4/I2C.c ****     *  First the function that is registered is called, then the internal interrupt
 324:Generated_Source\PSoC4/I2C.c ****     *  handler performs any operation such as software buffer management functions
 325:Generated_Source\PSoC4/I2C.c ****     *  before the interrupt returns.  It is the user's responsibility not to break
 326:Generated_Source\PSoC4/I2C.c ****     *  the software buffer operations. Only one custom handler is supported, which
 327:Generated_Source\PSoC4/I2C.c ****     *  is the function provided by the most recent call.
 328:Generated_Source\PSoC4/I2C.c ****     *  At the initialization time no custom handler is registered.
 329:Generated_Source\PSoC4/I2C.c ****     *
 330:Generated_Source\PSoC4/I2C.c ****     *  \param func: Pointer to the function to register.
 331:Generated_Source\PSoC4/I2C.c ****     *        The value NULL indicates to remove the current custom interrupt
 332:Generated_Source\PSoC4/I2C.c ****     *        handler.
 333:Generated_Source\PSoC4/I2C.c ****     *
 334:Generated_Source\PSoC4/I2C.c ****     *******************************************************************************/
 335:Generated_Source\PSoC4/I2C.c ****     void I2C_SetCustomInterruptHandler(void (*func)(void))
 336:Generated_Source\PSoC4/I2C.c ****     {
 337:Generated_Source\PSoC4/I2C.c ****     #if !defined (CY_REMOVE_I2C_CUSTOM_INTR_HANDLER)
 338:Generated_Source\PSoC4/I2C.c ****         I2C_customIntrHandler = func; /* Register interrupt handler */
 339:Generated_Source\PSoC4/I2C.c ****     #else
 340:Generated_Source\PSoC4/I2C.c ****         if (NULL != func)
 341:Generated_Source\PSoC4/I2C.c ****         {
 342:Generated_Source\PSoC4/I2C.c ****             /* Suppress compiler warning */
 343:Generated_Source\PSoC4/I2C.c ****         }
 344:Generated_Source\PSoC4/I2C.c ****     #endif /* !defined (CY_REMOVE_I2C_CUSTOM_INTR_HANDLER) */
 345:Generated_Source\PSoC4/I2C.c ****     }
 346:Generated_Source\PSoC4/I2C.c **** #endif /* (I2C_SCB_IRQ_INTERNAL) */
 347:Generated_Source\PSoC4/I2C.c **** 
 348:Generated_Source\PSoC4/I2C.c **** 
 349:Generated_Source\PSoC4/I2C.c **** /*******************************************************************************
 350:Generated_Source\PSoC4/I2C.c **** * Function Name: I2C_ScbModeEnableIntr
 351:Generated_Source\PSoC4/I2C.c **** ****************************************************************************//**
 352:Generated_Source\PSoC4/I2C.c **** *
 353:Generated_Source\PSoC4/I2C.c **** *  Enables an interrupt for a specific mode.
 354:Generated_Source\PSoC4/I2C.c **** *
 355:Generated_Source\PSoC4/I2C.c **** *******************************************************************************/
 356:Generated_Source\PSoC4/I2C.c **** static void I2C_ScbEnableIntr(void)
 357:Generated_Source\PSoC4/I2C.c **** {
  27              		.loc 1 357 0
  28              		.cfi_startproc
  29              		@ args = 0, pretend = 0, frame = 0
  30              		@ frame_needed = 0, uses_anonymous_args = 0
  31 0000 10B5     		push	{r4, lr}
  32              		.cfi_def_cfa_offset 8
  33              		.cfi_offset 4, -8
  34              		.cfi_offset 14, -4
 358:Generated_Source\PSoC4/I2C.c **** #if (I2C_SCB_IRQ_INTERNAL)
 359:Generated_Source\PSoC4/I2C.c ****     /* Enable interrupt in NVIC */
 360:Generated_Source\PSoC4/I2C.c ****     #if (I2C_SCB_MODE_UNCONFIG_CONST_CFG)
 361:Generated_Source\PSoC4/I2C.c ****         if (0u != I2C_scbEnableIntr)
 362:Generated_Source\PSoC4/I2C.c ****         {
 363:Generated_Source\PSoC4/I2C.c ****             I2C_EnableInt();
 364:Generated_Source\PSoC4/I2C.c ****         }
 365:Generated_Source\PSoC4/I2C.c **** 
ARM GAS  C:\Users\jagumiel\AppData\Local\Temp\cc5sCiX0.s 			page 8


 366:Generated_Source\PSoC4/I2C.c ****     #else
 367:Generated_Source\PSoC4/I2C.c ****         I2C_EnableInt();
  35              		.loc 1 367 0
  36 0002 0B20     		movs	r0, #11
  37 0004 FFF7FEFF 		bl	CyIntEnable
  38              	.LVL0:
 368:Generated_Source\PSoC4/I2C.c **** 
 369:Generated_Source\PSoC4/I2C.c ****     #endif /* (I2C_SCB_MODE_UNCONFIG_CONST_CFG) */
 370:Generated_Source\PSoC4/I2C.c **** #endif /* (I2C_SCB_IRQ_INTERNAL) */
 371:Generated_Source\PSoC4/I2C.c **** }
  39              		.loc 1 371 0
  40              		@ sp needed
  41 0008 10BD     		pop	{r4, pc}
  42              		.cfi_endproc
  43              	.LFE7:
  44              		.size	I2C_ScbEnableIntr, .-I2C_ScbEnableIntr
  45 000a C046     		.section	.text.I2C_ScbModeStop,"ax",%progbits
  46              		.align	2
  47              		.code	16
  48              		.thumb_func
  49              		.type	I2C_ScbModeStop, %function
  50              	I2C_ScbModeStop:
  51              	.LFB9:
 372:Generated_Source\PSoC4/I2C.c **** 
 373:Generated_Source\PSoC4/I2C.c **** 
 374:Generated_Source\PSoC4/I2C.c **** /*******************************************************************************
 375:Generated_Source\PSoC4/I2C.c **** * Function Name: I2C_ScbModePostEnable
 376:Generated_Source\PSoC4/I2C.c **** ****************************************************************************//**
 377:Generated_Source\PSoC4/I2C.c **** *
 378:Generated_Source\PSoC4/I2C.c **** *  Calls the PostEnable function for a specific operation mode.
 379:Generated_Source\PSoC4/I2C.c **** *
 380:Generated_Source\PSoC4/I2C.c **** *******************************************************************************/
 381:Generated_Source\PSoC4/I2C.c **** static void I2C_ScbModePostEnable(void)
 382:Generated_Source\PSoC4/I2C.c **** {
 383:Generated_Source\PSoC4/I2C.c **** #if (I2C_SCB_MODE_UNCONFIG_CONST_CFG)
 384:Generated_Source\PSoC4/I2C.c **** #if (!I2C_CY_SCBIP_V1)
 385:Generated_Source\PSoC4/I2C.c ****     if (I2C_SCB_MODE_SPI_RUNTM_CFG)
 386:Generated_Source\PSoC4/I2C.c ****     {
 387:Generated_Source\PSoC4/I2C.c ****         I2C_SpiPostEnable();
 388:Generated_Source\PSoC4/I2C.c ****     }
 389:Generated_Source\PSoC4/I2C.c ****     else if (I2C_SCB_MODE_UART_RUNTM_CFG)
 390:Generated_Source\PSoC4/I2C.c ****     {
 391:Generated_Source\PSoC4/I2C.c ****         I2C_UartPostEnable();
 392:Generated_Source\PSoC4/I2C.c ****     }
 393:Generated_Source\PSoC4/I2C.c ****     else
 394:Generated_Source\PSoC4/I2C.c ****     {
 395:Generated_Source\PSoC4/I2C.c ****         /* Unknown mode: do nothing */
 396:Generated_Source\PSoC4/I2C.c ****     }
 397:Generated_Source\PSoC4/I2C.c **** #endif /* (!I2C_CY_SCBIP_V1) */
 398:Generated_Source\PSoC4/I2C.c **** 
 399:Generated_Source\PSoC4/I2C.c **** #elif (I2C_SCB_MODE_SPI_CONST_CFG)
 400:Generated_Source\PSoC4/I2C.c ****     I2C_SpiPostEnable();
 401:Generated_Source\PSoC4/I2C.c **** 
 402:Generated_Source\PSoC4/I2C.c **** #elif (I2C_SCB_MODE_UART_CONST_CFG)
 403:Generated_Source\PSoC4/I2C.c ****     I2C_UartPostEnable();
 404:Generated_Source\PSoC4/I2C.c **** 
 405:Generated_Source\PSoC4/I2C.c **** #else
ARM GAS  C:\Users\jagumiel\AppData\Local\Temp\cc5sCiX0.s 			page 9


 406:Generated_Source\PSoC4/I2C.c ****     /* Unknown mode: do nothing */
 407:Generated_Source\PSoC4/I2C.c **** #endif /* (I2C_SCB_MODE_UNCONFIG_CONST_CFG) */
 408:Generated_Source\PSoC4/I2C.c **** }
 409:Generated_Source\PSoC4/I2C.c **** 
 410:Generated_Source\PSoC4/I2C.c **** 
 411:Generated_Source\PSoC4/I2C.c **** /*******************************************************************************
 412:Generated_Source\PSoC4/I2C.c **** * Function Name: I2C_ScbModeStop
 413:Generated_Source\PSoC4/I2C.c **** ****************************************************************************//**
 414:Generated_Source\PSoC4/I2C.c **** *
 415:Generated_Source\PSoC4/I2C.c **** *  Calls the Stop function for a specific operation mode.
 416:Generated_Source\PSoC4/I2C.c **** *
 417:Generated_Source\PSoC4/I2C.c **** *******************************************************************************/
 418:Generated_Source\PSoC4/I2C.c **** static void I2C_ScbModeStop(void)
 419:Generated_Source\PSoC4/I2C.c **** {
  52              		.loc 1 419 0
  53              		.cfi_startproc
  54              		@ args = 0, pretend = 0, frame = 0
  55              		@ frame_needed = 0, uses_anonymous_args = 0
  56 0000 10B5     		push	{r4, lr}
  57              		.cfi_def_cfa_offset 8
  58              		.cfi_offset 4, -8
  59              		.cfi_offset 14, -4
 420:Generated_Source\PSoC4/I2C.c **** #if (I2C_SCB_MODE_UNCONFIG_CONST_CFG)
 421:Generated_Source\PSoC4/I2C.c ****     if (I2C_SCB_MODE_I2C_RUNTM_CFG)
 422:Generated_Source\PSoC4/I2C.c ****     {
 423:Generated_Source\PSoC4/I2C.c ****         I2C_I2CStop();
 424:Generated_Source\PSoC4/I2C.c ****     }
 425:Generated_Source\PSoC4/I2C.c ****     else if (I2C_SCB_MODE_EZI2C_RUNTM_CFG)
 426:Generated_Source\PSoC4/I2C.c ****     {
 427:Generated_Source\PSoC4/I2C.c ****         I2C_EzI2CStop();
 428:Generated_Source\PSoC4/I2C.c ****     }
 429:Generated_Source\PSoC4/I2C.c **** #if (!I2C_CY_SCBIP_V1)
 430:Generated_Source\PSoC4/I2C.c ****     else if (I2C_SCB_MODE_SPI_RUNTM_CFG)
 431:Generated_Source\PSoC4/I2C.c ****     {
 432:Generated_Source\PSoC4/I2C.c ****         I2C_SpiStop();
 433:Generated_Source\PSoC4/I2C.c ****     }
 434:Generated_Source\PSoC4/I2C.c ****     else if (I2C_SCB_MODE_UART_RUNTM_CFG)
 435:Generated_Source\PSoC4/I2C.c ****     {
 436:Generated_Source\PSoC4/I2C.c ****         I2C_UartStop();
 437:Generated_Source\PSoC4/I2C.c ****     }
 438:Generated_Source\PSoC4/I2C.c **** #endif /* (!I2C_CY_SCBIP_V1) */
 439:Generated_Source\PSoC4/I2C.c ****     else
 440:Generated_Source\PSoC4/I2C.c ****     {
 441:Generated_Source\PSoC4/I2C.c ****         /* Unknown mode: do nothing */
 442:Generated_Source\PSoC4/I2C.c ****     }
 443:Generated_Source\PSoC4/I2C.c **** #elif (I2C_SCB_MODE_I2C_CONST_CFG)
 444:Generated_Source\PSoC4/I2C.c ****     I2C_I2CStop();
 445:Generated_Source\PSoC4/I2C.c **** 
 446:Generated_Source\PSoC4/I2C.c **** #elif (I2C_SCB_MODE_EZI2C_CONST_CFG)
 447:Generated_Source\PSoC4/I2C.c ****     I2C_EzI2CStop();
  60              		.loc 1 447 0
  61 0002 FFF7FEFF 		bl	I2C_EzI2CStop
  62              	.LVL1:
 448:Generated_Source\PSoC4/I2C.c **** 
 449:Generated_Source\PSoC4/I2C.c **** #elif (I2C_SCB_MODE_SPI_CONST_CFG)
 450:Generated_Source\PSoC4/I2C.c ****     I2C_SpiStop();
 451:Generated_Source\PSoC4/I2C.c **** 
ARM GAS  C:\Users\jagumiel\AppData\Local\Temp\cc5sCiX0.s 			page 10


 452:Generated_Source\PSoC4/I2C.c **** #elif (I2C_SCB_MODE_UART_CONST_CFG)
 453:Generated_Source\PSoC4/I2C.c ****     I2C_UartStop();
 454:Generated_Source\PSoC4/I2C.c **** 
 455:Generated_Source\PSoC4/I2C.c **** #else
 456:Generated_Source\PSoC4/I2C.c ****     /* Unknown mode: do nothing */
 457:Generated_Source\PSoC4/I2C.c **** #endif /* (I2C_SCB_MODE_UNCONFIG_CONST_CFG) */
 458:Generated_Source\PSoC4/I2C.c **** }
  63              		.loc 1 458 0
  64              		@ sp needed
  65 0006 10BD     		pop	{r4, pc}
  66              		.cfi_endproc
  67              	.LFE9:
  68              		.size	I2C_ScbModeStop, .-I2C_ScbModeStop
  69              		.section	.text.I2C_Init,"ax",%progbits
  70              		.align	2
  71              		.global	I2C_Init
  72              		.code	16
  73              		.thumb_func
  74              		.type	I2C_Init, %function
  75              	I2C_Init:
  76              	.LFB0:
 124:Generated_Source\PSoC4/I2C.c **** #if (I2C_SCB_MODE_UNCONFIG_CONST_CFG)
  77              		.loc 1 124 0
  78              		.cfi_startproc
  79              		@ args = 0, pretend = 0, frame = 0
  80              		@ frame_needed = 0, uses_anonymous_args = 0
  81 0000 10B5     		push	{r4, lr}
  82              		.cfi_def_cfa_offset 8
  83              		.cfi_offset 4, -8
  84              		.cfi_offset 14, -4
 145:Generated_Source\PSoC4/I2C.c **** 
  85              		.loc 1 145 0
  86 0002 FFF7FEFF 		bl	I2C_EzI2CInit
  87              	.LVL2:
 148:Generated_Source\PSoC4/I2C.c **** 
  88              		.loc 1 148 0
  89              		@ sp needed
  90 0006 10BD     		pop	{r4, pc}
  91              		.cfi_endproc
  92              	.LFE0:
  93              		.size	I2C_Init, .-I2C_Init
  94              		.section	.text.I2C_Enable,"ax",%progbits
  95              		.align	2
  96              		.global	I2C_Enable
  97              		.code	16
  98              		.thumb_func
  99              		.type	I2C_Enable, %function
 100              	I2C_Enable:
 101              	.LFB1:
 172:Generated_Source\PSoC4/I2C.c **** #if (I2C_SCB_MODE_UNCONFIG_CONST_CFG)
 102              		.loc 1 172 0
 103              		.cfi_startproc
 104              		@ args = 0, pretend = 0, frame = 0
 105              		@ frame_needed = 0, uses_anonymous_args = 0
 106 0000 10B5     		push	{r4, lr}
 107              		.cfi_def_cfa_offset 8
 108              		.cfi_offset 4, -8
ARM GAS  C:\Users\jagumiel\AppData\Local\Temp\cc5sCiX0.s 			page 11


 109              		.cfi_offset 14, -4
 185:Generated_Source\PSoC4/I2C.c **** 
 110              		.loc 1 185 0
 111 0002 044A     		ldr	r2, .L5
 112 0004 1368     		ldr	r3, [r2]
 113 0006 8021     		movs	r1, #128
 114 0008 0906     		lsls	r1, r1, #24
 115 000a 0B43     		orrs	r3, r1
 116 000c 1360     		str	r3, [r2]
 187:Generated_Source\PSoC4/I2C.c **** 
 117              		.loc 1 187 0
 118 000e FFF7FEFF 		bl	I2C_ScbEnableIntr
 119              	.LVL3:
 192:Generated_Source\PSoC4/I2C.c **** 
 120              		.loc 1 192 0
 121              		@ sp needed
 122 0012 10BD     		pop	{r4, pc}
 123              	.L6:
 124              		.align	2
 125              	.L5:
 126 0014 00000740 		.word	1074200576
 127              		.cfi_endproc
 128              	.LFE1:
 129              		.size	I2C_Enable, .-I2C_Enable
 130              		.section	.text.I2C_Start,"ax",%progbits
 131              		.align	2
 132              		.global	I2C_Start
 133              		.code	16
 134              		.thumb_func
 135              		.type	I2C_Start, %function
 136              	I2C_Start:
 137              	.LFB2:
 211:Generated_Source\PSoC4/I2C.c ****     if (0u == I2C_initVar)
 138              		.loc 1 211 0
 139              		.cfi_startproc
 140              		@ args = 0, pretend = 0, frame = 0
 141              		@ frame_needed = 0, uses_anonymous_args = 0
 142 0000 10B5     		push	{r4, lr}
 143              		.cfi_def_cfa_offset 8
 144              		.cfi_offset 4, -8
 145              		.cfi_offset 14, -4
 212:Generated_Source\PSoC4/I2C.c ****     {
 146              		.loc 1 212 0
 147 0002 064B     		ldr	r3, .L9
 148 0004 1B78     		ldrb	r3, [r3]
 149 0006 002B     		cmp	r3, #0
 150 0008 04D1     		bne	.L8
 214:Generated_Source\PSoC4/I2C.c ****         I2C_initVar = 1u; /* Component was initialized */
 151              		.loc 1 214 0
 152 000a FFF7FEFF 		bl	I2C_Init
 153              	.LVL4:
 215:Generated_Source\PSoC4/I2C.c ****     }
 154              		.loc 1 215 0
 155 000e 0122     		movs	r2, #1
 156 0010 024B     		ldr	r3, .L9
 157 0012 1A70     		strb	r2, [r3]
 158              	.L8:
ARM GAS  C:\Users\jagumiel\AppData\Local\Temp\cc5sCiX0.s 			page 12


 218:Generated_Source\PSoC4/I2C.c **** }
 159              		.loc 1 218 0
 160 0014 FFF7FEFF 		bl	I2C_Enable
 161              	.LVL5:
 219:Generated_Source\PSoC4/I2C.c **** 
 162              		.loc 1 219 0
 163              		@ sp needed
 164 0018 10BD     		pop	{r4, pc}
 165              	.L10:
 166 001a C046     		.align	2
 167              	.L9:
 168 001c 00000000 		.word	.LANCHOR0
 169              		.cfi_endproc
 170              	.LFE2:
 171              		.size	I2C_Start, .-I2C_Start
 172              		.section	.text.I2C_Stop,"ax",%progbits
 173              		.align	2
 174              		.global	I2C_Stop
 175              		.code	16
 176              		.thumb_func
 177              		.type	I2C_Stop, %function
 178              	I2C_Stop:
 179              	.LFB3:
 240:Generated_Source\PSoC4/I2C.c **** #if (I2C_SCB_IRQ_INTERNAL)
 180              		.loc 1 240 0
 181              		.cfi_startproc
 182              		@ args = 0, pretend = 0, frame = 0
 183              		@ frame_needed = 0, uses_anonymous_args = 0
 184 0000 10B5     		push	{r4, lr}
 185              		.cfi_def_cfa_offset 8
 186              		.cfi_offset 4, -8
 187              		.cfi_offset 14, -4
 242:Generated_Source\PSoC4/I2C.c **** #endif /* (I2C_SCB_IRQ_INTERNAL) */
 188              		.loc 1 242 0
 189 0002 0B20     		movs	r0, #11
 190 0004 FFF7FEFF 		bl	CyIntDisable
 191              	.LVL6:
 246:Generated_Source\PSoC4/I2C.c **** 
 192              		.loc 1 246 0
 193 0008 FFF7FEFF 		bl	I2C_ScbModeStop
 194              	.LVL7:
 249:Generated_Source\PSoC4/I2C.c **** 
 195              		.loc 1 249 0
 196 000c 054A     		ldr	r2, .L12
 197 000e 1368     		ldr	r3, [r2]
 198 0010 5B00     		lsls	r3, r3, #1
 199 0012 5B08     		lsrs	r3, r3, #1
 200 0014 1360     		str	r3, [r2]
 259:Generated_Source\PSoC4/I2C.c **** 
 201              		.loc 1 259 0
 202 0016 0022     		movs	r2, #0
 203 0018 034B     		ldr	r3, .L12+4
 204 001a 1A60     		str	r2, [r3]
 262:Generated_Source\PSoC4/I2C.c **** #endif /* (I2C_SCB_IRQ_INTERNAL) */
 205              		.loc 1 262 0
 206 001c 0B20     		movs	r0, #11
 207 001e FFF7FEFF 		bl	CyIntClearPending
ARM GAS  C:\Users\jagumiel\AppData\Local\Temp\cc5sCiX0.s 			page 13


 208              	.LVL8:
 264:Generated_Source\PSoC4/I2C.c **** 
 209              		.loc 1 264 0
 210              		@ sp needed
 211 0022 10BD     		pop	{r4, pc}
 212              	.L13:
 213              		.align	2
 214              	.L12:
 215 0024 00000740 		.word	1074200576
 216 0028 880F0740 		.word	1074204552
 217              		.cfi_endproc
 218              	.LFE3:
 219              		.size	I2C_Stop, .-I2C_Stop
 220              		.section	.text.I2C_SetRxFifoLevel,"ax",%progbits
 221              		.align	2
 222              		.global	I2C_SetRxFifoLevel
 223              		.code	16
 224              		.thumb_func
 225              		.type	I2C_SetRxFifoLevel, %function
 226              	I2C_SetRxFifoLevel:
 227              	.LFB4:
 280:Generated_Source\PSoC4/I2C.c ****     uint32 rxFifoCtrl;
 228              		.loc 1 280 0
 229              		.cfi_startproc
 230              		@ args = 0, pretend = 0, frame = 0
 231              		@ frame_needed = 0, uses_anonymous_args = 0
 232              		@ link register save eliminated.
 233              	.LVL9:
 283:Generated_Source\PSoC4/I2C.c **** 
 234              		.loc 1 283 0
 235 0000 034A     		ldr	r2, .L15
 236 0002 1368     		ldr	r3, [r2]
 237              	.LVL10:
 285:Generated_Source\PSoC4/I2C.c ****     rxFifoCtrl |= ((uint32) (I2C_RX_FIFO_CTRL_TRIGGER_LEVEL_MASK & level));
 238              		.loc 1 285 0
 239 0004 0721     		movs	r1, #7
 240 0006 8B43     		bics	r3, r1
 241              	.LVL11:
 286:Generated_Source\PSoC4/I2C.c **** 
 242              		.loc 1 286 0
 243 0008 0840     		ands	r0, r1
 244              	.LVL12:
 245 000a 1843     		orrs	r0, r3
 246              	.LVL13:
 288:Generated_Source\PSoC4/I2C.c **** }
 247              		.loc 1 288 0
 248 000c 1060     		str	r0, [r2]
 289:Generated_Source\PSoC4/I2C.c **** 
 249              		.loc 1 289 0
 250              		@ sp needed
 251 000e 7047     		bx	lr
 252              	.L16:
 253              		.align	2
 254              	.L15:
 255 0010 04030740 		.word	1074201348
 256              		.cfi_endproc
 257              	.LFE4:
ARM GAS  C:\Users\jagumiel\AppData\Local\Temp\cc5sCiX0.s 			page 14


 258              		.size	I2C_SetRxFifoLevel, .-I2C_SetRxFifoLevel
 259              		.section	.text.I2C_SetTxFifoLevel,"ax",%progbits
 260              		.align	2
 261              		.global	I2C_SetTxFifoLevel
 262              		.code	16
 263              		.thumb_func
 264              		.type	I2C_SetTxFifoLevel, %function
 265              	I2C_SetTxFifoLevel:
 266              	.LFB5:
 305:Generated_Source\PSoC4/I2C.c ****     uint32 txFifoCtrl;
 267              		.loc 1 305 0
 268              		.cfi_startproc
 269              		@ args = 0, pretend = 0, frame = 0
 270              		@ frame_needed = 0, uses_anonymous_args = 0
 271              		@ link register save eliminated.
 272              	.LVL14:
 308:Generated_Source\PSoC4/I2C.c **** 
 273              		.loc 1 308 0
 274 0000 034A     		ldr	r2, .L18
 275 0002 1368     		ldr	r3, [r2]
 276              	.LVL15:
 310:Generated_Source\PSoC4/I2C.c ****     txFifoCtrl |= ((uint32) (I2C_TX_FIFO_CTRL_TRIGGER_LEVEL_MASK & level));
 277              		.loc 1 310 0
 278 0004 0721     		movs	r1, #7
 279 0006 8B43     		bics	r3, r1
 280              	.LVL16:
 311:Generated_Source\PSoC4/I2C.c **** 
 281              		.loc 1 311 0
 282 0008 0840     		ands	r0, r1
 283              	.LVL17:
 284 000a 1843     		orrs	r0, r3
 285              	.LVL18:
 313:Generated_Source\PSoC4/I2C.c **** }
 286              		.loc 1 313 0
 287 000c 1060     		str	r0, [r2]
 314:Generated_Source\PSoC4/I2C.c **** 
 288              		.loc 1 314 0
 289              		@ sp needed
 290 000e 7047     		bx	lr
 291              	.L19:
 292              		.align	2
 293              	.L18:
 294 0010 04020740 		.word	1074201092
 295              		.cfi_endproc
 296              	.LFE5:
 297              		.size	I2C_SetTxFifoLevel, .-I2C_SetTxFifoLevel
 298              		.section	.text.I2C_SetCustomInterruptHandler,"ax",%progbits
 299              		.align	2
 300              		.global	I2C_SetCustomInterruptHandler
 301              		.code	16
 302              		.thumb_func
 303              		.type	I2C_SetCustomInterruptHandler, %function
 304              	I2C_SetCustomInterruptHandler:
 305              	.LFB6:
 336:Generated_Source\PSoC4/I2C.c ****     #if !defined (CY_REMOVE_I2C_CUSTOM_INTR_HANDLER)
 306              		.loc 1 336 0
 307              		.cfi_startproc
ARM GAS  C:\Users\jagumiel\AppData\Local\Temp\cc5sCiX0.s 			page 15


 308              		@ args = 0, pretend = 0, frame = 0
 309              		@ frame_needed = 0, uses_anonymous_args = 0
 310              		@ link register save eliminated.
 311              	.LVL19:
 338:Generated_Source\PSoC4/I2C.c ****     #else
 312              		.loc 1 338 0
 313 0000 014B     		ldr	r3, .L21
 314 0002 5860     		str	r0, [r3, #4]
 345:Generated_Source\PSoC4/I2C.c **** #endif /* (I2C_SCB_IRQ_INTERNAL) */
 315              		.loc 1 345 0
 316              		@ sp needed
 317 0004 7047     		bx	lr
 318              	.L22:
 319 0006 C046     		.align	2
 320              	.L21:
 321 0008 00000000 		.word	.LANCHOR0
 322              		.cfi_endproc
 323              	.LFE6:
 324              		.size	I2C_SetCustomInterruptHandler, .-I2C_SetCustomInterruptHandler
 325              		.section	.text.I2C_I2CSlaveNackGeneration,"ax",%progbits
 326              		.align	2
 327              		.global	I2C_I2CSlaveNackGeneration
 328              		.code	16
 329              		.thumb_func
 330              		.type	I2C_I2CSlaveNackGeneration, %function
 331              	I2C_I2CSlaveNackGeneration:
 332              	.LFB10:
 459:Generated_Source\PSoC4/I2C.c **** 
 460:Generated_Source\PSoC4/I2C.c **** 
 461:Generated_Source\PSoC4/I2C.c **** #if (I2C_SCB_MODE_UNCONFIG_CONST_CFG)
 462:Generated_Source\PSoC4/I2C.c ****     /*******************************************************************************
 463:Generated_Source\PSoC4/I2C.c ****     * Function Name: I2C_SetPins
 464:Generated_Source\PSoC4/I2C.c ****     ****************************************************************************//**
 465:Generated_Source\PSoC4/I2C.c ****     *
 466:Generated_Source\PSoC4/I2C.c ****     *  Sets the pins settings accordingly to the selected operation mode.
 467:Generated_Source\PSoC4/I2C.c ****     *  Only available in the Unconfigured operation mode. The mode specific
 468:Generated_Source\PSoC4/I2C.c ****     *  initialization function calls it.
 469:Generated_Source\PSoC4/I2C.c ****     *  Pins configuration is set by PSoC Creator when a specific mode of operation
 470:Generated_Source\PSoC4/I2C.c ****     *  is selected in design time.
 471:Generated_Source\PSoC4/I2C.c ****     *
 472:Generated_Source\PSoC4/I2C.c ****     *  \param mode:      Mode of SCB operation.
 473:Generated_Source\PSoC4/I2C.c ****     *  \param subMode:   Sub-mode of SCB operation. It is only required for SPI and UART
 474:Generated_Source\PSoC4/I2C.c ****     *             modes.
 475:Generated_Source\PSoC4/I2C.c ****     *  \param uartEnableMask: enables TX or RX direction and RTS and CTS signals.
 476:Generated_Source\PSoC4/I2C.c ****     *
 477:Generated_Source\PSoC4/I2C.c ****     *******************************************************************************/
 478:Generated_Source\PSoC4/I2C.c ****     void I2C_SetPins(uint32 mode, uint32 subMode, uint32 uartEnableMask)
 479:Generated_Source\PSoC4/I2C.c ****     {
 480:Generated_Source\PSoC4/I2C.c ****         uint32 pinsDm[I2C_SCB_PINS_NUMBER];
 481:Generated_Source\PSoC4/I2C.c ****         uint32 i;
 482:Generated_Source\PSoC4/I2C.c ****         
 483:Generated_Source\PSoC4/I2C.c ****     #if (!I2C_CY_SCBIP_V1)
 484:Generated_Source\PSoC4/I2C.c ****         uint32 pinsInBuf = 0u;
 485:Generated_Source\PSoC4/I2C.c ****     #endif /* (!I2C_CY_SCBIP_V1) */
 486:Generated_Source\PSoC4/I2C.c ****         
 487:Generated_Source\PSoC4/I2C.c ****         uint32 hsiomSel[I2C_SCB_PINS_NUMBER] = 
 488:Generated_Source\PSoC4/I2C.c ****         {
ARM GAS  C:\Users\jagumiel\AppData\Local\Temp\cc5sCiX0.s 			page 16


 489:Generated_Source\PSoC4/I2C.c ****             I2C_RX_SCL_MOSI_HSIOM_SEL_GPIO,
 490:Generated_Source\PSoC4/I2C.c ****             I2C_TX_SDA_MISO_HSIOM_SEL_GPIO,
 491:Generated_Source\PSoC4/I2C.c ****             0u,
 492:Generated_Source\PSoC4/I2C.c ****             0u,
 493:Generated_Source\PSoC4/I2C.c ****             0u,
 494:Generated_Source\PSoC4/I2C.c ****             0u,
 495:Generated_Source\PSoC4/I2C.c ****             0u,
 496:Generated_Source\PSoC4/I2C.c ****         };
 497:Generated_Source\PSoC4/I2C.c **** 
 498:Generated_Source\PSoC4/I2C.c ****     #if (I2C_CY_SCBIP_V1)
 499:Generated_Source\PSoC4/I2C.c ****         /* Supress compiler warning. */
 500:Generated_Source\PSoC4/I2C.c ****         if ((0u == subMode) || (0u == uartEnableMask))
 501:Generated_Source\PSoC4/I2C.c ****         {
 502:Generated_Source\PSoC4/I2C.c ****         }
 503:Generated_Source\PSoC4/I2C.c ****     #endif /* (I2C_CY_SCBIP_V1) */
 504:Generated_Source\PSoC4/I2C.c **** 
 505:Generated_Source\PSoC4/I2C.c ****         /* Set default HSIOM to GPIO and Drive Mode to Analog Hi-Z */
 506:Generated_Source\PSoC4/I2C.c ****         for (i = 0u; i < I2C_SCB_PINS_NUMBER; i++)
 507:Generated_Source\PSoC4/I2C.c ****         {
 508:Generated_Source\PSoC4/I2C.c ****             pinsDm[i] = I2C_PIN_DM_ALG_HIZ;
 509:Generated_Source\PSoC4/I2C.c ****         }
 510:Generated_Source\PSoC4/I2C.c **** 
 511:Generated_Source\PSoC4/I2C.c ****         if ((I2C_SCB_MODE_I2C   == mode) ||
 512:Generated_Source\PSoC4/I2C.c ****             (I2C_SCB_MODE_EZI2C == mode))
 513:Generated_Source\PSoC4/I2C.c ****         {
 514:Generated_Source\PSoC4/I2C.c ****         #if (I2C_RX_SCL_MOSI_PIN)
 515:Generated_Source\PSoC4/I2C.c ****             hsiomSel[I2C_RX_SCL_MOSI_PIN_INDEX] = I2C_RX_SCL_MOSI_HSIOM_SEL_I2C;
 516:Generated_Source\PSoC4/I2C.c ****             pinsDm  [I2C_RX_SCL_MOSI_PIN_INDEX] = I2C_PIN_DM_OD_LO;
 517:Generated_Source\PSoC4/I2C.c ****         #elif (I2C_RX_WAKE_SCL_MOSI_PIN)
 518:Generated_Source\PSoC4/I2C.c ****             hsiomSel[I2C_RX_WAKE_SCL_MOSI_PIN_INDEX] = I2C_RX_WAKE_SCL_MOSI_HSIOM_SEL_I2C;
 519:Generated_Source\PSoC4/I2C.c ****             pinsDm  [I2C_RX_WAKE_SCL_MOSI_PIN_INDEX] = I2C_PIN_DM_OD_LO;
 520:Generated_Source\PSoC4/I2C.c ****         #else
 521:Generated_Source\PSoC4/I2C.c ****         #endif /* (I2C_RX_SCL_MOSI_PIN) */
 522:Generated_Source\PSoC4/I2C.c ****         
 523:Generated_Source\PSoC4/I2C.c ****         #if (I2C_TX_SDA_MISO_PIN)
 524:Generated_Source\PSoC4/I2C.c ****             hsiomSel[I2C_TX_SDA_MISO_PIN_INDEX] = I2C_TX_SDA_MISO_HSIOM_SEL_I2C;
 525:Generated_Source\PSoC4/I2C.c ****             pinsDm  [I2C_TX_SDA_MISO_PIN_INDEX] = I2C_PIN_DM_OD_LO;
 526:Generated_Source\PSoC4/I2C.c ****         #endif /* (I2C_TX_SDA_MISO_PIN) */
 527:Generated_Source\PSoC4/I2C.c ****         }
 528:Generated_Source\PSoC4/I2C.c ****     #if (!I2C_CY_SCBIP_V1)
 529:Generated_Source\PSoC4/I2C.c ****         else if (I2C_SCB_MODE_SPI == mode)
 530:Generated_Source\PSoC4/I2C.c ****         {
 531:Generated_Source\PSoC4/I2C.c ****         #if (I2C_RX_SCL_MOSI_PIN)
 532:Generated_Source\PSoC4/I2C.c ****             hsiomSel[I2C_RX_SCL_MOSI_PIN_INDEX] = I2C_RX_SCL_MOSI_HSIOM_SEL_SPI;
 533:Generated_Source\PSoC4/I2C.c ****         #elif (I2C_RX_WAKE_SCL_MOSI_PIN)
 534:Generated_Source\PSoC4/I2C.c ****             hsiomSel[I2C_RX_WAKE_SCL_MOSI_PIN_INDEX] = I2C_RX_WAKE_SCL_MOSI_HSIOM_SEL_SPI;
 535:Generated_Source\PSoC4/I2C.c ****         #else
 536:Generated_Source\PSoC4/I2C.c ****         #endif /* (I2C_RX_SCL_MOSI_PIN) */
 537:Generated_Source\PSoC4/I2C.c ****         
 538:Generated_Source\PSoC4/I2C.c ****         #if (I2C_TX_SDA_MISO_PIN)
 539:Generated_Source\PSoC4/I2C.c ****             hsiomSel[I2C_TX_SDA_MISO_PIN_INDEX] = I2C_TX_SDA_MISO_HSIOM_SEL_SPI;
 540:Generated_Source\PSoC4/I2C.c ****         #endif /* (I2C_TX_SDA_MISO_PIN) */
 541:Generated_Source\PSoC4/I2C.c ****         
 542:Generated_Source\PSoC4/I2C.c ****         #if (I2C_SCLK_PIN)
 543:Generated_Source\PSoC4/I2C.c ****             hsiomSel[I2C_SCLK_PIN_INDEX] = I2C_SCLK_HSIOM_SEL_SPI;
 544:Generated_Source\PSoC4/I2C.c ****         #endif /* (I2C_SCLK_PIN) */
 545:Generated_Source\PSoC4/I2C.c **** 
ARM GAS  C:\Users\jagumiel\AppData\Local\Temp\cc5sCiX0.s 			page 17


 546:Generated_Source\PSoC4/I2C.c ****             if (I2C_SPI_SLAVE == subMode)
 547:Generated_Source\PSoC4/I2C.c ****             {
 548:Generated_Source\PSoC4/I2C.c ****                 /* Slave */
 549:Generated_Source\PSoC4/I2C.c ****                 pinsDm[I2C_RX_SCL_MOSI_PIN_INDEX] = I2C_PIN_DM_DIG_HIZ;
 550:Generated_Source\PSoC4/I2C.c ****                 pinsDm[I2C_TX_SDA_MISO_PIN_INDEX] = I2C_PIN_DM_STRONG;
 551:Generated_Source\PSoC4/I2C.c ****                 pinsDm[I2C_SCLK_PIN_INDEX] = I2C_PIN_DM_DIG_HIZ;
 552:Generated_Source\PSoC4/I2C.c **** 
 553:Generated_Source\PSoC4/I2C.c ****             #if (I2C_SS0_PIN)
 554:Generated_Source\PSoC4/I2C.c ****                 /* Only SS0 is valid choice for Slave */
 555:Generated_Source\PSoC4/I2C.c ****                 hsiomSel[I2C_SS0_PIN_INDEX] = I2C_SS0_HSIOM_SEL_SPI;
 556:Generated_Source\PSoC4/I2C.c ****                 pinsDm  [I2C_SS0_PIN_INDEX] = I2C_PIN_DM_DIG_HIZ;
 557:Generated_Source\PSoC4/I2C.c ****             #endif /* (I2C_SS0_PIN) */
 558:Generated_Source\PSoC4/I2C.c **** 
 559:Generated_Source\PSoC4/I2C.c ****             #if (I2C_TX_SDA_MISO_PIN)
 560:Generated_Source\PSoC4/I2C.c ****                 /* Disable input buffer */
 561:Generated_Source\PSoC4/I2C.c ****                  pinsInBuf |= I2C_TX_SDA_MISO_PIN_MASK;
 562:Generated_Source\PSoC4/I2C.c ****             #endif /* (I2C_TX_SDA_MISO_PIN) */
 563:Generated_Source\PSoC4/I2C.c ****             }
 564:Generated_Source\PSoC4/I2C.c ****             else 
 565:Generated_Source\PSoC4/I2C.c ****             {
 566:Generated_Source\PSoC4/I2C.c ****                 /* (Master) */
 567:Generated_Source\PSoC4/I2C.c ****                 pinsDm[I2C_RX_SCL_MOSI_PIN_INDEX] = I2C_PIN_DM_STRONG;
 568:Generated_Source\PSoC4/I2C.c ****                 pinsDm[I2C_TX_SDA_MISO_PIN_INDEX] = I2C_PIN_DM_DIG_HIZ;
 569:Generated_Source\PSoC4/I2C.c ****                 pinsDm[I2C_SCLK_PIN_INDEX] = I2C_PIN_DM_STRONG;
 570:Generated_Source\PSoC4/I2C.c **** 
 571:Generated_Source\PSoC4/I2C.c ****             #if (I2C_SS0_PIN)
 572:Generated_Source\PSoC4/I2C.c ****                 hsiomSel [I2C_SS0_PIN_INDEX] = I2C_SS0_HSIOM_SEL_SPI;
 573:Generated_Source\PSoC4/I2C.c ****                 pinsDm   [I2C_SS0_PIN_INDEX] = I2C_PIN_DM_STRONG;
 574:Generated_Source\PSoC4/I2C.c ****                 pinsInBuf |= I2C_SS0_PIN_MASK;
 575:Generated_Source\PSoC4/I2C.c ****             #endif /* (I2C_SS0_PIN) */
 576:Generated_Source\PSoC4/I2C.c **** 
 577:Generated_Source\PSoC4/I2C.c ****             #if (I2C_SS1_PIN)
 578:Generated_Source\PSoC4/I2C.c ****                 hsiomSel [I2C_SS1_PIN_INDEX] = I2C_SS1_HSIOM_SEL_SPI;
 579:Generated_Source\PSoC4/I2C.c ****                 pinsDm   [I2C_SS1_PIN_INDEX] = I2C_PIN_DM_STRONG;
 580:Generated_Source\PSoC4/I2C.c ****                 pinsInBuf |= I2C_SS1_PIN_MASK;
 581:Generated_Source\PSoC4/I2C.c ****             #endif /* (I2C_SS1_PIN) */
 582:Generated_Source\PSoC4/I2C.c **** 
 583:Generated_Source\PSoC4/I2C.c ****             #if (I2C_SS2_PIN)
 584:Generated_Source\PSoC4/I2C.c ****                 hsiomSel [I2C_SS2_PIN_INDEX] = I2C_SS2_HSIOM_SEL_SPI;
 585:Generated_Source\PSoC4/I2C.c ****                 pinsDm   [I2C_SS2_PIN_INDEX] = I2C_PIN_DM_STRONG;
 586:Generated_Source\PSoC4/I2C.c ****                 pinsInBuf |= I2C_SS2_PIN_MASK;
 587:Generated_Source\PSoC4/I2C.c ****             #endif /* (I2C_SS2_PIN) */
 588:Generated_Source\PSoC4/I2C.c **** 
 589:Generated_Source\PSoC4/I2C.c ****             #if (I2C_SS3_PIN)
 590:Generated_Source\PSoC4/I2C.c ****                 hsiomSel [I2C_SS3_PIN_INDEX] = I2C_SS3_HSIOM_SEL_SPI;
 591:Generated_Source\PSoC4/I2C.c ****                 pinsDm   [I2C_SS3_PIN_INDEX] = I2C_PIN_DM_STRONG;
 592:Generated_Source\PSoC4/I2C.c ****                 pinsInBuf |= I2C_SS3_PIN_MASK;
 593:Generated_Source\PSoC4/I2C.c ****             #endif /* (I2C_SS3_PIN) */
 594:Generated_Source\PSoC4/I2C.c **** 
 595:Generated_Source\PSoC4/I2C.c ****                 /* Disable input buffers */
 596:Generated_Source\PSoC4/I2C.c ****             #if (I2C_RX_SCL_MOSI_PIN)
 597:Generated_Source\PSoC4/I2C.c ****                 pinsInBuf |= I2C_RX_SCL_MOSI_PIN_MASK;
 598:Generated_Source\PSoC4/I2C.c ****             #elif (I2C_RX_WAKE_SCL_MOSI_PIN)
 599:Generated_Source\PSoC4/I2C.c ****                 pinsInBuf |= I2C_RX_WAKE_SCL_MOSI_PIN_MASK;
 600:Generated_Source\PSoC4/I2C.c ****             #else
 601:Generated_Source\PSoC4/I2C.c ****             #endif /* (I2C_RX_SCL_MOSI_PIN) */
 602:Generated_Source\PSoC4/I2C.c **** 
ARM GAS  C:\Users\jagumiel\AppData\Local\Temp\cc5sCiX0.s 			page 18


 603:Generated_Source\PSoC4/I2C.c ****             #if (I2C_SCLK_PIN)
 604:Generated_Source\PSoC4/I2C.c ****                 pinsInBuf |= I2C_SCLK_PIN_MASK;
 605:Generated_Source\PSoC4/I2C.c ****             #endif /* (I2C_SCLK_PIN) */
 606:Generated_Source\PSoC4/I2C.c ****             }
 607:Generated_Source\PSoC4/I2C.c ****         }
 608:Generated_Source\PSoC4/I2C.c ****         else /* UART */
 609:Generated_Source\PSoC4/I2C.c ****         {
 610:Generated_Source\PSoC4/I2C.c ****             if (I2C_UART_MODE_SMARTCARD == subMode)
 611:Generated_Source\PSoC4/I2C.c ****             {
 612:Generated_Source\PSoC4/I2C.c ****                 /* SmartCard */
 613:Generated_Source\PSoC4/I2C.c ****             #if (I2C_TX_SDA_MISO_PIN)
 614:Generated_Source\PSoC4/I2C.c ****                 hsiomSel[I2C_TX_SDA_MISO_PIN_INDEX] = I2C_TX_SDA_MISO_HSIOM_SEL_UART;
 615:Generated_Source\PSoC4/I2C.c ****                 pinsDm  [I2C_TX_SDA_MISO_PIN_INDEX] = I2C_PIN_DM_OD_LO;
 616:Generated_Source\PSoC4/I2C.c ****             #endif /* (I2C_TX_SDA_MISO_PIN) */
 617:Generated_Source\PSoC4/I2C.c ****             }
 618:Generated_Source\PSoC4/I2C.c ****             else /* Standard or IrDA */
 619:Generated_Source\PSoC4/I2C.c ****             {
 620:Generated_Source\PSoC4/I2C.c ****                 if (0u != (I2C_UART_RX_PIN_ENABLE & uartEnableMask))
 621:Generated_Source\PSoC4/I2C.c ****                 {
 622:Generated_Source\PSoC4/I2C.c ****                 #if (I2C_RX_SCL_MOSI_PIN)
 623:Generated_Source\PSoC4/I2C.c ****                     hsiomSel[I2C_RX_SCL_MOSI_PIN_INDEX] = I2C_RX_SCL_MOSI_HSIOM_SEL_UART;
 624:Generated_Source\PSoC4/I2C.c ****                     pinsDm  [I2C_RX_SCL_MOSI_PIN_INDEX] = I2C_PIN_DM_DIG_HIZ;
 625:Generated_Source\PSoC4/I2C.c ****                 #elif (I2C_RX_WAKE_SCL_MOSI_PIN)
 626:Generated_Source\PSoC4/I2C.c ****                     hsiomSel[I2C_RX_WAKE_SCL_MOSI_PIN_INDEX] = I2C_RX_WAKE_SCL_MOSI_HSIOM_SEL_UART;
 627:Generated_Source\PSoC4/I2C.c ****                     pinsDm  [I2C_RX_WAKE_SCL_MOSI_PIN_INDEX] = I2C_PIN_DM_DIG_HIZ;
 628:Generated_Source\PSoC4/I2C.c ****                 #else
 629:Generated_Source\PSoC4/I2C.c ****                 #endif /* (I2C_RX_SCL_MOSI_PIN) */
 630:Generated_Source\PSoC4/I2C.c ****                 }
 631:Generated_Source\PSoC4/I2C.c **** 
 632:Generated_Source\PSoC4/I2C.c ****                 if (0u != (I2C_UART_TX_PIN_ENABLE & uartEnableMask))
 633:Generated_Source\PSoC4/I2C.c ****                 {
 634:Generated_Source\PSoC4/I2C.c ****                 #if (I2C_TX_SDA_MISO_PIN)
 635:Generated_Source\PSoC4/I2C.c ****                     hsiomSel[I2C_TX_SDA_MISO_PIN_INDEX] = I2C_TX_SDA_MISO_HSIOM_SEL_UART;
 636:Generated_Source\PSoC4/I2C.c ****                     pinsDm  [I2C_TX_SDA_MISO_PIN_INDEX] = I2C_PIN_DM_STRONG;
 637:Generated_Source\PSoC4/I2C.c ****                     
 638:Generated_Source\PSoC4/I2C.c ****                     /* Disable input buffer */
 639:Generated_Source\PSoC4/I2C.c ****                     pinsInBuf |= I2C_TX_SDA_MISO_PIN_MASK;
 640:Generated_Source\PSoC4/I2C.c ****                 #endif /* (I2C_TX_SDA_MISO_PIN) */
 641:Generated_Source\PSoC4/I2C.c ****                 }
 642:Generated_Source\PSoC4/I2C.c **** 
 643:Generated_Source\PSoC4/I2C.c ****             #if !(I2C_CY_SCBIP_V0 || I2C_CY_SCBIP_V1)
 644:Generated_Source\PSoC4/I2C.c ****                 if (I2C_UART_MODE_STD == subMode)
 645:Generated_Source\PSoC4/I2C.c ****                 {
 646:Generated_Source\PSoC4/I2C.c ****                     if (0u != (I2C_UART_CTS_PIN_ENABLE & uartEnableMask))
 647:Generated_Source\PSoC4/I2C.c ****                     {
 648:Generated_Source\PSoC4/I2C.c ****                         /* CTS input is multiplexed with SCLK */
 649:Generated_Source\PSoC4/I2C.c ****                     #if (I2C_SCLK_PIN)
 650:Generated_Source\PSoC4/I2C.c ****                         hsiomSel[I2C_SCLK_PIN_INDEX] = I2C_SCLK_HSIOM_SEL_UART;
 651:Generated_Source\PSoC4/I2C.c ****                         pinsDm  [I2C_SCLK_PIN_INDEX] = I2C_PIN_DM_DIG_HIZ;
 652:Generated_Source\PSoC4/I2C.c ****                     #endif /* (I2C_SCLK_PIN) */
 653:Generated_Source\PSoC4/I2C.c ****                     }
 654:Generated_Source\PSoC4/I2C.c **** 
 655:Generated_Source\PSoC4/I2C.c ****                     if (0u != (I2C_UART_RTS_PIN_ENABLE & uartEnableMask))
 656:Generated_Source\PSoC4/I2C.c ****                     {
 657:Generated_Source\PSoC4/I2C.c ****                         /* RTS output is multiplexed with SS0 */
 658:Generated_Source\PSoC4/I2C.c ****                     #if (I2C_SS0_PIN)
 659:Generated_Source\PSoC4/I2C.c ****                         hsiomSel[I2C_SS0_PIN_INDEX] = I2C_SS0_HSIOM_SEL_UART;
ARM GAS  C:\Users\jagumiel\AppData\Local\Temp\cc5sCiX0.s 			page 19


 660:Generated_Source\PSoC4/I2C.c ****                         pinsDm  [I2C_SS0_PIN_INDEX] = I2C_PIN_DM_STRONG;
 661:Generated_Source\PSoC4/I2C.c ****                         
 662:Generated_Source\PSoC4/I2C.c ****                         /* Disable input buffer */
 663:Generated_Source\PSoC4/I2C.c ****                         pinsInBuf |= I2C_SS0_PIN_MASK;
 664:Generated_Source\PSoC4/I2C.c ****                     #endif /* (I2C_SS0_PIN) */
 665:Generated_Source\PSoC4/I2C.c ****                     }
 666:Generated_Source\PSoC4/I2C.c ****                 }
 667:Generated_Source\PSoC4/I2C.c ****             #endif /* !(I2C_CY_SCBIP_V0 || I2C_CY_SCBIP_V1) */
 668:Generated_Source\PSoC4/I2C.c ****             }
 669:Generated_Source\PSoC4/I2C.c ****         }
 670:Generated_Source\PSoC4/I2C.c ****     #endif /* (!I2C_CY_SCBIP_V1) */
 671:Generated_Source\PSoC4/I2C.c **** 
 672:Generated_Source\PSoC4/I2C.c ****     /* Configure pins: set HSIOM, DM and InputBufEnable */
 673:Generated_Source\PSoC4/I2C.c ****     /* Note: the DR register settings do not effect the pin output if HSIOM is other than GPIO */
 674:Generated_Source\PSoC4/I2C.c **** 
 675:Generated_Source\PSoC4/I2C.c ****     #if (I2C_RX_SCL_MOSI_PIN)
 676:Generated_Source\PSoC4/I2C.c ****         I2C_SET_HSIOM_SEL(I2C_RX_SCL_MOSI_HSIOM_REG,
 677:Generated_Source\PSoC4/I2C.c ****                                        I2C_RX_SCL_MOSI_HSIOM_MASK,
 678:Generated_Source\PSoC4/I2C.c ****                                        I2C_RX_SCL_MOSI_HSIOM_POS,
 679:Generated_Source\PSoC4/I2C.c ****                                         hsiomSel[I2C_RX_SCL_MOSI_PIN_INDEX]);
 680:Generated_Source\PSoC4/I2C.c **** 
 681:Generated_Source\PSoC4/I2C.c ****         I2C_uart_rx_i2c_scl_spi_mosi_SetDriveMode((uint8) pinsDm[I2C_RX_SCL_MOSI_PIN_INDEX]);
 682:Generated_Source\PSoC4/I2C.c **** 
 683:Generated_Source\PSoC4/I2C.c ****         #if (!I2C_CY_SCBIP_V1)
 684:Generated_Source\PSoC4/I2C.c ****             I2C_SET_INP_DIS(I2C_uart_rx_i2c_scl_spi_mosi_INP_DIS,
 685:Generated_Source\PSoC4/I2C.c ****                                          I2C_uart_rx_i2c_scl_spi_mosi_MASK,
 686:Generated_Source\PSoC4/I2C.c ****                                          (0u != (pinsInBuf & I2C_RX_SCL_MOSI_PIN_MASK)));
 687:Generated_Source\PSoC4/I2C.c ****         #endif /* (!I2C_CY_SCBIP_V1) */
 688:Generated_Source\PSoC4/I2C.c ****     
 689:Generated_Source\PSoC4/I2C.c ****     #elif (I2C_RX_WAKE_SCL_MOSI_PIN)
 690:Generated_Source\PSoC4/I2C.c ****         I2C_SET_HSIOM_SEL(I2C_RX_WAKE_SCL_MOSI_HSIOM_REG,
 691:Generated_Source\PSoC4/I2C.c ****                                        I2C_RX_WAKE_SCL_MOSI_HSIOM_MASK,
 692:Generated_Source\PSoC4/I2C.c ****                                        I2C_RX_WAKE_SCL_MOSI_HSIOM_POS,
 693:Generated_Source\PSoC4/I2C.c ****                                        hsiomSel[I2C_RX_WAKE_SCL_MOSI_PIN_INDEX]);
 694:Generated_Source\PSoC4/I2C.c **** 
 695:Generated_Source\PSoC4/I2C.c ****         I2C_uart_rx_wake_i2c_scl_spi_mosi_SetDriveMode((uint8)
 696:Generated_Source\PSoC4/I2C.c ****                                                                pinsDm[I2C_RX_WAKE_SCL_MOSI_PIN_INDE
 697:Generated_Source\PSoC4/I2C.c **** 
 698:Generated_Source\PSoC4/I2C.c ****         I2C_SET_INP_DIS(I2C_uart_rx_wake_i2c_scl_spi_mosi_INP_DIS,
 699:Generated_Source\PSoC4/I2C.c ****                                      I2C_uart_rx_wake_i2c_scl_spi_mosi_MASK,
 700:Generated_Source\PSoC4/I2C.c ****                                      (0u != (pinsInBuf & I2C_RX_WAKE_SCL_MOSI_PIN_MASK)));
 701:Generated_Source\PSoC4/I2C.c **** 
 702:Generated_Source\PSoC4/I2C.c ****          /* Set interrupt on falling edge */
 703:Generated_Source\PSoC4/I2C.c ****         I2C_SET_INCFG_TYPE(I2C_RX_WAKE_SCL_MOSI_INTCFG_REG,
 704:Generated_Source\PSoC4/I2C.c ****                                         I2C_RX_WAKE_SCL_MOSI_INTCFG_TYPE_MASK,
 705:Generated_Source\PSoC4/I2C.c ****                                         I2C_RX_WAKE_SCL_MOSI_INTCFG_TYPE_POS,
 706:Generated_Source\PSoC4/I2C.c ****                                         I2C_INTCFG_TYPE_FALLING_EDGE);
 707:Generated_Source\PSoC4/I2C.c ****     #else
 708:Generated_Source\PSoC4/I2C.c ****     #endif /* (I2C_RX_WAKE_SCL_MOSI_PIN) */
 709:Generated_Source\PSoC4/I2C.c **** 
 710:Generated_Source\PSoC4/I2C.c ****     #if (I2C_TX_SDA_MISO_PIN)
 711:Generated_Source\PSoC4/I2C.c ****         I2C_SET_HSIOM_SEL(I2C_TX_SDA_MISO_HSIOM_REG,
 712:Generated_Source\PSoC4/I2C.c ****                                        I2C_TX_SDA_MISO_HSIOM_MASK,
 713:Generated_Source\PSoC4/I2C.c ****                                        I2C_TX_SDA_MISO_HSIOM_POS,
 714:Generated_Source\PSoC4/I2C.c ****                                         hsiomSel[I2C_TX_SDA_MISO_PIN_INDEX]);
 715:Generated_Source\PSoC4/I2C.c **** 
 716:Generated_Source\PSoC4/I2C.c ****         I2C_uart_tx_i2c_sda_spi_miso_SetDriveMode((uint8) pinsDm[I2C_TX_SDA_MISO_PIN_INDEX]);
ARM GAS  C:\Users\jagumiel\AppData\Local\Temp\cc5sCiX0.s 			page 20


 717:Generated_Source\PSoC4/I2C.c **** 
 718:Generated_Source\PSoC4/I2C.c ****     #if (!I2C_CY_SCBIP_V1)
 719:Generated_Source\PSoC4/I2C.c ****         I2C_SET_INP_DIS(I2C_uart_tx_i2c_sda_spi_miso_INP_DIS,
 720:Generated_Source\PSoC4/I2C.c ****                                      I2C_uart_tx_i2c_sda_spi_miso_MASK,
 721:Generated_Source\PSoC4/I2C.c ****                                     (0u != (pinsInBuf & I2C_TX_SDA_MISO_PIN_MASK)));
 722:Generated_Source\PSoC4/I2C.c ****     #endif /* (!I2C_CY_SCBIP_V1) */
 723:Generated_Source\PSoC4/I2C.c ****     #endif /* (I2C_RX_SCL_MOSI_PIN) */
 724:Generated_Source\PSoC4/I2C.c **** 
 725:Generated_Source\PSoC4/I2C.c ****     #if (I2C_SCLK_PIN)
 726:Generated_Source\PSoC4/I2C.c ****         I2C_SET_HSIOM_SEL(I2C_SCLK_HSIOM_REG,
 727:Generated_Source\PSoC4/I2C.c ****                                        I2C_SCLK_HSIOM_MASK,
 728:Generated_Source\PSoC4/I2C.c ****                                        I2C_SCLK_HSIOM_POS,
 729:Generated_Source\PSoC4/I2C.c ****                                        hsiomSel[I2C_SCLK_PIN_INDEX]);
 730:Generated_Source\PSoC4/I2C.c **** 
 731:Generated_Source\PSoC4/I2C.c ****         I2C_spi_sclk_SetDriveMode((uint8) pinsDm[I2C_SCLK_PIN_INDEX]);
 732:Generated_Source\PSoC4/I2C.c **** 
 733:Generated_Source\PSoC4/I2C.c ****         I2C_SET_INP_DIS(I2C_spi_sclk_INP_DIS,
 734:Generated_Source\PSoC4/I2C.c ****                                      I2C_spi_sclk_MASK,
 735:Generated_Source\PSoC4/I2C.c ****                                      (0u != (pinsInBuf & I2C_SCLK_PIN_MASK)));
 736:Generated_Source\PSoC4/I2C.c ****     #endif /* (I2C_SCLK_PIN) */
 737:Generated_Source\PSoC4/I2C.c **** 
 738:Generated_Source\PSoC4/I2C.c ****     #if (I2C_SS0_PIN)
 739:Generated_Source\PSoC4/I2C.c ****         I2C_SET_HSIOM_SEL(I2C_SS0_HSIOM_REG,
 740:Generated_Source\PSoC4/I2C.c ****                                        I2C_SS0_HSIOM_MASK,
 741:Generated_Source\PSoC4/I2C.c ****                                        I2C_SS0_HSIOM_POS,
 742:Generated_Source\PSoC4/I2C.c ****                                        hsiomSel[I2C_SS0_PIN_INDEX]);
 743:Generated_Source\PSoC4/I2C.c **** 
 744:Generated_Source\PSoC4/I2C.c ****         I2C_spi_ss0_SetDriveMode((uint8) pinsDm[I2C_SS0_PIN_INDEX]);
 745:Generated_Source\PSoC4/I2C.c **** 
 746:Generated_Source\PSoC4/I2C.c ****         I2C_SET_INP_DIS(I2C_spi_ss0_INP_DIS,
 747:Generated_Source\PSoC4/I2C.c ****                                      I2C_spi_ss0_MASK,
 748:Generated_Source\PSoC4/I2C.c ****                                      (0u != (pinsInBuf & I2C_SS0_PIN_MASK)));
 749:Generated_Source\PSoC4/I2C.c ****     #endif /* (I2C_SS0_PIN) */
 750:Generated_Source\PSoC4/I2C.c **** 
 751:Generated_Source\PSoC4/I2C.c ****     #if (I2C_SS1_PIN)
 752:Generated_Source\PSoC4/I2C.c ****         I2C_SET_HSIOM_SEL(I2C_SS1_HSIOM_REG,
 753:Generated_Source\PSoC4/I2C.c ****                                        I2C_SS1_HSIOM_MASK,
 754:Generated_Source\PSoC4/I2C.c ****                                        I2C_SS1_HSIOM_POS,
 755:Generated_Source\PSoC4/I2C.c ****                                        hsiomSel[I2C_SS1_PIN_INDEX]);
 756:Generated_Source\PSoC4/I2C.c **** 
 757:Generated_Source\PSoC4/I2C.c ****         I2C_spi_ss1_SetDriveMode((uint8) pinsDm[I2C_SS1_PIN_INDEX]);
 758:Generated_Source\PSoC4/I2C.c **** 
 759:Generated_Source\PSoC4/I2C.c ****         I2C_SET_INP_DIS(I2C_spi_ss1_INP_DIS,
 760:Generated_Source\PSoC4/I2C.c ****                                      I2C_spi_ss1_MASK,
 761:Generated_Source\PSoC4/I2C.c ****                                      (0u != (pinsInBuf & I2C_SS1_PIN_MASK)));
 762:Generated_Source\PSoC4/I2C.c ****     #endif /* (I2C_SS1_PIN) */
 763:Generated_Source\PSoC4/I2C.c **** 
 764:Generated_Source\PSoC4/I2C.c ****     #if (I2C_SS2_PIN)
 765:Generated_Source\PSoC4/I2C.c ****         I2C_SET_HSIOM_SEL(I2C_SS2_HSIOM_REG,
 766:Generated_Source\PSoC4/I2C.c ****                                        I2C_SS2_HSIOM_MASK,
 767:Generated_Source\PSoC4/I2C.c ****                                        I2C_SS2_HSIOM_POS,
 768:Generated_Source\PSoC4/I2C.c ****                                        hsiomSel[I2C_SS2_PIN_INDEX]);
 769:Generated_Source\PSoC4/I2C.c **** 
 770:Generated_Source\PSoC4/I2C.c ****         I2C_spi_ss2_SetDriveMode((uint8) pinsDm[I2C_SS2_PIN_INDEX]);
 771:Generated_Source\PSoC4/I2C.c **** 
 772:Generated_Source\PSoC4/I2C.c ****         I2C_SET_INP_DIS(I2C_spi_ss2_INP_DIS,
 773:Generated_Source\PSoC4/I2C.c ****                                      I2C_spi_ss2_MASK,
ARM GAS  C:\Users\jagumiel\AppData\Local\Temp\cc5sCiX0.s 			page 21


 774:Generated_Source\PSoC4/I2C.c ****                                      (0u != (pinsInBuf & I2C_SS2_PIN_MASK)));
 775:Generated_Source\PSoC4/I2C.c ****     #endif /* (I2C_SS2_PIN) */
 776:Generated_Source\PSoC4/I2C.c **** 
 777:Generated_Source\PSoC4/I2C.c ****     #if (I2C_SS3_PIN)
 778:Generated_Source\PSoC4/I2C.c ****         I2C_SET_HSIOM_SEL(I2C_SS3_HSIOM_REG,
 779:Generated_Source\PSoC4/I2C.c ****                                        I2C_SS3_HSIOM_MASK,
 780:Generated_Source\PSoC4/I2C.c ****                                        I2C_SS3_HSIOM_POS,
 781:Generated_Source\PSoC4/I2C.c ****                                        hsiomSel[I2C_SS3_PIN_INDEX]);
 782:Generated_Source\PSoC4/I2C.c **** 
 783:Generated_Source\PSoC4/I2C.c ****         I2C_spi_ss3_SetDriveMode((uint8) pinsDm[I2C_SS3_PIN_INDEX]);
 784:Generated_Source\PSoC4/I2C.c **** 
 785:Generated_Source\PSoC4/I2C.c ****         I2C_SET_INP_DIS(I2C_spi_ss3_INP_DIS,
 786:Generated_Source\PSoC4/I2C.c ****                                      I2C_spi_ss3_MASK,
 787:Generated_Source\PSoC4/I2C.c ****                                      (0u != (pinsInBuf & I2C_SS3_PIN_MASK)));
 788:Generated_Source\PSoC4/I2C.c ****     #endif /* (I2C_SS3_PIN) */
 789:Generated_Source\PSoC4/I2C.c ****     }
 790:Generated_Source\PSoC4/I2C.c **** 
 791:Generated_Source\PSoC4/I2C.c **** #endif /* (I2C_SCB_MODE_UNCONFIG_CONST_CFG) */
 792:Generated_Source\PSoC4/I2C.c **** 
 793:Generated_Source\PSoC4/I2C.c **** 
 794:Generated_Source\PSoC4/I2C.c **** #if (I2C_CY_SCBIP_V0 || I2C_CY_SCBIP_V1)
 795:Generated_Source\PSoC4/I2C.c ****     /*******************************************************************************
 796:Generated_Source\PSoC4/I2C.c ****     * Function Name: I2C_I2CSlaveNackGeneration
 797:Generated_Source\PSoC4/I2C.c ****     ****************************************************************************//**
 798:Generated_Source\PSoC4/I2C.c ****     *
 799:Generated_Source\PSoC4/I2C.c ****     *  Sets command to generate NACK to the address or data.
 800:Generated_Source\PSoC4/I2C.c ****     *
 801:Generated_Source\PSoC4/I2C.c ****     *******************************************************************************/
 802:Generated_Source\PSoC4/I2C.c ****     void I2C_I2CSlaveNackGeneration(void)
 803:Generated_Source\PSoC4/I2C.c ****     {
 333              		.loc 1 803 0
 334              		.cfi_startproc
 335              		@ args = 0, pretend = 0, frame = 0
 336              		@ frame_needed = 0, uses_anonymous_args = 0
 337              		@ link register save eliminated.
 804:Generated_Source\PSoC4/I2C.c ****         /* Check for EC_AM toggle condition: EC_AM and clock stretching for address are enabled */
 805:Generated_Source\PSoC4/I2C.c ****         if ((0u != (I2C_CTRL_REG & I2C_CTRL_EC_AM_MODE)) &&
 338              		.loc 1 805 0
 339 0000 0A4B     		ldr	r3, .L25
 340 0002 1B68     		ldr	r3, [r3]
 341 0004 DB05     		lsls	r3, r3, #23
 342 0006 0DD5     		bpl	.L24
 806:Generated_Source\PSoC4/I2C.c ****             (0u == (I2C_I2C_CTRL_REG & I2C_I2C_CTRL_S_NOT_READY_ADDR_NACK)))
 343              		.loc 1 806 0 discriminator 1
 344 0008 094B     		ldr	r3, .L25+4
 345 000a 1B68     		ldr	r3, [r3]
 805:Generated_Source\PSoC4/I2C.c ****             (0u == (I2C_I2C_CTRL_REG & I2C_I2C_CTRL_S_NOT_READY_ADDR_NACK)))
 346              		.loc 1 805 0 discriminator 1
 347 000c 5B04     		lsls	r3, r3, #17
 348 000e 09D4     		bmi	.L24
 807:Generated_Source\PSoC4/I2C.c ****         {
 808:Generated_Source\PSoC4/I2C.c ****             /* Toggle EC_AM before NACK generation */
 809:Generated_Source\PSoC4/I2C.c ****             I2C_CTRL_REG &= ~I2C_CTRL_EC_AM_MODE;
 349              		.loc 1 809 0
 350 0010 064B     		ldr	r3, .L25
 351 0012 1968     		ldr	r1, [r3]
 352 0014 074A     		ldr	r2, .L25+8
ARM GAS  C:\Users\jagumiel\AppData\Local\Temp\cc5sCiX0.s 			page 22


 353 0016 0A40     		ands	r2, r1
 354 0018 1A60     		str	r2, [r3]
 810:Generated_Source\PSoC4/I2C.c ****             I2C_CTRL_REG |=  I2C_CTRL_EC_AM_MODE;
 355              		.loc 1 810 0
 356 001a 1A68     		ldr	r2, [r3]
 357 001c 8021     		movs	r1, #128
 358 001e 4900     		lsls	r1, r1, #1
 359 0020 0A43     		orrs	r2, r1
 360 0022 1A60     		str	r2, [r3]
 361              	.L24:
 811:Generated_Source\PSoC4/I2C.c ****         }
 812:Generated_Source\PSoC4/I2C.c **** 
 813:Generated_Source\PSoC4/I2C.c ****         I2C_I2C_SLAVE_CMD_REG = I2C_I2C_SLAVE_CMD_S_NACK;
 362              		.loc 1 813 0
 363 0024 0222     		movs	r2, #2
 364 0026 044B     		ldr	r3, .L25+12
 365 0028 1A60     		str	r2, [r3]
 814:Generated_Source\PSoC4/I2C.c ****     }
 366              		.loc 1 814 0
 367              		@ sp needed
 368 002a 7047     		bx	lr
 369              	.L26:
 370              		.align	2
 371              	.L25:
 372 002c 00000740 		.word	1074200576
 373 0030 60000740 		.word	1074200672
 374 0034 FFFEFFFF 		.word	-257
 375 0038 6C000740 		.word	1074200684
 376              		.cfi_endproc
 377              	.LFE10:
 378              		.size	I2C_I2CSlaveNackGeneration, .-I2C_I2CSlaveNackGeneration
 379              		.global	I2C_customIntrHandler
 380              		.global	I2C_initVar
 381              		.bss
 382              		.align	2
 383              		.set	.LANCHOR0,. + 0
 384              		.type	I2C_initVar, %object
 385              		.size	I2C_initVar, 1
 386              	I2C_initVar:
 387 0000 00       		.space	1
 388 0001 000000   		.space	3
 389              		.type	I2C_customIntrHandler, %object
 390              		.size	I2C_customIntrHandler, 4
 391              	I2C_customIntrHandler:
 392 0004 00000000 		.space	4
 393              		.text
 394              	.Letext0:
 395              		.file 2 "Generated_Source\\PSoC4/cytypes.h"
 396              		.file 3 "Generated_Source\\PSoC4/CyLib.h"
 397              		.file 4 "Generated_Source\\PSoC4\\I2C_EZI2C_PVT.h"