ARM GAS  C:\Users\jagumiel\AppData\Local\Temp\ccK6w6Mx.s 			page 1


   1              		.syntax unified
   2              		.cpu cortex-m0
   3              		.fpu softvfp
   4              		.eabi_attribute 20, 1
   5              		.eabi_attribute 21, 1
   6              		.eabi_attribute 23, 3
   7              		.eabi_attribute 24, 1
   8              		.eabi_attribute 25, 1
   9              		.eabi_attribute 26, 1
  10              		.eabi_attribute 30, 1
  11              		.eabi_attribute 34, 0
  12              		.eabi_attribute 18, 4
  13              		.thumb
  14              		.syntax unified
  15              		.file	"I2C_EZI2C_INT.c"
  16              		.text
  17              	.Ltext0:
  18              		.cfi_sections	.debug_frame
  19              		.section	.text.I2C_EZI2C_STRETCH_ISR,"ax",%progbits
  20              		.align	2
  21              		.global	I2C_EZI2C_STRETCH_ISR
  22              		.code	16
  23              		.thumb_func
  24              		.type	I2C_EZI2C_STRETCH_ISR, %function
  25              	I2C_EZI2C_STRETCH_ISR:
  26              	.LFB0:
  27              		.file 1 "Generated_Source\\PSoC4\\I2C_EZI2C_INT.c"
   1:Generated_Source\PSoC4/I2C_EZI2C_INT.c **** /***************************************************************************//**
   2:Generated_Source\PSoC4/I2C_EZI2C_INT.c **** * \file I2C_EZI2C_INT.c
   3:Generated_Source\PSoC4/I2C_EZI2C_INT.c **** * \version 4.0
   4:Generated_Source\PSoC4/I2C_EZI2C_INT.c **** *
   5:Generated_Source\PSoC4/I2C_EZI2C_INT.c **** * \brief
   6:Generated_Source\PSoC4/I2C_EZI2C_INT.c **** *  This file provides the source code to the Interrupt Service Routine for
   7:Generated_Source\PSoC4/I2C_EZI2C_INT.c **** *  the SCB Component in EZI2C mode.
   8:Generated_Source\PSoC4/I2C_EZI2C_INT.c **** *
   9:Generated_Source\PSoC4/I2C_EZI2C_INT.c **** * Note:
  10:Generated_Source\PSoC4/I2C_EZI2C_INT.c **** *
  11:Generated_Source\PSoC4/I2C_EZI2C_INT.c **** ********************************************************************************
  12:Generated_Source\PSoC4/I2C_EZI2C_INT.c **** * \copyright
  13:Generated_Source\PSoC4/I2C_EZI2C_INT.c **** * Copyright 2013-2017, Cypress Semiconductor Corporation.  All rights reserved.
  14:Generated_Source\PSoC4/I2C_EZI2C_INT.c **** * You may use this file only in accordance with the license, terms, conditions,
  15:Generated_Source\PSoC4/I2C_EZI2C_INT.c **** * disclaimers, and limitations in the end user license agreement accompanying
  16:Generated_Source\PSoC4/I2C_EZI2C_INT.c **** * the software package with which this file was provided.
  17:Generated_Source\PSoC4/I2C_EZI2C_INT.c **** *******************************************************************************/
  18:Generated_Source\PSoC4/I2C_EZI2C_INT.c **** 
  19:Generated_Source\PSoC4/I2C_EZI2C_INT.c **** #include "I2C_PVT.h"
  20:Generated_Source\PSoC4/I2C_EZI2C_INT.c **** #include "I2C_EZI2C_PVT.h"
  21:Generated_Source\PSoC4/I2C_EZI2C_INT.c **** #include "cyapicallbacks.h"
  22:Generated_Source\PSoC4/I2C_EZI2C_INT.c **** 
  23:Generated_Source\PSoC4/I2C_EZI2C_INT.c **** #if(I2C_EZI2C_SCL_STRETCH_ENABLE_CONST)
  24:Generated_Source\PSoC4/I2C_EZI2C_INT.c ****     /*******************************************************************************
  25:Generated_Source\PSoC4/I2C_EZI2C_INT.c ****     * Function Name: I2C_EZI2C_STRETCH_ISR
  26:Generated_Source\PSoC4/I2C_EZI2C_INT.c ****     ****************************************************************************//**
  27:Generated_Source\PSoC4/I2C_EZI2C_INT.c ****     *
  28:Generated_Source\PSoC4/I2C_EZI2C_INT.c ****     *  Handles the Interrupt Service Routine for the SCB EZI2C mode.
  29:Generated_Source\PSoC4/I2C_EZI2C_INT.c ****     *  The clock stretching is used during operation.
  30:Generated_Source\PSoC4/I2C_EZI2C_INT.c ****     *
ARM GAS  C:\Users\jagumiel\AppData\Local\Temp\ccK6w6Mx.s 			page 2


  31:Generated_Source\PSoC4/I2C_EZI2C_INT.c ****     *******************************************************************************/
  32:Generated_Source\PSoC4/I2C_EZI2C_INT.c ****     CY_ISR_PROTO(I2C_EZI2C_STRETCH_ISR)
  33:Generated_Source\PSoC4/I2C_EZI2C_INT.c ****     {
  28              		.loc 1 33 0
  29              		.cfi_startproc
  30              		@ args = 0, pretend = 0, frame = 0
  31              		@ frame_needed = 0, uses_anonymous_args = 0
  32 0000 70B5     		push	{r4, r5, r6, lr}
  33              		.cfi_def_cfa_offset 16
  34              		.cfi_offset 4, -16
  35              		.cfi_offset 5, -12
  36              		.cfi_offset 6, -8
  37              		.cfi_offset 14, -4
  34:Generated_Source\PSoC4/I2C_EZI2C_INT.c ****         static uint16 locBufSize;
  35:Generated_Source\PSoC4/I2C_EZI2C_INT.c ****         uint32 locIndex;
  36:Generated_Source\PSoC4/I2C_EZI2C_INT.c ****         uint32 locStatus;
  37:Generated_Source\PSoC4/I2C_EZI2C_INT.c **** 
  38:Generated_Source\PSoC4/I2C_EZI2C_INT.c ****         uint32 endTransfer;
  39:Generated_Source\PSoC4/I2C_EZI2C_INT.c ****         uint32 fifoIndex;
  40:Generated_Source\PSoC4/I2C_EZI2C_INT.c ****         uint32 locByte;
  41:Generated_Source\PSoC4/I2C_EZI2C_INT.c **** 
  42:Generated_Source\PSoC4/I2C_EZI2C_INT.c ****         uint32 locIntrCause;
  43:Generated_Source\PSoC4/I2C_EZI2C_INT.c ****         uint32 locIntrSlave;
  44:Generated_Source\PSoC4/I2C_EZI2C_INT.c **** 
  45:Generated_Source\PSoC4/I2C_EZI2C_INT.c ****     #ifdef I2C_EZI2C_STRETCH_ISR_ENTRY_CALLBACK
  46:Generated_Source\PSoC4/I2C_EZI2C_INT.c ****         I2C_EZI2C_STRETCH_ISR_EntryCallback();
  47:Generated_Source\PSoC4/I2C_EZI2C_INT.c ****     #endif /* I2C_EZI2C_STRETCH_ISR_ENTRY_CALLBACK */
  48:Generated_Source\PSoC4/I2C_EZI2C_INT.c **** 
  49:Generated_Source\PSoC4/I2C_EZI2C_INT.c ****     #if(I2C_SECONDARY_ADDRESS_ENABLE_CONST)
  50:Generated_Source\PSoC4/I2C_EZI2C_INT.c ****         /* Variable intended to be used with either buffer */
  51:Generated_Source\PSoC4/I2C_EZI2C_INT.c ****         static volatile uint8 * I2C_dataBuffer; /* Pointer to data buffer              */
  52:Generated_Source\PSoC4/I2C_EZI2C_INT.c ****         static uint16 I2C_bufSizeBuf;           /* Size of buffer in bytes             */
  53:Generated_Source\PSoC4/I2C_EZI2C_INT.c ****         static uint16 I2C_protectBuf;           /* Start index of write protected area */
  54:Generated_Source\PSoC4/I2C_EZI2C_INT.c **** 
  55:Generated_Source\PSoC4/I2C_EZI2C_INT.c ****         static uint8 activeAddress;
  56:Generated_Source\PSoC4/I2C_EZI2C_INT.c ****         uint32 ackResponse;
  57:Generated_Source\PSoC4/I2C_EZI2C_INT.c **** 
  58:Generated_Source\PSoC4/I2C_EZI2C_INT.c ****         ackResponse = I2C_EZI2C_ACK_RECEIVED_ADDRESS;
  59:Generated_Source\PSoC4/I2C_EZI2C_INT.c ****     #endif /* (I2C_SECONDARY_ADDRESS_ENABLE_CONST) */
  60:Generated_Source\PSoC4/I2C_EZI2C_INT.c **** 
  61:Generated_Source\PSoC4/I2C_EZI2C_INT.c ****     #if !defined (CY_REMOVE_I2C_CUSTOM_INTR_HANDLER)
  62:Generated_Source\PSoC4/I2C_EZI2C_INT.c ****         if(NULL != I2C_customIntrHandler)
  38              		.loc 1 62 0
  39 0002 AC4B     		ldr	r3, .L38
  40 0004 1B68     		ldr	r3, [r3]
  41 0006 002B     		cmp	r3, #0
  42 0008 00D0     		beq	.L2
  63:Generated_Source\PSoC4/I2C_EZI2C_INT.c ****         {
  64:Generated_Source\PSoC4/I2C_EZI2C_INT.c ****             I2C_customIntrHandler();
  43              		.loc 1 64 0
  44 000a 9847     		blx	r3
  45              	.LVL0:
  46              	.L2:
  65:Generated_Source\PSoC4/I2C_EZI2C_INT.c ****         }
  66:Generated_Source\PSoC4/I2C_EZI2C_INT.c ****     #else
  67:Generated_Source\PSoC4/I2C_EZI2C_INT.c ****         CY_I2C_CUSTOM_INTR_HANDLER();
  68:Generated_Source\PSoC4/I2C_EZI2C_INT.c ****     #endif /* !defined (CY_REMOVE_I2C_CUSTOM_INTR_HANDLER) */
ARM GAS  C:\Users\jagumiel\AppData\Local\Temp\ccK6w6Mx.s 			page 3


  69:Generated_Source\PSoC4/I2C_EZI2C_INT.c **** 
  70:Generated_Source\PSoC4/I2C_EZI2C_INT.c ****         /* Make local copy of global variable */
  71:Generated_Source\PSoC4/I2C_EZI2C_INT.c ****         locIndex = I2C_EZI2C_GET_INDEX(activeAddress);
  47              		.loc 1 71 0
  48 000c AA4B     		ldr	r3, .L38+4
  49 000e 1C88     		ldrh	r4, [r3]
  50              	.LVL1:
  72:Generated_Source\PSoC4/I2C_EZI2C_INT.c **** 
  73:Generated_Source\PSoC4/I2C_EZI2C_INT.c ****         /* Get interrupt sources */
  74:Generated_Source\PSoC4/I2C_EZI2C_INT.c ****         locIntrSlave = I2C_GetSlaveInterruptSource();
  51              		.loc 1 74 0
  52 0010 AA4B     		ldr	r3, .L38+8
  53 0012 1D68     		ldr	r5, [r3]
  54              	.LVL2:
  75:Generated_Source\PSoC4/I2C_EZI2C_INT.c ****         locIntrCause = I2C_GetInterruptCause();
  55              		.loc 1 75 0
  56 0014 AA4B     		ldr	r3, .L38+12
  57 0016 1E68     		ldr	r6, [r3]
  58              	.LVL3:
  76:Generated_Source\PSoC4/I2C_EZI2C_INT.c **** 
  77:Generated_Source\PSoC4/I2C_EZI2C_INT.c ****         /* INTR_SLAVE.I2C_ARB_LOST and INTR_SLAVE_I2C.BUS_ERROR */
  78:Generated_Source\PSoC4/I2C_EZI2C_INT.c ****         /* Handles errors on the bus. There are cases when both bits are set.
  79:Generated_Source\PSoC4/I2C_EZI2C_INT.c ****         * The error recovery is common: re-enable the scb IP. The content of the RX FIFO is lost.
  80:Generated_Source\PSoC4/I2C_EZI2C_INT.c ****         */
  81:Generated_Source\PSoC4/I2C_EZI2C_INT.c ****         if(0u != (locIntrSlave & (I2C_INTR_SLAVE_I2C_ARB_LOST |
  59              		.loc 1 81 0
  60 0018 0223     		movs	r3, #2
  61 001a FF33     		adds	r3, r3, #255
  62 001c 1D42     		tst	r5, r3
  63 001e 42D0     		beq	.L3
  82:Generated_Source\PSoC4/I2C_EZI2C_INT.c ****                                   I2C_INTR_SLAVE_I2C_BUS_ERROR)))
  83:Generated_Source\PSoC4/I2C_EZI2C_INT.c ****         {
  84:Generated_Source\PSoC4/I2C_EZI2C_INT.c ****             I2C_CTRL_REG &= (uint32) ~I2C_CTRL_ENABLED; /* Disable SCB block */
  64              		.loc 1 84 0
  65 0020 A84A     		ldr	r2, .L38+16
  66 0022 1368     		ldr	r3, [r2]
  67 0024 5B00     		lsls	r3, r3, #1
  68 0026 5B08     		lsrs	r3, r3, #1
  69 0028 1360     		str	r3, [r2]
  85:Generated_Source\PSoC4/I2C_EZI2C_INT.c **** 
  86:Generated_Source\PSoC4/I2C_EZI2C_INT.c ****         #if(I2C_CY_SCBIP_V0)
  87:Generated_Source\PSoC4/I2C_EZI2C_INT.c ****             if(0u != ((uint8) I2C_EZI2C_STATUS_BUSY & I2C_curStatus))
  70              		.loc 1 87 0
  71 002a A74B     		ldr	r3, .L38+20
  72 002c 1B78     		ldrb	r3, [r3]
  73 002e 9B06     		lsls	r3, r3, #26
  74 0030 20D5     		bpl	.L4
  88:Generated_Source\PSoC4/I2C_EZI2C_INT.c ****         #endif /* (I2C_CY_SCBIP_V0) */
  89:Generated_Source\PSoC4/I2C_EZI2C_INT.c ****             {
  90:Generated_Source\PSoC4/I2C_EZI2C_INT.c ****                 I2C_curStatus &= (uint8) ~I2C_EZI2C_STATUS_BUSY;
  75              		.loc 1 90 0
  76 0032 A54A     		ldr	r2, .L38+20
  77 0034 1378     		ldrb	r3, [r2]
  78 0036 2021     		movs	r1, #32
  79 0038 8B43     		bics	r3, r1
  80 003a 1370     		strb	r3, [r2]
  91:Generated_Source\PSoC4/I2C_EZI2C_INT.c ****                 I2C_curStatus |= (uint8)  I2C_EZI2C_STATUS_ERR;
ARM GAS  C:\Users\jagumiel\AppData\Local\Temp\ccK6w6Mx.s 			page 4


  81              		.loc 1 91 0
  82 003c 1178     		ldrb	r1, [r2]
  83 003e 1023     		movs	r3, #16
  84 0040 0B43     		orrs	r3, r1
  85 0042 DBB2     		uxtb	r3, r3
  86 0044 1370     		strb	r3, [r2]
  92:Generated_Source\PSoC4/I2C_EZI2C_INT.c **** 
  93:Generated_Source\PSoC4/I2C_EZI2C_INT.c ****                 /* INTR_TX_EMPTY is enabled in the address phase to receive data */
  94:Generated_Source\PSoC4/I2C_EZI2C_INT.c ****                 if(0u == (I2C_GetTxInterruptMode() & I2C_INTR_TX_EMPTY))
  87              		.loc 1 94 0
  88 0046 A14B     		ldr	r3, .L38+24
  89 0048 1B68     		ldr	r3, [r3]
  90 004a DB06     		lsls	r3, r3, #27
  91 004c 0CD4     		bmi	.L5
  95:Generated_Source\PSoC4/I2C_EZI2C_INT.c ****                 {
  96:Generated_Source\PSoC4/I2C_EZI2C_INT.c ****                     /* Write complete */
  97:Generated_Source\PSoC4/I2C_EZI2C_INT.c ****                     if(I2C_indexBuf1 != I2C_offsetBuf1)
  92              		.loc 1 97 0
  93 004e A04B     		ldr	r3, .L38+28
  94 0050 1A78     		ldrb	r2, [r3]
  95 0052 994B     		ldr	r3, .L38+4
  96 0054 1B88     		ldrh	r3, [r3]
  97 0056 9A42     		cmp	r2, r3
  98 0058 0CD0     		beq	.L4
  98:Generated_Source\PSoC4/I2C_EZI2C_INT.c ****                     {
  99:Generated_Source\PSoC4/I2C_EZI2C_INT.c ****                         I2C_curStatus |= (uint8) I2C_INTR_SLAVE_I2C_WRITE_STOP;
  99              		.loc 1 99 0
 100 005a 9B4A     		ldr	r2, .L38+20
 101 005c 1178     		ldrb	r1, [r2]
 102 005e 0823     		movs	r3, #8
 103 0060 0B43     		orrs	r3, r1
 104 0062 DBB2     		uxtb	r3, r3
 105 0064 1370     		strb	r3, [r2]
 106 0066 05E0     		b	.L4
 107              	.L5:
 100:Generated_Source\PSoC4/I2C_EZI2C_INT.c ****                     }
 101:Generated_Source\PSoC4/I2C_EZI2C_INT.c ****                 }
 102:Generated_Source\PSoC4/I2C_EZI2C_INT.c ****                 else
 103:Generated_Source\PSoC4/I2C_EZI2C_INT.c ****                 {
 104:Generated_Source\PSoC4/I2C_EZI2C_INT.c ****                     /* Read complete */
 105:Generated_Source\PSoC4/I2C_EZI2C_INT.c ****                     I2C_curStatus |= (uint8) I2C_INTR_SLAVE_I2C_NACK;
 108              		.loc 1 105 0
 109 0068 974A     		ldr	r2, .L38+20
 110 006a 1178     		ldrb	r1, [r2]
 111 006c 0223     		movs	r3, #2
 112 006e 0B43     		orrs	r3, r1
 113 0070 DBB2     		uxtb	r3, r3
 114 0072 1370     		strb	r3, [r2]
 115              	.L4:
 106:Generated_Source\PSoC4/I2C_EZI2C_INT.c ****                 }
 107:Generated_Source\PSoC4/I2C_EZI2C_INT.c ****             }
 108:Generated_Source\PSoC4/I2C_EZI2C_INT.c **** 
 109:Generated_Source\PSoC4/I2C_EZI2C_INT.c ****             I2C_DISABLE_SLAVE_AUTO_DATA;
 116              		.loc 1 109 0
 117 0074 974A     		ldr	r2, .L38+32
 118 0076 1168     		ldr	r1, [r2]
 119 0078 974B     		ldr	r3, .L38+36
ARM GAS  C:\Users\jagumiel\AppData\Local\Temp\ccK6w6Mx.s 			page 5


 120 007a 0B40     		ands	r3, r1
 121 007c 1360     		str	r3, [r2]
 110:Generated_Source\PSoC4/I2C_EZI2C_INT.c **** 
 111:Generated_Source\PSoC4/I2C_EZI2C_INT.c ****             /* Disable TX and RX interrupt sources */
 112:Generated_Source\PSoC4/I2C_EZI2C_INT.c ****             I2C_SetRxInterruptMode(I2C_NO_INTR_SOURCES);
 122              		.loc 1 112 0
 123 007e 0023     		movs	r3, #0
 124 0080 964A     		ldr	r2, .L38+40
 125 0082 1360     		str	r3, [r2]
 113:Generated_Source\PSoC4/I2C_EZI2C_INT.c ****             I2C_SetTxInterruptMode(I2C_NO_INTR_SOURCES);
 126              		.loc 1 113 0
 127 0084 914A     		ldr	r2, .L38+24
 128 0086 1360     		str	r3, [r2]
 114:Generated_Source\PSoC4/I2C_EZI2C_INT.c **** 
 115:Generated_Source\PSoC4/I2C_EZI2C_INT.c ****         #if(I2C_CY_SCBIP_V0)
 116:Generated_Source\PSoC4/I2C_EZI2C_INT.c ****             /* Clear interrupt sources as they are not automatically cleared after SCB is disabled 
 117:Generated_Source\PSoC4/I2C_EZI2C_INT.c ****             I2C_ClearRxInterruptSource(I2C_INTR_RX_ALL);
 129              		.loc 1 117 0
 130 0088 9549     		ldr	r1, .L38+44
 131 008a 964A     		ldr	r2, .L38+48
 132 008c 1160     		str	r1, [r2]
 118:Generated_Source\PSoC4/I2C_EZI2C_INT.c ****             I2C_ClearSlaveInterruptSource(I2C_INTR_SLAVE_ALL);
 133              		.loc 1 118 0
 134 008e 9649     		ldr	r1, .L38+52
 135 0090 8A4A     		ldr	r2, .L38+8
 136 0092 1160     		str	r1, [r2]
 119:Generated_Source\PSoC4/I2C_EZI2C_INT.c ****         #endif /* (I2C_CY_SCBIP_V0) */
 120:Generated_Source\PSoC4/I2C_EZI2C_INT.c **** 
 121:Generated_Source\PSoC4/I2C_EZI2C_INT.c ****             I2C_fsmState = I2C_EZI2C_FSM_IDLE;
 137              		.loc 1 121 0
 138 0094 954A     		ldr	r2, .L38+56
 139 0096 1370     		strb	r3, [r2]
 122:Generated_Source\PSoC4/I2C_EZI2C_INT.c **** 
 123:Generated_Source\PSoC4/I2C_EZI2C_INT.c ****             I2C_CTRL_REG |= (uint32) I2C_CTRL_ENABLED;  /* Enable SCB block */
 140              		.loc 1 123 0
 141 0098 8A4A     		ldr	r2, .L38+16
 142 009a 1368     		ldr	r3, [r2]
 143 009c 8021     		movs	r1, #128
 144 009e 0906     		lsls	r1, r1, #24
 145 00a0 0B43     		orrs	r3, r1
 146 00a2 1360     		str	r3, [r2]
 147 00a4 03E1     		b	.L6
 148              	.L3:
 124:Generated_Source\PSoC4/I2C_EZI2C_INT.c ****         }
 125:Generated_Source\PSoC4/I2C_EZI2C_INT.c ****         else
 126:Generated_Source\PSoC4/I2C_EZI2C_INT.c ****         {
 127:Generated_Source\PSoC4/I2C_EZI2C_INT.c ****             /* INTR_I2C_EC_WAKE_UP */
 128:Generated_Source\PSoC4/I2C_EZI2C_INT.c ****             /* Wakes up device from deep sleep */
 129:Generated_Source\PSoC4/I2C_EZI2C_INT.c ****             if(0u != (locIntrCause & I2C_INTR_CAUSE_I2C_EC))
 149              		.loc 1 129 0
 150 00a6 F306     		lsls	r3, r6, #27
 151 00a8 02D5     		bpl	.L7
 130:Generated_Source\PSoC4/I2C_EZI2C_INT.c ****             {
 131:Generated_Source\PSoC4/I2C_EZI2C_INT.c ****                 /* Disables wakeup interrupt source but does not clear it. It is cleared in INTR_SL
 132:Generated_Source\PSoC4/I2C_EZI2C_INT.c ****                 I2C_SetI2CExtClkInterruptMode(I2C_NO_INTR_SOURCES);
 152              		.loc 1 132 0
 153 00aa 0022     		movs	r2, #0
ARM GAS  C:\Users\jagumiel\AppData\Local\Temp\ccK6w6Mx.s 			page 6


 154 00ac 904B     		ldr	r3, .L38+60
 155 00ae 1A60     		str	r2, [r3]
 156              	.L7:
 133:Generated_Source\PSoC4/I2C_EZI2C_INT.c ****             }
 134:Generated_Source\PSoC4/I2C_EZI2C_INT.c **** 
 135:Generated_Source\PSoC4/I2C_EZI2C_INT.c ****             if(0u != (locIntrCause & (I2C_INTR_CAUSE_RX | I2C_INTR_CAUSE_SLAVE)))
 157              		.loc 1 135 0
 158 00b0 0A23     		movs	r3, #10
 159 00b2 3342     		tst	r3, r6
 160 00b4 00D1     		bne	.LCB131
 161 00b6 90E0     		b	.L8	@long jump
 162              	.LCB131:
 136:Generated_Source\PSoC4/I2C_EZI2C_INT.c ****             {
 137:Generated_Source\PSoC4/I2C_EZI2C_INT.c ****                 /* INTR_RX.NOT_EMPTY */
 138:Generated_Source\PSoC4/I2C_EZI2C_INT.c ****                 /* Receives data byte-by-byte. Does not use RX FIFO capabilities */
 139:Generated_Source\PSoC4/I2C_EZI2C_INT.c ****                 if (0u != (I2C_GetRxInterruptSourceMasked() & I2C_INTR_RX_NOT_EMPTY))
 163              		.loc 1 139 0
 164 00b8 8E4B     		ldr	r3, .L38+64
 165 00ba 1B68     		ldr	r3, [r3]
 166 00bc 5B07     		lsls	r3, r3, #29
 167 00be 56D5     		bpl	.L9
 140:Generated_Source\PSoC4/I2C_EZI2C_INT.c ****                 {
 141:Generated_Source\PSoC4/I2C_EZI2C_INT.c ****                 #if(I2C_SECONDARY_ADDRESS_ENABLE_CONST)
 142:Generated_Source\PSoC4/I2C_EZI2C_INT.c ****                     /* If I2C_STOP service is delayed to I2C_ADDR_MATCH the address byte is in the 
 143:Generated_Source\PSoC4/I2C_EZI2C_INT.c ****                     * RX_NOT_EMPTY is enabled. The address byte has to stay into RX FIFO therefore
 144:Generated_Source\PSoC4/I2C_EZI2C_INT.c ****                     * RX.NOT_EMPTY service has to be skipped. The address byte has to be read by I2
 145:Generated_Source\PSoC4/I2C_EZI2C_INT.c ****                     */
 146:Generated_Source\PSoC4/I2C_EZI2C_INT.c ****                     if (0u == (locIntrCause & I2C_INTR_CAUSE_SLAVE))
 147:Generated_Source\PSoC4/I2C_EZI2C_INT.c ****                 #endif /* (I2C_SECONDARY_ADDRESS_ENABLE_CONST) */
 148:Generated_Source\PSoC4/I2C_EZI2C_INT.c ****                     {
 149:Generated_Source\PSoC4/I2C_EZI2C_INT.c ****                         locByte = I2C_RX_FIFO_RD_REG;
 168              		.loc 1 149 0
 169 00c0 8D4B     		ldr	r3, .L38+68
 170 00c2 1B68     		ldr	r3, [r3]
 171              	.LVL4:
 150:Generated_Source\PSoC4/I2C_EZI2C_INT.c **** 
 151:Generated_Source\PSoC4/I2C_EZI2C_INT.c ****                         switch(I2C_fsmState)
 172              		.loc 1 151 0
 173 00c4 894A     		ldr	r2, .L38+56
 174 00c6 1278     		ldrb	r2, [r2]
 175 00c8 002A     		cmp	r2, #0
 176 00ca 16D0     		beq	.L11
 177 00cc 012A     		cmp	r2, #1
 178 00ce 47D1     		bne	.L37
 152:Generated_Source\PSoC4/I2C_EZI2C_INT.c ****                         {
 153:Generated_Source\PSoC4/I2C_EZI2C_INT.c ****                         case I2C_EZI2C_FSM_BYTE_WRITE:
 154:Generated_Source\PSoC4/I2C_EZI2C_INT.c ****                             if(0u != locBufSize)
 179              		.loc 1 154 0
 180 00d0 8A4A     		ldr	r2, .L38+72
 181 00d2 1288     		ldrh	r2, [r2]
 182 00d4 002A     		cmp	r2, #0
 183 00d6 0DD0     		beq	.L13
 155:Generated_Source\PSoC4/I2C_EZI2C_INT.c ****                             {
 156:Generated_Source\PSoC4/I2C_EZI2C_INT.c ****                                 /* Store data byte and ACK */
 157:Generated_Source\PSoC4/I2C_EZI2C_INT.c ****                                 I2C_I2C_SLAVE_GENERATE_ACK;
 184              		.loc 1 157 0
 185 00d8 0121     		movs	r1, #1
ARM GAS  C:\Users\jagumiel\AppData\Local\Temp\ccK6w6Mx.s 			page 7


 186 00da 894A     		ldr	r2, .L38+76
 187 00dc 1160     		str	r1, [r2]
 158:Generated_Source\PSoC4/I2C_EZI2C_INT.c **** 
 159:Generated_Source\PSoC4/I2C_EZI2C_INT.c ****                                 I2C_dataBuffer1[locIndex] = (uint8) locByte;
 188              		.loc 1 159 0
 189 00de 894A     		ldr	r2, .L38+80
 190 00e0 1268     		ldr	r2, [r2]
 191 00e2 1219     		adds	r2, r2, r4
 192 00e4 DBB2     		uxtb	r3, r3
 193              	.LVL5:
 194 00e6 1370     		strb	r3, [r2]
 160:Generated_Source\PSoC4/I2C_EZI2C_INT.c ****                                 locIndex++;
 195              		.loc 1 160 0
 196 00e8 0134     		adds	r4, r4, #1
 197              	.LVL6:
 161:Generated_Source\PSoC4/I2C_EZI2C_INT.c ****                                 locBufSize--;
 198              		.loc 1 161 0
 199 00ea 844A     		ldr	r2, .L38+72
 200 00ec 1388     		ldrh	r3, [r2]
 201 00ee 013B     		subs	r3, r3, #1
 202 00f0 1380     		strh	r3, [r2]
 203 00f2 38E0     		b	.L14
 204              	.LVL7:
 205              	.L13:
 162:Generated_Source\PSoC4/I2C_EZI2C_INT.c ****                             }
 163:Generated_Source\PSoC4/I2C_EZI2C_INT.c ****                             else
 164:Generated_Source\PSoC4/I2C_EZI2C_INT.c ****                             {
 165:Generated_Source\PSoC4/I2C_EZI2C_INT.c ****                                 /* Discard data byte and NACK */
 166:Generated_Source\PSoC4/I2C_EZI2C_INT.c ****                                 I2C_I2C_SLAVE_GENERATE_NACK;
 206              		.loc 1 166 0
 207 00f4 FFF7FEFF 		bl	I2C_I2CSlaveNackGeneration
 208              	.LVL8:
 209 00f8 35E0     		b	.L14
 210              	.LVL9:
 211              	.L11:
 167:Generated_Source\PSoC4/I2C_EZI2C_INT.c ****                             }
 168:Generated_Source\PSoC4/I2C_EZI2C_INT.c ****                             break;
 169:Generated_Source\PSoC4/I2C_EZI2C_INT.c **** 
 170:Generated_Source\PSoC4/I2C_EZI2C_INT.c ****                     #if(I2C_SUB_ADDRESS_SIZE16_CONST)
 171:Generated_Source\PSoC4/I2C_EZI2C_INT.c ****                         case I2C_EZI2C_FSM_OFFSET_HI8:
 172:Generated_Source\PSoC4/I2C_EZI2C_INT.c **** 
 173:Generated_Source\PSoC4/I2C_EZI2C_INT.c ****                             I2C_I2C_SLAVE_GENERATE_ACK;
 174:Generated_Source\PSoC4/I2C_EZI2C_INT.c **** 
 175:Generated_Source\PSoC4/I2C_EZI2C_INT.c ****                             /* Store offset most significant byre */
 176:Generated_Source\PSoC4/I2C_EZI2C_INT.c ****                             locBufSize = (uint16) ((uint8) locByte);
 177:Generated_Source\PSoC4/I2C_EZI2C_INT.c **** 
 178:Generated_Source\PSoC4/I2C_EZI2C_INT.c ****                             I2C_fsmState = I2C_EZI2C_FSM_OFFSET_LO8;
 179:Generated_Source\PSoC4/I2C_EZI2C_INT.c **** 
 180:Generated_Source\PSoC4/I2C_EZI2C_INT.c ****                             break;
 181:Generated_Source\PSoC4/I2C_EZI2C_INT.c ****                     #endif /* (I2C_SUB_ADDRESS_SIZE16_CONST) */
 182:Generated_Source\PSoC4/I2C_EZI2C_INT.c **** 
 183:Generated_Source\PSoC4/I2C_EZI2C_INT.c ****                         case I2C_EZI2C_FSM_OFFSET_LO8:
 184:Generated_Source\PSoC4/I2C_EZI2C_INT.c **** 
 185:Generated_Source\PSoC4/I2C_EZI2C_INT.c ****                             #if (I2C_SUB_ADDRESS_SIZE16)
 186:Generated_Source\PSoC4/I2C_EZI2C_INT.c ****                             {
 187:Generated_Source\PSoC4/I2C_EZI2C_INT.c ****                                 /* Collect 2 bytes offset */
 188:Generated_Source\PSoC4/I2C_EZI2C_INT.c ****                                 locByte = ((uint32) ((uint32) locBufSize << 8u)) | locByte;
ARM GAS  C:\Users\jagumiel\AppData\Local\Temp\ccK6w6Mx.s 			page 8


 189:Generated_Source\PSoC4/I2C_EZI2C_INT.c ****                             }
 190:Generated_Source\PSoC4/I2C_EZI2C_INT.c ****                             #endif
 191:Generated_Source\PSoC4/I2C_EZI2C_INT.c **** 
 192:Generated_Source\PSoC4/I2C_EZI2C_INT.c ****                             /* Check offset against buffer size */
 193:Generated_Source\PSoC4/I2C_EZI2C_INT.c ****                             if(locByte < (uint32) I2C_bufSizeBuf1)
 212              		.loc 1 193 0
 213 00fa 834A     		ldr	r2, .L38+84
 214 00fc 1288     		ldrh	r2, [r2]
 215 00fe 9342     		cmp	r3, r2
 216 0100 2BD2     		bcs	.L15
 194:Generated_Source\PSoC4/I2C_EZI2C_INT.c ****                             {
 195:Generated_Source\PSoC4/I2C_EZI2C_INT.c ****                                 I2C_I2C_SLAVE_GENERATE_ACK;
 217              		.loc 1 195 0
 218 0102 0121     		movs	r1, #1
 219 0104 7E4A     		ldr	r2, .L38+76
 220 0106 1160     		str	r1, [r2]
 221              	.LVL10:
 196:Generated_Source\PSoC4/I2C_EZI2C_INT.c **** 
 197:Generated_Source\PSoC4/I2C_EZI2C_INT.c ****                                 /* Update local buffer index with new offset */
 198:Generated_Source\PSoC4/I2C_EZI2C_INT.c ****                                 locIndex = locByte;
 199:Generated_Source\PSoC4/I2C_EZI2C_INT.c **** 
 200:Generated_Source\PSoC4/I2C_EZI2C_INT.c ****                                 /* Get available buffer size to write */
 201:Generated_Source\PSoC4/I2C_EZI2C_INT.c ****                                 locBufSize = (uint16) ((locByte < I2C_protectBuf1) ?
 222              		.loc 1 201 0
 223 0108 804A     		ldr	r2, .L38+88
 224 010a 1288     		ldrh	r2, [r2]
 225 010c 9342     		cmp	r3, r2
 226 010e 02D2     		bcs	.L34
 227              		.loc 1 201 0 is_stmt 0 discriminator 1
 228 0110 D21A     		subs	r2, r2, r3
 229 0112 92B2     		uxth	r2, r2
 230 0114 00E0     		b	.L16
 231              	.L34:
 232              		.loc 1 201 0
 233 0116 0022     		movs	r2, #0
 234              	.L16:
 235              		.loc 1 201 0 discriminator 4
 236 0118 7849     		ldr	r1, .L38+72
 237 011a 0A80     		strh	r2, [r1]
 202:Generated_Source\PSoC4/I2C_EZI2C_INT.c ****                                                        (I2C_protectBuf1 - locByte) : (0u));
 203:Generated_Source\PSoC4/I2C_EZI2C_INT.c **** 
 204:Generated_Source\PSoC4/I2C_EZI2C_INT.c ****                             #if(I2C_CY_SCBIP_V0)
 205:Generated_Source\PSoC4/I2C_EZI2C_INT.c **** 
 206:Generated_Source\PSoC4/I2C_EZI2C_INT.c ****                                 if(locBufSize < I2C_EZI2C_FIFO_SIZE)
 238              		.loc 1 206 0 is_stmt 1 discriminator 4
 239 011c 072A     		cmp	r2, #7
 240 011e 03D8     		bhi	.L17
 207:Generated_Source\PSoC4/I2C_EZI2C_INT.c ****                                 {
 208:Generated_Source\PSoC4/I2C_EZI2C_INT.c ****                                     /* Set FSM state to receive byte by byte */
 209:Generated_Source\PSoC4/I2C_EZI2C_INT.c ****                                     I2C_fsmState = I2C_EZI2C_FSM_BYTE_WRITE;
 241              		.loc 1 209 0
 242 0120 0121     		movs	r1, #1
 243 0122 724A     		ldr	r2, .L38+56
 244 0124 1170     		strb	r1, [r2]
 245 0126 14E0     		b	.L18
 246              	.L17:
 210:Generated_Source\PSoC4/I2C_EZI2C_INT.c ****                                 }
ARM GAS  C:\Users\jagumiel\AppData\Local\Temp\ccK6w6Mx.s 			page 9


 211:Generated_Source\PSoC4/I2C_EZI2C_INT.c ****                                 /* Receive RX FIFO chunks */
 212:Generated_Source\PSoC4/I2C_EZI2C_INT.c ****                                 else if(locBufSize == I2C_EZI2C_FIFO_SIZE)
 247              		.loc 1 212 0
 248 0128 082A     		cmp	r2, #8
 249 012a 09D1     		bne	.L19
 213:Generated_Source\PSoC4/I2C_EZI2C_INT.c ****                                 {
 214:Generated_Source\PSoC4/I2C_EZI2C_INT.c ****                                     I2C_ENABLE_SLAVE_AUTO_DATA; /* NACK when RX FIFO is full */
 250              		.loc 1 214 0
 251 012c 6949     		ldr	r1, .L38+32
 252 012e 0A68     		ldr	r2, [r1]
 253 0130 A020     		movs	r0, #160
 254 0132 0002     		lsls	r0, r0, #8
 255 0134 0243     		orrs	r2, r0
 256 0136 0A60     		str	r2, [r1]
 215:Generated_Source\PSoC4/I2C_EZI2C_INT.c ****                                     I2C_SetRxInterruptMode(I2C_NO_INTR_SOURCES);
 257              		.loc 1 215 0
 258 0138 0021     		movs	r1, #0
 259 013a 684A     		ldr	r2, .L38+40
 260 013c 1160     		str	r1, [r2]
 261 013e 08E0     		b	.L18
 262              	.L19:
 216:Generated_Source\PSoC4/I2C_EZI2C_INT.c ****                                 }
 217:Generated_Source\PSoC4/I2C_EZI2C_INT.c ****                                 else
 218:Generated_Source\PSoC4/I2C_EZI2C_INT.c ****                                 {
 219:Generated_Source\PSoC4/I2C_EZI2C_INT.c ****                                     I2C_ENABLE_SLAVE_AUTO_DATA_ACK; /* Stretch when RX FIFO is full
 263              		.loc 1 219 0
 264 0140 6449     		ldr	r1, .L38+32
 265 0142 0A68     		ldr	r2, [r1]
 266 0144 8020     		movs	r0, #128
 267 0146 8001     		lsls	r0, r0, #6
 268 0148 0243     		orrs	r2, r0
 269 014a 0A60     		str	r2, [r1]
 220:Generated_Source\PSoC4/I2C_EZI2C_INT.c ****                                     I2C_SetRxInterruptMode(I2C_INTR_RX_FULL);
 270              		.loc 1 220 0
 271 014c 0821     		movs	r1, #8
 272 014e 634A     		ldr	r2, .L38+40
 273 0150 1160     		str	r1, [r2]
 274              	.L18:
 221:Generated_Source\PSoC4/I2C_EZI2C_INT.c ****                                 }
 222:Generated_Source\PSoC4/I2C_EZI2C_INT.c **** 
 223:Generated_Source\PSoC4/I2C_EZI2C_INT.c ****                             #else
 224:Generated_Source\PSoC4/I2C_EZI2C_INT.c **** 
 225:Generated_Source\PSoC4/I2C_EZI2C_INT.c ****                                 #if(I2C_SECONDARY_ADDRESS_ENABLE)
 226:Generated_Source\PSoC4/I2C_EZI2C_INT.c ****                                 {
 227:Generated_Source\PSoC4/I2C_EZI2C_INT.c ****                                     /* Set FSM state to receive byte by byte.
 228:Generated_Source\PSoC4/I2C_EZI2C_INT.c ****                                     * The byte by byte receive is always chosen for two addresses. 
 229:Generated_Source\PSoC4/I2C_EZI2C_INT.c ****                                     */
 230:Generated_Source\PSoC4/I2C_EZI2C_INT.c ****                                     I2C_fsmState = I2C_EZI2C_FSM_BYTE_WRITE;
 231:Generated_Source\PSoC4/I2C_EZI2C_INT.c ****                                 }
 232:Generated_Source\PSoC4/I2C_EZI2C_INT.c ****                                 #else
 233:Generated_Source\PSoC4/I2C_EZI2C_INT.c ****                                 {
 234:Generated_Source\PSoC4/I2C_EZI2C_INT.c ****                                     if (locBufSize < I2C_EZI2C_FIFO_SIZE)
 235:Generated_Source\PSoC4/I2C_EZI2C_INT.c ****                                     {
 236:Generated_Source\PSoC4/I2C_EZI2C_INT.c ****                                         /* Set FSM state to receive byte by byte */
 237:Generated_Source\PSoC4/I2C_EZI2C_INT.c ****                                         I2C_fsmState = I2C_EZI2C_FSM_BYTE_WRITE;
 238:Generated_Source\PSoC4/I2C_EZI2C_INT.c ****                                     }
 239:Generated_Source\PSoC4/I2C_EZI2C_INT.c ****                                     /* Receive RX FIFO chunks */
ARM GAS  C:\Users\jagumiel\AppData\Local\Temp\ccK6w6Mx.s 			page 10


 240:Generated_Source\PSoC4/I2C_EZI2C_INT.c ****                                     else if (locBufSize == I2C_EZI2C_FIFO_SIZE)
 241:Generated_Source\PSoC4/I2C_EZI2C_INT.c ****                                     {
 242:Generated_Source\PSoC4/I2C_EZI2C_INT.c ****                                         I2C_ENABLE_SLAVE_AUTO_DATA; /* NACK when RX FIFO is full */
 243:Generated_Source\PSoC4/I2C_EZI2C_INT.c ****                                         I2C_SetRxInterruptMode(I2C_NO_INTR_SOURCES);
 244:Generated_Source\PSoC4/I2C_EZI2C_INT.c ****                                     }
 245:Generated_Source\PSoC4/I2C_EZI2C_INT.c ****                                     else
 246:Generated_Source\PSoC4/I2C_EZI2C_INT.c ****                                     {
 247:Generated_Source\PSoC4/I2C_EZI2C_INT.c ****                                         I2C_ENABLE_SLAVE_AUTO_DATA_ACK; /* Stretch when RX FIFO is 
 248:Generated_Source\PSoC4/I2C_EZI2C_INT.c ****                                         I2C_SetRxInterruptMode(I2C_INTR_RX_FULL);
 249:Generated_Source\PSoC4/I2C_EZI2C_INT.c ****                                     }
 250:Generated_Source\PSoC4/I2C_EZI2C_INT.c ****                                 }
 251:Generated_Source\PSoC4/I2C_EZI2C_INT.c ****                                 #endif
 252:Generated_Source\PSoC4/I2C_EZI2C_INT.c **** 
 253:Generated_Source\PSoC4/I2C_EZI2C_INT.c ****                             #endif /* (I2C_CY_SCBIP_V0) */
 254:Generated_Source\PSoC4/I2C_EZI2C_INT.c **** 
 255:Generated_Source\PSoC4/I2C_EZI2C_INT.c ****                                 /* Store local offset into global variable */
 256:Generated_Source\PSoC4/I2C_EZI2C_INT.c ****                                 I2C_EZI2C_SET_OFFSET(activeAddress, locIndex);
 275              		.loc 1 256 0
 276 0152 5F4A     		ldr	r2, .L38+28
 277 0154 1370     		strb	r3, [r2]
 198:Generated_Source\PSoC4/I2C_EZI2C_INT.c **** 
 278              		.loc 1 198 0
 279 0156 1C00     		movs	r4, r3
 280 0158 05E0     		b	.L14
 281              	.LVL11:
 282              	.L15:
 257:Generated_Source\PSoC4/I2C_EZI2C_INT.c ****                             }
 258:Generated_Source\PSoC4/I2C_EZI2C_INT.c ****                             else
 259:Generated_Source\PSoC4/I2C_EZI2C_INT.c ****                             {
 260:Generated_Source\PSoC4/I2C_EZI2C_INT.c ****                                 /* Discard offset byte and NACK */
 261:Generated_Source\PSoC4/I2C_EZI2C_INT.c ****                                 I2C_I2C_SLAVE_GENERATE_NACK;
 283              		.loc 1 261 0
 284 015a FFF7FEFF 		bl	I2C_I2CSlaveNackGeneration
 285              	.LVL12:
 286 015e 02E0     		b	.L14
 287              	.LVL13:
 288              	.L37:
 262:Generated_Source\PSoC4/I2C_EZI2C_INT.c ****                             }
 263:Generated_Source\PSoC4/I2C_EZI2C_INT.c ****                             break;
 264:Generated_Source\PSoC4/I2C_EZI2C_INT.c **** 
 265:Generated_Source\PSoC4/I2C_EZI2C_INT.c ****                         default:
 266:Generated_Source\PSoC4/I2C_EZI2C_INT.c ****                             CYASSERT(0u != 0u); /* Should never get there */
 289              		.loc 1 266 0 discriminator 1
 290 0160 0020     		movs	r0, #0
 291 0162 FFF7FEFF 		bl	CyHalt
 292              	.LVL14:
 293              	.L14:
 267:Generated_Source\PSoC4/I2C_EZI2C_INT.c ****                             break;
 268:Generated_Source\PSoC4/I2C_EZI2C_INT.c ****                         }
 269:Generated_Source\PSoC4/I2C_EZI2C_INT.c **** 
 270:Generated_Source\PSoC4/I2C_EZI2C_INT.c ****                         I2C_ClearRxInterruptSource(I2C_INTR_RX_NOT_EMPTY);
 294              		.loc 1 270 0
 295 0166 0422     		movs	r2, #4
 296 0168 5E4B     		ldr	r3, .L38+48
 297 016a 1A60     		str	r2, [r3]
 298 016c 35E0     		b	.L8
 299              	.L9:
ARM GAS  C:\Users\jagumiel\AppData\Local\Temp\ccK6w6Mx.s 			page 11


 271:Generated_Source\PSoC4/I2C_EZI2C_INT.c ****                     }
 272:Generated_Source\PSoC4/I2C_EZI2C_INT.c ****                 }
 273:Generated_Source\PSoC4/I2C_EZI2C_INT.c ****                 /* INTR_RX.FULL, INTR_SLAVE.I2C_STOP */
 274:Generated_Source\PSoC4/I2C_EZI2C_INT.c ****                 /* Receive FIFO chunks: auto data ACK is enabled */
 275:Generated_Source\PSoC4/I2C_EZI2C_INT.c ****                 else if (0u != (I2C_I2C_CTRL_REG & I2C_I2C_CTRL_S_READY_DATA_ACK))
 300              		.loc 1 275 0
 301 016e 594B     		ldr	r3, .L38+32
 302 0170 1B68     		ldr	r3, [r3]
 303 0172 9B04     		lsls	r3, r3, #18
 304 0174 31D5     		bpl	.L8
 276:Generated_Source\PSoC4/I2C_EZI2C_INT.c ****                 {
 277:Generated_Source\PSoC4/I2C_EZI2C_INT.c ****                     /* Slave interrupt (I2C_STOP or I2C_ADDR_MATCH) leads to completion of read.
 278:Generated_Source\PSoC4/I2C_EZI2C_INT.c ****                     * A completion event has a higher priority than the FIFO full.
 279:Generated_Source\PSoC4/I2C_EZI2C_INT.c ****                     * Read remaining data from RX FIFO.
 280:Generated_Source\PSoC4/I2C_EZI2C_INT.c ****                     */
 281:Generated_Source\PSoC4/I2C_EZI2C_INT.c ****                     if(0u != (locIntrCause & I2C_INTR_CAUSE_SLAVE))
 305              		.loc 1 281 0
 306 0176 B307     		lsls	r3, r6, #30
 307 0178 0DD5     		bpl	.L20
 282:Generated_Source\PSoC4/I2C_EZI2C_INT.c ****                     {
 283:Generated_Source\PSoC4/I2C_EZI2C_INT.c ****                         /* Read remaining bytes from RX FIFO */
 284:Generated_Source\PSoC4/I2C_EZI2C_INT.c ****                         fifoIndex = I2C_GET_RX_FIFO_ENTRIES;
 308              		.loc 1 284 0
 309 017a 654B     		ldr	r3, .L38+92
 310 017c 1B68     		ldr	r3, [r3]
 311 017e 0F21     		movs	r1, #15
 312 0180 1940     		ands	r1, r3
 313              	.LVL15:
 285:Generated_Source\PSoC4/I2C_EZI2C_INT.c **** 
 286:Generated_Source\PSoC4/I2C_EZI2C_INT.c ****                         #if(I2C_SECONDARY_ADDRESS_ENABLE)
 287:Generated_Source\PSoC4/I2C_EZI2C_INT.c ****                         {
 288:Generated_Source\PSoC4/I2C_EZI2C_INT.c ****                             /* Update with current address match */
 289:Generated_Source\PSoC4/I2C_EZI2C_INT.c ****                             if(I2C_CHECK_INTR_SLAVE_MASKED(I2C_INTR_SLAVE_I2C_ADDR_MATCH))
 290:Generated_Source\PSoC4/I2C_EZI2C_INT.c ****                             {
 291:Generated_Source\PSoC4/I2C_EZI2C_INT.c ****                                 /* Update RX FIFO entries as address byte is there now */
 292:Generated_Source\PSoC4/I2C_EZI2C_INT.c ****                                 fifoIndex = I2C_GET_RX_FIFO_ENTRIES;
 293:Generated_Source\PSoC4/I2C_EZI2C_INT.c **** 
 294:Generated_Source\PSoC4/I2C_EZI2C_INT.c ****                                 /* If SR is valid, RX FIFO is full and address is in SHIFTER:
 295:Generated_Source\PSoC4/I2C_EZI2C_INT.c ****                                 * read 8 entries and leave address in RX FIFO for further processin
 296:Generated_Source\PSoC4/I2C_EZI2C_INT.c ****                                 * If SR is invalid, address is already in RX FIFO: read (entries-1)
 297:Generated_Source\PSoC4/I2C_EZI2C_INT.c ****                                 */
 298:Generated_Source\PSoC4/I2C_EZI2C_INT.c ****                                 fifoIndex -= ((0u != I2C_GET_RX_FIFO_SR_VALID) ? (0u) : (1u));
 299:Generated_Source\PSoC4/I2C_EZI2C_INT.c ****                             }
 300:Generated_Source\PSoC4/I2C_EZI2C_INT.c ****                         }
 301:Generated_Source\PSoC4/I2C_EZI2C_INT.c ****                         #endif
 302:Generated_Source\PSoC4/I2C_EZI2C_INT.c **** 
 303:Generated_Source\PSoC4/I2C_EZI2C_INT.c ****                         I2C_DISABLE_SLAVE_AUTO_DATA;
 314              		.loc 1 303 0
 315 0182 544A     		ldr	r2, .L38+32
 316 0184 1068     		ldr	r0, [r2]
 317 0186 544B     		ldr	r3, .L38+36
 318 0188 0340     		ands	r3, r0
 319 018a 1360     		str	r3, [r2]
 320              	.LVL16:
 304:Generated_Source\PSoC4/I2C_EZI2C_INT.c ****                         endTransfer = I2C_EZI2C_CONTINUE_TRANSFER;
 321              		.loc 1 304 0
 322 018c 0120     		movs	r0, #1
ARM GAS  C:\Users\jagumiel\AppData\Local\Temp\ccK6w6Mx.s 			page 12


 323 018e 14E0     		b	.L21
 324              	.LVL17:
 325              	.L35:
 305:Generated_Source\PSoC4/I2C_EZI2C_INT.c ****                     }
 306:Generated_Source\PSoC4/I2C_EZI2C_INT.c ****                     else
 307:Generated_Source\PSoC4/I2C_EZI2C_INT.c ****                     /* INTR_RX_FULL */
 308:Generated_Source\PSoC4/I2C_EZI2C_INT.c ****                     /* Continue transfer or disable INTR_RX_FULL to catch completion event. */
 309:Generated_Source\PSoC4/I2C_EZI2C_INT.c ****                     {
 310:Generated_Source\PSoC4/I2C_EZI2C_INT.c ****                         /* Calculate buffer size available to write data into */
 311:Generated_Source\PSoC4/I2C_EZI2C_INT.c ****                         locBufSize -= (uint16) I2C_EZI2C_FIFO_SIZE;
 312:Generated_Source\PSoC4/I2C_EZI2C_INT.c **** 
 313:Generated_Source\PSoC4/I2C_EZI2C_INT.c ****                         if(locBufSize <= I2C_EZI2C_FIFO_SIZE)
 314:Generated_Source\PSoC4/I2C_EZI2C_INT.c ****                         {
 315:Generated_Source\PSoC4/I2C_EZI2C_INT.c ****                             /* Send NACK when RX FIFO overflow */
 316:Generated_Source\PSoC4/I2C_EZI2C_INT.c ****                             fifoIndex   = locBufSize;
 317:Generated_Source\PSoC4/I2C_EZI2C_INT.c ****                             endTransfer = I2C_EZI2C_COMPLETE_TRANSFER;
 318:Generated_Source\PSoC4/I2C_EZI2C_INT.c ****                         }
 319:Generated_Source\PSoC4/I2C_EZI2C_INT.c ****                         else
 320:Generated_Source\PSoC4/I2C_EZI2C_INT.c ****                         {
 321:Generated_Source\PSoC4/I2C_EZI2C_INT.c ****                             /* Continue  transaction */
 322:Generated_Source\PSoC4/I2C_EZI2C_INT.c ****                             fifoIndex   = I2C_EZI2C_FIFO_SIZE;
 326              		.loc 1 322 0
 327 0190 0821     		movs	r1, #8
 323:Generated_Source\PSoC4/I2C_EZI2C_INT.c ****                             endTransfer = I2C_EZI2C_CONTINUE_TRANSFER;
 328              		.loc 1 323 0
 329 0192 0120     		movs	r0, #1
 330 0194 11E0     		b	.L21
 331              	.L20:
 311:Generated_Source\PSoC4/I2C_EZI2C_INT.c **** 
 332              		.loc 1 311 0
 333 0196 594B     		ldr	r3, .L38+72
 334 0198 1988     		ldrh	r1, [r3]
 335 019a 0839     		subs	r1, r1, #8
 336 019c 89B2     		uxth	r1, r1
 337 019e 1980     		strh	r1, [r3]
 313:Generated_Source\PSoC4/I2C_EZI2C_INT.c ****                         {
 338              		.loc 1 313 0
 339 01a0 0829     		cmp	r1, #8
 340 01a2 F5D8     		bhi	.L35
 341              	.LVL18:
 317:Generated_Source\PSoC4/I2C_EZI2C_INT.c ****                         }
 342              		.loc 1 317 0
 343 01a4 0020     		movs	r0, #0
 344 01a6 08E0     		b	.L21
 345              	.LVL19:
 346              	.L23:
 324:Generated_Source\PSoC4/I2C_EZI2C_INT.c ****                         }
 325:Generated_Source\PSoC4/I2C_EZI2C_INT.c ****                     }
 326:Generated_Source\PSoC4/I2C_EZI2C_INT.c **** 
 327:Generated_Source\PSoC4/I2C_EZI2C_INT.c ****                     for(; (0u != fifoIndex); fifoIndex--)
 328:Generated_Source\PSoC4/I2C_EZI2C_INT.c ****                     {
 329:Generated_Source\PSoC4/I2C_EZI2C_INT.c ****                         /* Store data in buffer */
 330:Generated_Source\PSoC4/I2C_EZI2C_INT.c ****                         I2C_dataBuffer1[locIndex] = (uint8) I2C_RX_FIFO_RD_REG;
 347              		.loc 1 330 0 discriminator 2
 348 01a8 564B     		ldr	r3, .L38+80
 349 01aa 1B68     		ldr	r3, [r3]
 350 01ac 1B19     		adds	r3, r3, r4
ARM GAS  C:\Users\jagumiel\AppData\Local\Temp\ccK6w6Mx.s 			page 13


 351 01ae 524A     		ldr	r2, .L38+68
 352 01b0 1268     		ldr	r2, [r2]
 353 01b2 D2B2     		uxtb	r2, r2
 354 01b4 1A70     		strb	r2, [r3]
 331:Generated_Source\PSoC4/I2C_EZI2C_INT.c ****                         locIndex++;
 355              		.loc 1 331 0 discriminator 2
 356 01b6 0134     		adds	r4, r4, #1
 357              	.LVL20:
 327:Generated_Source\PSoC4/I2C_EZI2C_INT.c ****                     {
 358              		.loc 1 327 0 discriminator 2
 359 01b8 0139     		subs	r1, r1, #1
 360              	.LVL21:
 361              	.L21:
 327:Generated_Source\PSoC4/I2C_EZI2C_INT.c ****                     {
 362              		.loc 1 327 0 is_stmt 0 discriminator 1
 363 01ba 0029     		cmp	r1, #0
 364 01bc F4D1     		bne	.L23
 332:Generated_Source\PSoC4/I2C_EZI2C_INT.c ****                     }
 333:Generated_Source\PSoC4/I2C_EZI2C_INT.c **** 
 334:Generated_Source\PSoC4/I2C_EZI2C_INT.c ****                     /* Complete transfer sending NACK when RX FIFO overflow */
 335:Generated_Source\PSoC4/I2C_EZI2C_INT.c ****                     if(I2C_EZI2C_COMPLETE_TRANSFER == endTransfer)
 365              		.loc 1 335 0 is_stmt 1
 366 01be 0028     		cmp	r0, #0
 367 01c0 08D1     		bne	.L24
 336:Generated_Source\PSoC4/I2C_EZI2C_INT.c ****                     {
 337:Generated_Source\PSoC4/I2C_EZI2C_INT.c ****                         I2C_ENABLE_SLAVE_AUTO_DATA_NACK;
 368              		.loc 1 337 0
 369 01c2 444A     		ldr	r2, .L38+32
 370 01c4 1368     		ldr	r3, [r2]
 371 01c6 8021     		movs	r1, #128
 372              	.LVL22:
 373 01c8 0902     		lsls	r1, r1, #8
 374 01ca 0B43     		orrs	r3, r1
 375 01cc 1360     		str	r3, [r2]
 338:Generated_Source\PSoC4/I2C_EZI2C_INT.c **** 
 339:Generated_Source\PSoC4/I2C_EZI2C_INT.c ****                         /* Disable INTR_RX_FULL during last RX FIFO chunk reception */
 340:Generated_Source\PSoC4/I2C_EZI2C_INT.c ****                         I2C_SetRxInterruptMode(I2C_NO_INTR_SOURCES);
 376              		.loc 1 340 0
 377 01ce 0022     		movs	r2, #0
 378 01d0 424B     		ldr	r3, .L38+40
 379 01d2 1A60     		str	r2, [r3]
 380              	.L24:
 341:Generated_Source\PSoC4/I2C_EZI2C_INT.c ****                     }
 342:Generated_Source\PSoC4/I2C_EZI2C_INT.c **** 
 343:Generated_Source\PSoC4/I2C_EZI2C_INT.c ****                     I2C_ClearRxInterruptSource(I2C_INTR_RX_FULL |
 381              		.loc 1 343 0
 382 01d4 0C22     		movs	r2, #12
 383 01d6 434B     		ldr	r3, .L38+48
 384 01d8 1A60     		str	r2, [r3]
 385              	.LVL23:
 386              	.L8:
 344:Generated_Source\PSoC4/I2C_EZI2C_INT.c ****                                                             I2C_INTR_RX_NOT_EMPTY);
 345:Generated_Source\PSoC4/I2C_EZI2C_INT.c ****                 }
 346:Generated_Source\PSoC4/I2C_EZI2C_INT.c ****                 else
 347:Generated_Source\PSoC4/I2C_EZI2C_INT.c ****                 {
 348:Generated_Source\PSoC4/I2C_EZI2C_INT.c ****                     /* Exit for slave interrupts which are not active for RX direction:
 349:Generated_Source\PSoC4/I2C_EZI2C_INT.c ****                     * INTR_SLAVE.I2C_ADDR_MATCH and INTR_SLAVE.I2C_STOP while byte-by-byte receptio
ARM GAS  C:\Users\jagumiel\AppData\Local\Temp\ccK6w6Mx.s 			page 14


 350:Generated_Source\PSoC4/I2C_EZI2C_INT.c ****                     */
 351:Generated_Source\PSoC4/I2C_EZI2C_INT.c ****                 }
 352:Generated_Source\PSoC4/I2C_EZI2C_INT.c ****             }
 353:Generated_Source\PSoC4/I2C_EZI2C_INT.c **** 
 354:Generated_Source\PSoC4/I2C_EZI2C_INT.c ****             if(0u != (locIntrCause & I2C_INTR_CAUSE_SLAVE))
 387              		.loc 1 354 0
 388 01da B307     		lsls	r3, r6, #30
 389 01dc 46D5     		bpl	.L25
 355:Generated_Source\PSoC4/I2C_EZI2C_INT.c ****             {
 356:Generated_Source\PSoC4/I2C_EZI2C_INT.c ****                 /* INTR_SLAVE.I2C_STOP */
 357:Generated_Source\PSoC4/I2C_EZI2C_INT.c ****                 /* Catch Stop condition: completion of write or read transfer */
 358:Generated_Source\PSoC4/I2C_EZI2C_INT.c ****             #if(!I2C_SECONDARY_ADDRESS_ENABLE_CONST)
 359:Generated_Source\PSoC4/I2C_EZI2C_INT.c ****                 if(0u != (locIntrSlave & I2C_INTR_SLAVE_I2C_STOP))
 390              		.loc 1 359 0
 391 01de EB06     		lsls	r3, r5, #27
 392 01e0 15D5     		bpl	.L26
 360:Generated_Source\PSoC4/I2C_EZI2C_INT.c ****             #else
 361:Generated_Source\PSoC4/I2C_EZI2C_INT.c ****                 /* Prevent triggering when matched address was NACKed */
 362:Generated_Source\PSoC4/I2C_EZI2C_INT.c ****                 if((0u != (locIntrSlave & I2C_INTR_SLAVE_I2C_STOP)) &&
 363:Generated_Source\PSoC4/I2C_EZI2C_INT.c ****                    (0u != ((uint8) I2C_EZI2C_STATUS_BUSY & I2C_curStatus)))
 364:Generated_Source\PSoC4/I2C_EZI2C_INT.c ****             #endif
 365:Generated_Source\PSoC4/I2C_EZI2C_INT.c ****                 {
 366:Generated_Source\PSoC4/I2C_EZI2C_INT.c ****                     /* Disable TX and RX interrupt sources */
 367:Generated_Source\PSoC4/I2C_EZI2C_INT.c ****                     I2C_SetRxInterruptMode(I2C_NO_INTR_SOURCES);
 393              		.loc 1 367 0
 394 01e2 0023     		movs	r3, #0
 395 01e4 3D4A     		ldr	r2, .L38+40
 396 01e6 1360     		str	r3, [r2]
 368:Generated_Source\PSoC4/I2C_EZI2C_INT.c ****                     I2C_SetTxInterruptMode(I2C_NO_INTR_SOURCES);
 397              		.loc 1 368 0
 398 01e8 384A     		ldr	r2, .L38+24
 399 01ea 1360     		str	r3, [r2]
 400              	.LVL24:
 369:Generated_Source\PSoC4/I2C_EZI2C_INT.c **** 
 370:Generated_Source\PSoC4/I2C_EZI2C_INT.c ****                     /* Set read completion mask */
 371:Generated_Source\PSoC4/I2C_EZI2C_INT.c ****                     locStatus = I2C_INTR_SLAVE_I2C_NACK;
 372:Generated_Source\PSoC4/I2C_EZI2C_INT.c **** 
 373:Generated_Source\PSoC4/I2C_EZI2C_INT.c ****                     /* Check if buffer content was modified: the address phase resets the locIndex 
 374:Generated_Source\PSoC4/I2C_EZI2C_INT.c ****                     if(locIndex != I2C_EZI2C_GET_OFFSET(activeAddress))
 401              		.loc 1 374 0
 402 01ec 384B     		ldr	r3, .L38+28
 403 01ee 1B78     		ldrb	r3, [r3]
 404 01f0 9C42     		cmp	r4, r3
 405 01f2 01D1     		bne	.L36
 371:Generated_Source\PSoC4/I2C_EZI2C_INT.c **** 
 406              		.loc 1 371 0
 407 01f4 0223     		movs	r3, #2
 408 01f6 00E0     		b	.L27
 409              	.L36:
 375:Generated_Source\PSoC4/I2C_EZI2C_INT.c ****                     {
 376:Generated_Source\PSoC4/I2C_EZI2C_INT.c ****                         locStatus |= I2C_INTR_SLAVE_I2C_WRITE_STOP;
 410              		.loc 1 376 0
 411 01f8 0A23     		movs	r3, #10
 412              	.L27:
 413              	.LVL25:
 377:Generated_Source\PSoC4/I2C_EZI2C_INT.c ****                     }
 378:Generated_Source\PSoC4/I2C_EZI2C_INT.c **** 
ARM GAS  C:\Users\jagumiel\AppData\Local\Temp\ccK6w6Mx.s 			page 15


 379:Generated_Source\PSoC4/I2C_EZI2C_INT.c ****                     /* Complete read or write transaction */
 380:Generated_Source\PSoC4/I2C_EZI2C_INT.c ****                     locStatus &= locIntrSlave;
 414              		.loc 1 380 0
 415 01fa 2B40     		ands	r3, r5
 416              	.LVL26:
 381:Generated_Source\PSoC4/I2C_EZI2C_INT.c ****                     I2C_EZI2C_UPDATE_LOC_STATUS(activeAddress, locStatus);
 382:Generated_Source\PSoC4/I2C_EZI2C_INT.c ****                     locStatus |= (uint32)  I2C_curStatus;
 417              		.loc 1 382 0
 418 01fc 324A     		ldr	r2, .L38+20
 419 01fe 1178     		ldrb	r1, [r2]
 420 0200 0B43     		orrs	r3, r1
 421              	.LVL27:
 383:Generated_Source\PSoC4/I2C_EZI2C_INT.c ****                     locStatus &= (uint32) ~I2C_EZI2C_STATUS_BUSY;
 384:Generated_Source\PSoC4/I2C_EZI2C_INT.c ****                     I2C_curStatus = (uint8) locStatus;
 422              		.loc 1 384 0
 423 0202 2021     		movs	r1, #32
 424 0204 8B43     		bics	r3, r1
 425              	.LVL28:
 426 0206 1370     		strb	r3, [r2]
 385:Generated_Source\PSoC4/I2C_EZI2C_INT.c **** 
 386:Generated_Source\PSoC4/I2C_EZI2C_INT.c ****                     I2C_fsmState = I2C_EZI2C_FSM_IDLE;
 427              		.loc 1 386 0
 428 0208 0022     		movs	r2, #0
 429 020a 384B     		ldr	r3, .L38+56
 430 020c 1A70     		strb	r2, [r3]
 431              	.L26:
 387:Generated_Source\PSoC4/I2C_EZI2C_INT.c **** 
 388:Generated_Source\PSoC4/I2C_EZI2C_INT.c ****                     #if(I2C_SECONDARY_ADDRESS_ENABLE)
 389:Generated_Source\PSoC4/I2C_EZI2C_INT.c ****                     {
 390:Generated_Source\PSoC4/I2C_EZI2C_INT.c ****                         /* Store local index into global variable, before address phase */
 391:Generated_Source\PSoC4/I2C_EZI2C_INT.c ****                         I2C_EZI2C_SET_INDEX(activeAddress, locIndex);
 392:Generated_Source\PSoC4/I2C_EZI2C_INT.c ****                     }
 393:Generated_Source\PSoC4/I2C_EZI2C_INT.c ****                     #endif
 394:Generated_Source\PSoC4/I2C_EZI2C_INT.c ****                 }
 395:Generated_Source\PSoC4/I2C_EZI2C_INT.c **** 
 396:Generated_Source\PSoC4/I2C_EZI2C_INT.c ****                 /* INTR_SLAVE.I2C_ADDR_MATCH */
 397:Generated_Source\PSoC4/I2C_EZI2C_INT.c ****                 /* The matched address is received: the slave starts its operation.
 398:Generated_Source\PSoC4/I2C_EZI2C_INT.c ****                 * INTR_SLAVE_I2C_STOP updates the buffer index before the address phase for two add
 399:Generated_Source\PSoC4/I2C_EZI2C_INT.c ****                 * This is done to update buffer index correctly before the address phase changes it
 400:Generated_Source\PSoC4/I2C_EZI2C_INT.c ****                 */
 401:Generated_Source\PSoC4/I2C_EZI2C_INT.c ****                 if(0u != (locIntrSlave & I2C_INTR_SLAVE_I2C_ADDR_MATCH))
 432              		.loc 1 401 0
 433 020e 6B06     		lsls	r3, r5, #25
 434 0210 2AD5     		bpl	.L28
 402:Generated_Source\PSoC4/I2C_EZI2C_INT.c ****                 {
 403:Generated_Source\PSoC4/I2C_EZI2C_INT.c ****                     #if(I2C_SECONDARY_ADDRESS_ENABLE)
 404:Generated_Source\PSoC4/I2C_EZI2C_INT.c ****                     {
 405:Generated_Source\PSoC4/I2C_EZI2C_INT.c ****                         /* Read address byte from RX FIFO */
 406:Generated_Source\PSoC4/I2C_EZI2C_INT.c ****                         locByte = I2C_GET_I2C_7BIT_ADDRESS(I2C_RX_FIFO_RD_REG);
 407:Generated_Source\PSoC4/I2C_EZI2C_INT.c **** 
 408:Generated_Source\PSoC4/I2C_EZI2C_INT.c ****                         I2C_ClearRxInterruptSource(I2C_INTR_RX_NOT_EMPTY);
 409:Generated_Source\PSoC4/I2C_EZI2C_INT.c **** 
 410:Generated_Source\PSoC4/I2C_EZI2C_INT.c ****                         /* Check received address against device addresses */
 411:Generated_Source\PSoC4/I2C_EZI2C_INT.c ****                         if(I2C_addrBuf1 == locByte)
 412:Generated_Source\PSoC4/I2C_EZI2C_INT.c ****                         {
 413:Generated_Source\PSoC4/I2C_EZI2C_INT.c ****                             /* Set buffer exposed to primary slave address */
 414:Generated_Source\PSoC4/I2C_EZI2C_INT.c ****                             I2C_dataBuffer = I2C_dataBuffer1;
ARM GAS  C:\Users\jagumiel\AppData\Local\Temp\ccK6w6Mx.s 			page 16


 415:Generated_Source\PSoC4/I2C_EZI2C_INT.c ****                             I2C_bufSizeBuf = I2C_bufSizeBuf1;
 416:Generated_Source\PSoC4/I2C_EZI2C_INT.c ****                             I2C_protectBuf = I2C_protectBuf1;
 417:Generated_Source\PSoC4/I2C_EZI2C_INT.c **** 
 418:Generated_Source\PSoC4/I2C_EZI2C_INT.c ****                             activeAddress = I2C_EZI2C_ACTIVE_ADDRESS1;
 419:Generated_Source\PSoC4/I2C_EZI2C_INT.c ****                         }
 420:Generated_Source\PSoC4/I2C_EZI2C_INT.c ****                         else if(I2C_addrBuf2 == locByte)
 421:Generated_Source\PSoC4/I2C_EZI2C_INT.c ****                         {
 422:Generated_Source\PSoC4/I2C_EZI2C_INT.c ****                             /* Set buffer exposed to secondary slave address */
 423:Generated_Source\PSoC4/I2C_EZI2C_INT.c ****                             I2C_dataBuffer = I2C_dataBuffer2;
 424:Generated_Source\PSoC4/I2C_EZI2C_INT.c ****                             I2C_bufSizeBuf = I2C_bufSizeBuf2;
 425:Generated_Source\PSoC4/I2C_EZI2C_INT.c ****                             I2C_protectBuf = I2C_protectBuf2;
 426:Generated_Source\PSoC4/I2C_EZI2C_INT.c **** 
 427:Generated_Source\PSoC4/I2C_EZI2C_INT.c ****                             activeAddress = I2C_EZI2C_ACTIVE_ADDRESS2;
 428:Generated_Source\PSoC4/I2C_EZI2C_INT.c ****                         }
 429:Generated_Source\PSoC4/I2C_EZI2C_INT.c ****                         else
 430:Generated_Source\PSoC4/I2C_EZI2C_INT.c ****                         {
 431:Generated_Source\PSoC4/I2C_EZI2C_INT.c ****                             /* Address does not match */
 432:Generated_Source\PSoC4/I2C_EZI2C_INT.c ****                             ackResponse = I2C_EZI2C_NACK_RECEIVED_ADDRESS;
 433:Generated_Source\PSoC4/I2C_EZI2C_INT.c ****                         }
 434:Generated_Source\PSoC4/I2C_EZI2C_INT.c ****                     }
 435:Generated_Source\PSoC4/I2C_EZI2C_INT.c ****                     #endif
 436:Generated_Source\PSoC4/I2C_EZI2C_INT.c **** 
 437:Generated_Source\PSoC4/I2C_EZI2C_INT.c ****                 #if(I2C_SECONDARY_ADDRESS_ENABLE_CONST)
 438:Generated_Source\PSoC4/I2C_EZI2C_INT.c ****                     if(I2C_EZI2C_NACK_RECEIVED_ADDRESS == ackResponse)
 439:Generated_Source\PSoC4/I2C_EZI2C_INT.c ****                     {
 440:Generated_Source\PSoC4/I2C_EZI2C_INT.c ****                         /* Clear interrupt sources before NACK address */
 441:Generated_Source\PSoC4/I2C_EZI2C_INT.c ****                         I2C_ClearI2CExtClkInterruptSource(I2C_INTR_I2C_EC_WAKE_UP);
 442:Generated_Source\PSoC4/I2C_EZI2C_INT.c ****                         I2C_ClearSlaveInterruptSource(I2C_INTR_SLAVE_ALL);
 443:Generated_Source\PSoC4/I2C_EZI2C_INT.c **** 
 444:Generated_Source\PSoC4/I2C_EZI2C_INT.c ****                     #if(!I2C_CY_SCBIP_V0)
 445:Generated_Source\PSoC4/I2C_EZI2C_INT.c ****                         /* Disable INTR_I2C_STOP to not trigger after matched address is NACKed. Ti
 446:Generated_Source\PSoC4/I2C_EZI2C_INT.c ****                         I2C_DISABLE_INTR_SLAVE(I2C_INTR_SLAVE_I2C_STOP);
 447:Generated_Source\PSoC4/I2C_EZI2C_INT.c ****                     #endif /* (!I2C_CY_SCBIP_V0) */
 448:Generated_Source\PSoC4/I2C_EZI2C_INT.c **** 
 449:Generated_Source\PSoC4/I2C_EZI2C_INT.c ****                         /* NACK address byte: it does not match neither primary nor secondary */
 450:Generated_Source\PSoC4/I2C_EZI2C_INT.c ****                         I2C_I2C_SLAVE_GENERATE_NACK;
 451:Generated_Source\PSoC4/I2C_EZI2C_INT.c ****                     }
 452:Generated_Source\PSoC4/I2C_EZI2C_INT.c ****                     else
 453:Generated_Source\PSoC4/I2C_EZI2C_INT.c ****                 #endif /* (I2C_SECONDARY_ADDRESS_ENABLE_CONST) */
 454:Generated_Source\PSoC4/I2C_EZI2C_INT.c ****                     {
 455:Generated_Source\PSoC4/I2C_EZI2C_INT.c **** 
 456:Generated_Source\PSoC4/I2C_EZI2C_INT.c ****                     #if(I2C_SCB_MODE_UNCONFIG_CONST_CFG)
 457:Generated_Source\PSoC4/I2C_EZI2C_INT.c ****                         if(!I2C_SECONDARY_ADDRESS_ENABLE)
 458:Generated_Source\PSoC4/I2C_EZI2C_INT.c ****                         {
 459:Generated_Source\PSoC4/I2C_EZI2C_INT.c ****                             /* Set buffer exposed to primary slave address */
 460:Generated_Source\PSoC4/I2C_EZI2C_INT.c ****                             I2C_dataBuffer = I2C_dataBuffer1;
 461:Generated_Source\PSoC4/I2C_EZI2C_INT.c ****                             I2C_bufSizeBuf = I2C_bufSizeBuf1;
 462:Generated_Source\PSoC4/I2C_EZI2C_INT.c ****                             I2C_protectBuf = I2C_protectBuf1;
 463:Generated_Source\PSoC4/I2C_EZI2C_INT.c **** 
 464:Generated_Source\PSoC4/I2C_EZI2C_INT.c ****                             activeAddress = I2C_EZI2C_ACTIVE_ADDRESS1;
 465:Generated_Source\PSoC4/I2C_EZI2C_INT.c ****                         }
 466:Generated_Source\PSoC4/I2C_EZI2C_INT.c ****                     #endif /* (I2C_SCB_MODE_UNCONFIG_CONST_CFG) */
 467:Generated_Source\PSoC4/I2C_EZI2C_INT.c **** 
 468:Generated_Source\PSoC4/I2C_EZI2C_INT.c ****                         /* Bus becomes busy after address is received */
 469:Generated_Source\PSoC4/I2C_EZI2C_INT.c ****                         I2C_curStatus |= (uint8) I2C_EZI2C_STATUS_BUSY;
 435              		.loc 1 469 0
 436 0212 2D4A     		ldr	r2, .L38+20
ARM GAS  C:\Users\jagumiel\AppData\Local\Temp\ccK6w6Mx.s 			page 17


 437 0214 1178     		ldrb	r1, [r2]
 438 0216 2023     		movs	r3, #32
 439 0218 0B43     		orrs	r3, r1
 440 021a DBB2     		uxtb	r3, r3
 441 021c 1370     		strb	r3, [r2]
 470:Generated_Source\PSoC4/I2C_EZI2C_INT.c **** 
 471:Generated_Source\PSoC4/I2C_EZI2C_INT.c ****                         /* Slave is read or written: set current offset */
 472:Generated_Source\PSoC4/I2C_EZI2C_INT.c ****                         locIndex = I2C_EZI2C_GET_OFFSET(activeAddress);
 442              		.loc 1 472 0
 443 021e 2C4B     		ldr	r3, .L38+28
 444 0220 1B78     		ldrb	r3, [r3]
 445 0222 1C00     		movs	r4, r3
 446              	.LVL29:
 473:Generated_Source\PSoC4/I2C_EZI2C_INT.c **** 
 474:Generated_Source\PSoC4/I2C_EZI2C_INT.c ****                         /* Check transaction direction */
 475:Generated_Source\PSoC4/I2C_EZI2C_INT.c ****                         if(I2C_CHECK_I2C_STATUS(I2C_I2C_STATUS_S_READ))
 447              		.loc 1 475 0
 448 0224 3B4A     		ldr	r2, .L38+96
 449 0226 1268     		ldr	r2, [r2]
 450 0228 D206     		lsls	r2, r2, #27
 451 022a 12D5     		bpl	.L29
 476:Generated_Source\PSoC4/I2C_EZI2C_INT.c ****                         {
 477:Generated_Source\PSoC4/I2C_EZI2C_INT.c ****                             /* Calculate slave buffer size */
 478:Generated_Source\PSoC4/I2C_EZI2C_INT.c ****                             locBufSize = I2C_bufSizeBuf1 - (uint16) locIndex;
 452              		.loc 1 478 0
 453 022c 364A     		ldr	r2, .L38+84
 454 022e 1288     		ldrh	r2, [r2]
 455 0230 D31A     		subs	r3, r2, r3
 456              	.LVL30:
 457 0232 324A     		ldr	r2, .L38+72
 458 0234 1380     		strh	r3, [r2]
 479:Generated_Source\PSoC4/I2C_EZI2C_INT.c **** 
 480:Generated_Source\PSoC4/I2C_EZI2C_INT.c ****                             /* Clear TX FIFO to start fill from offset */
 481:Generated_Source\PSoC4/I2C_EZI2C_INT.c ****                             I2C_CLEAR_TX_FIFO;
 459              		.loc 1 481 0
 460 0236 384B     		ldr	r3, .L38+100
 461 0238 1A68     		ldr	r2, [r3]
 462 023a 8021     		movs	r1, #128
 463 023c 4902     		lsls	r1, r1, #9
 464 023e 0A43     		orrs	r2, r1
 465 0240 1A60     		str	r2, [r3]
 466 0242 1968     		ldr	r1, [r3]
 467 0244 354A     		ldr	r2, .L38+104
 468 0246 0A40     		ands	r2, r1
 469 0248 1A60     		str	r2, [r3]
 482:Generated_Source\PSoC4/I2C_EZI2C_INT.c ****                             I2C_SetTxInterruptMode(I2C_INTR_TX_EMPTY);
 470              		.loc 1 482 0
 471 024a 1022     		movs	r2, #16
 472 024c 1F4B     		ldr	r3, .L38+24
 473 024e 1A60     		str	r2, [r3]
 474 0250 02E0     		b	.L30
 475              	.LVL31:
 476              	.L29:
 483:Generated_Source\PSoC4/I2C_EZI2C_INT.c ****                         }
 484:Generated_Source\PSoC4/I2C_EZI2C_INT.c ****                         else
 485:Generated_Source\PSoC4/I2C_EZI2C_INT.c ****                         {
 486:Generated_Source\PSoC4/I2C_EZI2C_INT.c ****                             /* Master writes: enable reception interrupt. The FSM state was set in 
ARM GAS  C:\Users\jagumiel\AppData\Local\Temp\ccK6w6Mx.s 			page 18


 487:Generated_Source\PSoC4/I2C_EZI2C_INT.c ****                             I2C_SetRxInterruptMode(I2C_INTR_RX_NOT_EMPTY);
 477              		.loc 1 487 0
 478 0252 0422     		movs	r2, #4
 479 0254 214B     		ldr	r3, .L38+40
 480              	.LVL32:
 481 0256 1A60     		str	r2, [r3]
 482              	.L30:
 488:Generated_Source\PSoC4/I2C_EZI2C_INT.c ****                         }
 489:Generated_Source\PSoC4/I2C_EZI2C_INT.c **** 
 490:Generated_Source\PSoC4/I2C_EZI2C_INT.c ****                         /* Clear interrupt sources before ACK address */
 491:Generated_Source\PSoC4/I2C_EZI2C_INT.c ****                         I2C_ClearI2CExtClkInterruptSource(I2C_INTR_I2C_EC_WAKE_UP);
 483              		.loc 1 491 0
 484 0258 0123     		movs	r3, #1
 485 025a 314A     		ldr	r2, .L38+108
 486 025c 1360     		str	r3, [r2]
 492:Generated_Source\PSoC4/I2C_EZI2C_INT.c ****                         I2C_ClearSlaveInterruptSource(I2C_INTR_SLAVE_ALL);
 487              		.loc 1 492 0
 488 025e 2249     		ldr	r1, .L38+52
 489 0260 164A     		ldr	r2, .L38+8
 490 0262 1160     		str	r1, [r2]
 493:Generated_Source\PSoC4/I2C_EZI2C_INT.c **** 
 494:Generated_Source\PSoC4/I2C_EZI2C_INT.c ****                     #if (!I2C_CY_SCBIP_V0)
 495:Generated_Source\PSoC4/I2C_EZI2C_INT.c ****                         /* Enable STOP to trigger after address match is ACKed. Ticket ID#156094 */
 496:Generated_Source\PSoC4/I2C_EZI2C_INT.c ****                         I2C_ENABLE_INTR_SLAVE(I2C_INTR_SLAVE_I2C_STOP);
 497:Generated_Source\PSoC4/I2C_EZI2C_INT.c ****                     #endif /* (!I2C_CY_SCBIP_V0) */
 498:Generated_Source\PSoC4/I2C_EZI2C_INT.c **** 
 499:Generated_Source\PSoC4/I2C_EZI2C_INT.c ****                         /* ACK the address byte */
 500:Generated_Source\PSoC4/I2C_EZI2C_INT.c ****                         I2C_I2C_SLAVE_GENERATE_ACK;
 491              		.loc 1 500 0
 492 0264 264A     		ldr	r2, .L38+76
 493 0266 1360     		str	r3, [r2]
 494              	.L28:
 501:Generated_Source\PSoC4/I2C_EZI2C_INT.c ****                     }
 502:Generated_Source\PSoC4/I2C_EZI2C_INT.c ****                 }
 503:Generated_Source\PSoC4/I2C_EZI2C_INT.c **** 
 504:Generated_Source\PSoC4/I2C_EZI2C_INT.c ****                 /* Clear slave interrupt sources */
 505:Generated_Source\PSoC4/I2C_EZI2C_INT.c ****                 I2C_ClearSlaveInterruptSource(locIntrSlave);
 495              		.loc 1 505 0
 496 0268 144B     		ldr	r3, .L38+8
 497 026a 1D60     		str	r5, [r3]
 498              	.L25:
 506:Generated_Source\PSoC4/I2C_EZI2C_INT.c ****             }
 507:Generated_Source\PSoC4/I2C_EZI2C_INT.c **** 
 508:Generated_Source\PSoC4/I2C_EZI2C_INT.c ****             /* INTR_TX.EMPTY */
 509:Generated_Source\PSoC4/I2C_EZI2C_INT.c ****             /* Transmits data to the master: loads data into the TX FIFO. The 0xFF sends out if the
 510:Generated_Source\PSoC4/I2C_EZI2C_INT.c ****             * out the buffer. The address reception with a read flag clears the TX FIFO to be loade
 511:Generated_Source\PSoC4/I2C_EZI2C_INT.c ****             */
 512:Generated_Source\PSoC4/I2C_EZI2C_INT.c ****             if(0u != (I2C_GetInterruptCause() & I2C_INTR_CAUSE_TX))
 499              		.loc 1 512 0
 500 026c 144B     		ldr	r3, .L38+12
 501 026e 1B68     		ldr	r3, [r3]
 502 0270 5B07     		lsls	r3, r3, #29
 503 0272 1CD5     		bpl	.L6
 504              	.L33:
 513:Generated_Source\PSoC4/I2C_EZI2C_INT.c ****             {
 514:Generated_Source\PSoC4/I2C_EZI2C_INT.c ****                 /* Put data into TX FIFO until there is a room */
 515:Generated_Source\PSoC4/I2C_EZI2C_INT.c ****                 do
ARM GAS  C:\Users\jagumiel\AppData\Local\Temp\ccK6w6Mx.s 			page 19


 516:Generated_Source\PSoC4/I2C_EZI2C_INT.c ****                 {
 517:Generated_Source\PSoC4/I2C_EZI2C_INT.c ****                     /* Check transmit buffer range: locBufSize calculates after address reception *
 518:Generated_Source\PSoC4/I2C_EZI2C_INT.c ****                     if(0u != locBufSize)
 505              		.loc 1 518 0
 506 0274 214B     		ldr	r3, .L38+72
 507 0276 1B88     		ldrh	r3, [r3]
 508 0278 002B     		cmp	r3, #0
 509 027a 0CD0     		beq	.L31
 519:Generated_Source\PSoC4/I2C_EZI2C_INT.c ****                     {
 520:Generated_Source\PSoC4/I2C_EZI2C_INT.c ****                         I2C_TX_FIFO_WR_REG = (uint32) I2C_dataBuffer1[locIndex];
 510              		.loc 1 520 0
 511 027c 214B     		ldr	r3, .L38+80
 512 027e 1B68     		ldr	r3, [r3]
 513 0280 1B19     		adds	r3, r3, r4
 514 0282 1B78     		ldrb	r3, [r3]
 515 0284 DBB2     		uxtb	r3, r3
 516 0286 274A     		ldr	r2, .L38+112
 517 0288 1360     		str	r3, [r2]
 521:Generated_Source\PSoC4/I2C_EZI2C_INT.c ****                         locIndex++;
 518              		.loc 1 521 0
 519 028a 0134     		adds	r4, r4, #1
 520              	.LVL33:
 522:Generated_Source\PSoC4/I2C_EZI2C_INT.c ****                         locBufSize--;
 521              		.loc 1 522 0
 522 028c 1B4A     		ldr	r2, .L38+72
 523 028e 1388     		ldrh	r3, [r2]
 524 0290 013B     		subs	r3, r3, #1
 525 0292 1380     		strh	r3, [r2]
 526 0294 02E0     		b	.L32
 527              	.L31:
 523:Generated_Source\PSoC4/I2C_EZI2C_INT.c ****                     }
 524:Generated_Source\PSoC4/I2C_EZI2C_INT.c ****                     else
 525:Generated_Source\PSoC4/I2C_EZI2C_INT.c ****                     {
 526:Generated_Source\PSoC4/I2C_EZI2C_INT.c ****                         I2C_TX_FIFO_WR_REG = I2C_EZI2C_OVFL_RETURN;
 528              		.loc 1 526 0
 529 0296 FF22     		movs	r2, #255
 530 0298 224B     		ldr	r3, .L38+112
 531 029a 1A60     		str	r2, [r3]
 532              	.L32:
 527:Generated_Source\PSoC4/I2C_EZI2C_INT.c ****                     }
 528:Generated_Source\PSoC4/I2C_EZI2C_INT.c ****                 }
 529:Generated_Source\PSoC4/I2C_EZI2C_INT.c ****                 while(I2C_EZI2C_FIFO_SIZE != I2C_GET_TX_FIFO_ENTRIES);
 533              		.loc 1 529 0
 534 029c 224B     		ldr	r3, .L38+116
 535 029e 1B68     		ldr	r3, [r3]
 536 02a0 0F22     		movs	r2, #15
 537 02a2 1340     		ands	r3, r2
 538 02a4 082B     		cmp	r3, #8
 539 02a6 E5D1     		bne	.L33
 530:Generated_Source\PSoC4/I2C_EZI2C_INT.c **** 
 531:Generated_Source\PSoC4/I2C_EZI2C_INT.c ****                 I2C_ClearTxInterruptSource(I2C_INTR_TX_EMPTY);
 540              		.loc 1 531 0
 541 02a8 0132     		adds	r2, r2, #1
 542 02aa 204B     		ldr	r3, .L38+120
 543 02ac 1A60     		str	r2, [r3]
 544              	.L6:
 532:Generated_Source\PSoC4/I2C_EZI2C_INT.c ****             }
ARM GAS  C:\Users\jagumiel\AppData\Local\Temp\ccK6w6Mx.s 			page 20


 533:Generated_Source\PSoC4/I2C_EZI2C_INT.c ****         }
 534:Generated_Source\PSoC4/I2C_EZI2C_INT.c **** 
 535:Generated_Source\PSoC4/I2C_EZI2C_INT.c ****         /* Store local index copy into global variable */
 536:Generated_Source\PSoC4/I2C_EZI2C_INT.c ****         I2C_EZI2C_SET_INDEX(activeAddress, locIndex);
 545              		.loc 1 536 0
 546 02ae 024B     		ldr	r3, .L38+4
 547 02b0 1C80     		strh	r4, [r3]
 537:Generated_Source\PSoC4/I2C_EZI2C_INT.c **** 
 538:Generated_Source\PSoC4/I2C_EZI2C_INT.c ****     #ifdef I2C_EZI2C_STRETCH_ISR_EXIT_CALLBACK
 539:Generated_Source\PSoC4/I2C_EZI2C_INT.c ****         I2C_EZI2C_STRETCH_ISR_ExitCallback();
 540:Generated_Source\PSoC4/I2C_EZI2C_INT.c ****     #endif /* I2C_EZI2C_STRETCH_ISR_EXIT_CALLBACK */
 541:Generated_Source\PSoC4/I2C_EZI2C_INT.c **** 
 542:Generated_Source\PSoC4/I2C_EZI2C_INT.c ****     }
 548              		.loc 1 542 0
 549              		@ sp needed
 550              	.LVL34:
 551              	.LVL35:
 552              	.LVL36:
 553 02b2 70BD     		pop	{r4, r5, r6, pc}
 554              	.L39:
 555              		.align	2
 556              	.L38:
 557 02b4 00000000 		.word	I2C_customIntrHandler
 558 02b8 00000000 		.word	I2C_indexBuf1
 559 02bc 400F0740 		.word	1074204480
 560 02c0 000E0740 		.word	1074204160
 561 02c4 00000740 		.word	1074200576
 562 02c8 00000000 		.word	I2C_curStatus
 563 02cc 880F0740 		.word	1074204552
 564 02d0 00000000 		.word	I2C_offsetBuf1
 565 02d4 60000740 		.word	1074200672
 566 02d8 FF5FFFFF 		.word	-40961
 567 02dc C80F0740 		.word	1074204616
 568 02e0 ED0F0000 		.word	4077
 569 02e4 C00F0740 		.word	1074204608
 570 02e8 FF0F0000 		.word	4095
 571 02ec 00000000 		.word	I2C_fsmState
 572 02f0 880E0740 		.word	1074204296
 573 02f4 CC0F0740 		.word	1074204620
 574 02f8 40030740 		.word	1074201408
 575 02fc 00000000 		.word	.LANCHOR0
 576 0300 6C000740 		.word	1074200684
 577 0304 00000000 		.word	I2C_dataBuffer1
 578 0308 00000000 		.word	I2C_bufSizeBuf1
 579 030c 00000000 		.word	I2C_protectBuf1
 580 0310 08030740 		.word	1074201352
 581 0314 64000740 		.word	1074200676
 582 0318 04020740 		.word	1074201092
 583 031c FFFFFEFF 		.word	-65537
 584 0320 800E0740 		.word	1074204288
 585 0324 40020740 		.word	1074201152
 586 0328 08020740 		.word	1074201096
 587 032c 800F0740 		.word	1074204544
 588              		.cfi_endproc
 589              	.LFE0:
 590              		.size	I2C_EZI2C_STRETCH_ISR, .-I2C_EZI2C_STRETCH_ISR
 591              		.bss
ARM GAS  C:\Users\jagumiel\AppData\Local\Temp\ccK6w6Mx.s 			page 21


 592              		.align	1
 593              		.set	.LANCHOR0,. + 0
 594              		.type	locBufSize.4923, %object
 595              		.size	locBufSize.4923, 2
 596              	locBufSize.4923:
 597 0000 0000     		.space	2
 598              		.text
 599              	.Letext0:
 600              		.file 2 "Generated_Source\\PSoC4/cytypes.h"
 601              		.file 3 "Generated_Source\\PSoC4\\I2C_PVT.h"
 602              		.file 4 "Generated_Source\\PSoC4\\I2C_EZI2C_PVT.h"
 603              		.file 5 "Generated_Source\\PSoC4\\I2C.h"
 604              		.file 6 "Generated_Source\\PSoC4/CyLib.h"