ARM GAS  C:\Users\jagumiel\AppData\Local\Temp\ccL8R2ew.s 			page 1


   1              		.syntax unified
   2              		.cpu cortex-m0
   3              		.fpu softvfp
   4              		.eabi_attribute 20, 1
   5              		.eabi_attribute 21, 1
   6              		.eabi_attribute 23, 3
   7              		.eabi_attribute 24, 1
   8              		.eabi_attribute 25, 1
   9              		.eabi_attribute 26, 1
  10              		.eabi_attribute 30, 6
  11              		.eabi_attribute 34, 0
  12              		.eabi_attribute 18, 4
  13              		.thumb
  14              		.syntax unified
  15              		.file	"Button_Right_ISR.c"
  16              		.text
  17              	.Ltext0:
  18              		.cfi_sections	.debug_frame
  19              		.section	.text.Button_Right_ISR_Start,"ax",%progbits
  20              		.align	2
  21              		.global	Button_Right_ISR_Start
  22              		.code	16
  23              		.thumb_func
  24              		.type	Button_Right_ISR_Start, %function
  25              	Button_Right_ISR_Start:
  26              	.LFB0:
  27              		.file 1 "Generated_Source\\PSoC4\\Button_Right_ISR.c"
   1:Generated_Source\PSoC4/Button_Right_ISR.c **** /*******************************************************************************
   2:Generated_Source\PSoC4/Button_Right_ISR.c **** * File Name: Button_Right_ISR.c  
   3:Generated_Source\PSoC4/Button_Right_ISR.c **** * Version 1.70
   4:Generated_Source\PSoC4/Button_Right_ISR.c **** *
   5:Generated_Source\PSoC4/Button_Right_ISR.c **** *  Description:
   6:Generated_Source\PSoC4/Button_Right_ISR.c **** *   API for controlling the state of an interrupt.
   7:Generated_Source\PSoC4/Button_Right_ISR.c **** *
   8:Generated_Source\PSoC4/Button_Right_ISR.c **** *
   9:Generated_Source\PSoC4/Button_Right_ISR.c **** *  Note:
  10:Generated_Source\PSoC4/Button_Right_ISR.c **** *
  11:Generated_Source\PSoC4/Button_Right_ISR.c **** ********************************************************************************
  12:Generated_Source\PSoC4/Button_Right_ISR.c **** * Copyright 2008-2015, Cypress Semiconductor Corporation.  All rights reserved.
  13:Generated_Source\PSoC4/Button_Right_ISR.c **** * You may use this file only in accordance with the license, terms, conditions, 
  14:Generated_Source\PSoC4/Button_Right_ISR.c **** * disclaimers, and limitations in the end user license agreement accompanying 
  15:Generated_Source\PSoC4/Button_Right_ISR.c **** * the software package with which this file was provided.
  16:Generated_Source\PSoC4/Button_Right_ISR.c **** *******************************************************************************/
  17:Generated_Source\PSoC4/Button_Right_ISR.c **** 
  18:Generated_Source\PSoC4/Button_Right_ISR.c **** 
  19:Generated_Source\PSoC4/Button_Right_ISR.c **** #include <cydevice_trm.h>
  20:Generated_Source\PSoC4/Button_Right_ISR.c **** #include <CyLib.h>
  21:Generated_Source\PSoC4/Button_Right_ISR.c **** #include <Button_Right_ISR.h>
  22:Generated_Source\PSoC4/Button_Right_ISR.c **** #include "cyapicallbacks.h"
  23:Generated_Source\PSoC4/Button_Right_ISR.c **** 
  24:Generated_Source\PSoC4/Button_Right_ISR.c **** #if !defined(Button_Right_ISR__REMOVED) /* Check for removal by optimization */
  25:Generated_Source\PSoC4/Button_Right_ISR.c **** 
  26:Generated_Source\PSoC4/Button_Right_ISR.c **** /*******************************************************************************
  27:Generated_Source\PSoC4/Button_Right_ISR.c **** *  Place your includes, defines and code here 
  28:Generated_Source\PSoC4/Button_Right_ISR.c **** ********************************************************************************/
  29:Generated_Source\PSoC4/Button_Right_ISR.c **** /* `#START Button_Right_ISR_intc` */
  30:Generated_Source\PSoC4/Button_Right_ISR.c **** 
ARM GAS  C:\Users\jagumiel\AppData\Local\Temp\ccL8R2ew.s 			page 2


  31:Generated_Source\PSoC4/Button_Right_ISR.c **** /* `#END` */
  32:Generated_Source\PSoC4/Button_Right_ISR.c **** 
  33:Generated_Source\PSoC4/Button_Right_ISR.c **** extern cyisraddress CyRamVectors[CYINT_IRQ_BASE + CY_NUM_INTERRUPTS];
  34:Generated_Source\PSoC4/Button_Right_ISR.c **** 
  35:Generated_Source\PSoC4/Button_Right_ISR.c **** /* Declared in startup, used to set unused interrupts to. */
  36:Generated_Source\PSoC4/Button_Right_ISR.c **** CY_ISR_PROTO(IntDefaultHandler);
  37:Generated_Source\PSoC4/Button_Right_ISR.c **** 
  38:Generated_Source\PSoC4/Button_Right_ISR.c **** 
  39:Generated_Source\PSoC4/Button_Right_ISR.c **** /*******************************************************************************
  40:Generated_Source\PSoC4/Button_Right_ISR.c **** * Function Name: Button_Right_ISR_Start
  41:Generated_Source\PSoC4/Button_Right_ISR.c **** ********************************************************************************
  42:Generated_Source\PSoC4/Button_Right_ISR.c **** *
  43:Generated_Source\PSoC4/Button_Right_ISR.c **** * Summary:
  44:Generated_Source\PSoC4/Button_Right_ISR.c **** *  Set up the interrupt and enable it. This function disables the interrupt, 
  45:Generated_Source\PSoC4/Button_Right_ISR.c **** *  sets the default interrupt vector, sets the priority from the value in the
  46:Generated_Source\PSoC4/Button_Right_ISR.c **** *  Design Wide Resources Interrupt Editor, then enables the interrupt to the 
  47:Generated_Source\PSoC4/Button_Right_ISR.c **** *  interrupt controller.
  48:Generated_Source\PSoC4/Button_Right_ISR.c **** *
  49:Generated_Source\PSoC4/Button_Right_ISR.c **** * Parameters:  
  50:Generated_Source\PSoC4/Button_Right_ISR.c **** *   None
  51:Generated_Source\PSoC4/Button_Right_ISR.c **** *
  52:Generated_Source\PSoC4/Button_Right_ISR.c **** * Return:
  53:Generated_Source\PSoC4/Button_Right_ISR.c **** *   None
  54:Generated_Source\PSoC4/Button_Right_ISR.c **** *
  55:Generated_Source\PSoC4/Button_Right_ISR.c **** *******************************************************************************/
  56:Generated_Source\PSoC4/Button_Right_ISR.c **** void Button_Right_ISR_Start(void)
  57:Generated_Source\PSoC4/Button_Right_ISR.c **** {
  28              		.loc 1 57 0
  29              		.cfi_startproc
  30              		@ args = 0, pretend = 0, frame = 0
  31              		@ frame_needed = 1, uses_anonymous_args = 0
  32 0000 80B5     		push	{r7, lr}
  33              		.cfi_def_cfa_offset 8
  34              		.cfi_offset 7, -8
  35              		.cfi_offset 14, -4
  36 0002 00AF     		add	r7, sp, #0
  37              		.cfi_def_cfa_register 7
  58:Generated_Source\PSoC4/Button_Right_ISR.c ****     /* For all we know the interrupt is active. */
  59:Generated_Source\PSoC4/Button_Right_ISR.c ****     Button_Right_ISR_Disable();
  38              		.loc 1 59 0
  39 0004 FFF7FEFF 		bl	Button_Right_ISR_Disable
  60:Generated_Source\PSoC4/Button_Right_ISR.c **** 
  61:Generated_Source\PSoC4/Button_Right_ISR.c ****     /* Set the ISR to point to the Button_Right_ISR Interrupt. */
  62:Generated_Source\PSoC4/Button_Right_ISR.c ****     Button_Right_ISR_SetVector(&Button_Right_ISR_Interrupt);
  40              		.loc 1 62 0
  41 0008 054B     		ldr	r3, .L2
  42 000a 1800     		movs	r0, r3
  43 000c FFF7FEFF 		bl	Button_Right_ISR_SetVector
  63:Generated_Source\PSoC4/Button_Right_ISR.c **** 
  64:Generated_Source\PSoC4/Button_Right_ISR.c ****     /* Set the priority. */
  65:Generated_Source\PSoC4/Button_Right_ISR.c ****     Button_Right_ISR_SetPriority((uint8)Button_Right_ISR_INTC_PRIOR_NUMBER);
  44              		.loc 1 65 0
  45 0010 0320     		movs	r0, #3
  46 0012 FFF7FEFF 		bl	Button_Right_ISR_SetPriority
  66:Generated_Source\PSoC4/Button_Right_ISR.c **** 
  67:Generated_Source\PSoC4/Button_Right_ISR.c ****     /* Enable it. */
  68:Generated_Source\PSoC4/Button_Right_ISR.c ****     Button_Right_ISR_Enable();
ARM GAS  C:\Users\jagumiel\AppData\Local\Temp\ccL8R2ew.s 			page 3


  47              		.loc 1 68 0
  48 0016 FFF7FEFF 		bl	Button_Right_ISR_Enable
  69:Generated_Source\PSoC4/Button_Right_ISR.c **** }
  49              		.loc 1 69 0
  50 001a C046     		nop
  51 001c BD46     		mov	sp, r7
  52              		@ sp needed
  53 001e 80BD     		pop	{r7, pc}
  54              	.L3:
  55              		.align	2
  56              	.L2:
  57 0020 00000000 		.word	Button_Right_ISR_Interrupt
  58              		.cfi_endproc
  59              	.LFE0:
  60              		.size	Button_Right_ISR_Start, .-Button_Right_ISR_Start
  61              		.section	.text.Button_Right_ISR_StartEx,"ax",%progbits
  62              		.align	2
  63              		.global	Button_Right_ISR_StartEx
  64              		.code	16
  65              		.thumb_func
  66              		.type	Button_Right_ISR_StartEx, %function
  67              	Button_Right_ISR_StartEx:
  68              	.LFB1:
  70:Generated_Source\PSoC4/Button_Right_ISR.c **** 
  71:Generated_Source\PSoC4/Button_Right_ISR.c **** 
  72:Generated_Source\PSoC4/Button_Right_ISR.c **** /*******************************************************************************
  73:Generated_Source\PSoC4/Button_Right_ISR.c **** * Function Name: Button_Right_ISR_StartEx
  74:Generated_Source\PSoC4/Button_Right_ISR.c **** ********************************************************************************
  75:Generated_Source\PSoC4/Button_Right_ISR.c **** *
  76:Generated_Source\PSoC4/Button_Right_ISR.c **** * Summary:
  77:Generated_Source\PSoC4/Button_Right_ISR.c **** *  Sets up the interrupt and enables it. This function disables the interrupt,
  78:Generated_Source\PSoC4/Button_Right_ISR.c **** *  sets the interrupt vector based on the address passed in, sets the priority 
  79:Generated_Source\PSoC4/Button_Right_ISR.c **** *  from the value in the Design Wide Resources Interrupt Editor, then enables 
  80:Generated_Source\PSoC4/Button_Right_ISR.c **** *  the interrupt to the interrupt controller.
  81:Generated_Source\PSoC4/Button_Right_ISR.c **** *  
  82:Generated_Source\PSoC4/Button_Right_ISR.c **** *  When defining ISR functions, the CY_ISR and CY_ISR_PROTO macros should be 
  83:Generated_Source\PSoC4/Button_Right_ISR.c **** *  used to provide consistent definition across compilers:
  84:Generated_Source\PSoC4/Button_Right_ISR.c **** *  
  85:Generated_Source\PSoC4/Button_Right_ISR.c **** *  Function definition example:
  86:Generated_Source\PSoC4/Button_Right_ISR.c **** *   CY_ISR(MyISR)
  87:Generated_Source\PSoC4/Button_Right_ISR.c **** *   {
  88:Generated_Source\PSoC4/Button_Right_ISR.c **** *   }
  89:Generated_Source\PSoC4/Button_Right_ISR.c **** *   Function prototype example:
  90:Generated_Source\PSoC4/Button_Right_ISR.c **** *   CY_ISR_PROTO(MyISR);
  91:Generated_Source\PSoC4/Button_Right_ISR.c **** *
  92:Generated_Source\PSoC4/Button_Right_ISR.c **** * Parameters:  
  93:Generated_Source\PSoC4/Button_Right_ISR.c **** *   address: Address of the ISR to set in the interrupt vector table.
  94:Generated_Source\PSoC4/Button_Right_ISR.c **** *
  95:Generated_Source\PSoC4/Button_Right_ISR.c **** * Return:
  96:Generated_Source\PSoC4/Button_Right_ISR.c **** *   None
  97:Generated_Source\PSoC4/Button_Right_ISR.c **** *
  98:Generated_Source\PSoC4/Button_Right_ISR.c **** *******************************************************************************/
  99:Generated_Source\PSoC4/Button_Right_ISR.c **** void Button_Right_ISR_StartEx(cyisraddress address)
 100:Generated_Source\PSoC4/Button_Right_ISR.c **** {
  69              		.loc 1 100 0
  70              		.cfi_startproc
  71              		@ args = 0, pretend = 0, frame = 8
ARM GAS  C:\Users\jagumiel\AppData\Local\Temp\ccL8R2ew.s 			page 4


  72              		@ frame_needed = 1, uses_anonymous_args = 0
  73 0000 80B5     		push	{r7, lr}
  74              		.cfi_def_cfa_offset 8
  75              		.cfi_offset 7, -8
  76              		.cfi_offset 14, -4
  77 0002 82B0     		sub	sp, sp, #8
  78              		.cfi_def_cfa_offset 16
  79 0004 00AF     		add	r7, sp, #0
  80              		.cfi_def_cfa_register 7
  81 0006 7860     		str	r0, [r7, #4]
 101:Generated_Source\PSoC4/Button_Right_ISR.c ****     /* For all we know the interrupt is active. */
 102:Generated_Source\PSoC4/Button_Right_ISR.c ****     Button_Right_ISR_Disable();
  82              		.loc 1 102 0
  83 0008 FFF7FEFF 		bl	Button_Right_ISR_Disable
 103:Generated_Source\PSoC4/Button_Right_ISR.c **** 
 104:Generated_Source\PSoC4/Button_Right_ISR.c ****     /* Set the ISR to point to the Button_Right_ISR Interrupt. */
 105:Generated_Source\PSoC4/Button_Right_ISR.c ****     Button_Right_ISR_SetVector(address);
  84              		.loc 1 105 0
  85 000c 7B68     		ldr	r3, [r7, #4]
  86 000e 1800     		movs	r0, r3
  87 0010 FFF7FEFF 		bl	Button_Right_ISR_SetVector
 106:Generated_Source\PSoC4/Button_Right_ISR.c **** 
 107:Generated_Source\PSoC4/Button_Right_ISR.c ****     /* Set the priority. */
 108:Generated_Source\PSoC4/Button_Right_ISR.c ****     Button_Right_ISR_SetPriority((uint8)Button_Right_ISR_INTC_PRIOR_NUMBER);
  88              		.loc 1 108 0
  89 0014 0320     		movs	r0, #3
  90 0016 FFF7FEFF 		bl	Button_Right_ISR_SetPriority
 109:Generated_Source\PSoC4/Button_Right_ISR.c **** 
 110:Generated_Source\PSoC4/Button_Right_ISR.c ****     /* Enable it. */
 111:Generated_Source\PSoC4/Button_Right_ISR.c ****     Button_Right_ISR_Enable();
  91              		.loc 1 111 0
  92 001a FFF7FEFF 		bl	Button_Right_ISR_Enable
 112:Generated_Source\PSoC4/Button_Right_ISR.c **** }
  93              		.loc 1 112 0
  94 001e C046     		nop
  95 0020 BD46     		mov	sp, r7
  96 0022 02B0     		add	sp, sp, #8
  97              		@ sp needed
  98 0024 80BD     		pop	{r7, pc}
  99              		.cfi_endproc
 100              	.LFE1:
 101              		.size	Button_Right_ISR_StartEx, .-Button_Right_ISR_StartEx
 102 0026 C046     		.section	.text.Button_Right_ISR_Stop,"ax",%progbits
 103              		.align	2
 104              		.global	Button_Right_ISR_Stop
 105              		.code	16
 106              		.thumb_func
 107              		.type	Button_Right_ISR_Stop, %function
 108              	Button_Right_ISR_Stop:
 109              	.LFB2:
 113:Generated_Source\PSoC4/Button_Right_ISR.c **** 
 114:Generated_Source\PSoC4/Button_Right_ISR.c **** 
 115:Generated_Source\PSoC4/Button_Right_ISR.c **** /*******************************************************************************
 116:Generated_Source\PSoC4/Button_Right_ISR.c **** * Function Name: Button_Right_ISR_Stop
 117:Generated_Source\PSoC4/Button_Right_ISR.c **** ********************************************************************************
 118:Generated_Source\PSoC4/Button_Right_ISR.c **** *
 119:Generated_Source\PSoC4/Button_Right_ISR.c **** * Summary:
ARM GAS  C:\Users\jagumiel\AppData\Local\Temp\ccL8R2ew.s 			page 5


 120:Generated_Source\PSoC4/Button_Right_ISR.c **** *   Disables and removes the interrupt.
 121:Generated_Source\PSoC4/Button_Right_ISR.c **** *
 122:Generated_Source\PSoC4/Button_Right_ISR.c **** * Parameters:  
 123:Generated_Source\PSoC4/Button_Right_ISR.c **** *   None
 124:Generated_Source\PSoC4/Button_Right_ISR.c **** *
 125:Generated_Source\PSoC4/Button_Right_ISR.c **** * Return:
 126:Generated_Source\PSoC4/Button_Right_ISR.c **** *   None
 127:Generated_Source\PSoC4/Button_Right_ISR.c **** *
 128:Generated_Source\PSoC4/Button_Right_ISR.c **** *******************************************************************************/
 129:Generated_Source\PSoC4/Button_Right_ISR.c **** void Button_Right_ISR_Stop(void)
 130:Generated_Source\PSoC4/Button_Right_ISR.c **** {
 110              		.loc 1 130 0
 111              		.cfi_startproc
 112              		@ args = 0, pretend = 0, frame = 0
 113              		@ frame_needed = 1, uses_anonymous_args = 0
 114 0000 80B5     		push	{r7, lr}
 115              		.cfi_def_cfa_offset 8
 116              		.cfi_offset 7, -8
 117              		.cfi_offset 14, -4
 118 0002 00AF     		add	r7, sp, #0
 119              		.cfi_def_cfa_register 7
 131:Generated_Source\PSoC4/Button_Right_ISR.c ****     /* Disable this interrupt. */
 132:Generated_Source\PSoC4/Button_Right_ISR.c ****     Button_Right_ISR_Disable();
 120              		.loc 1 132 0
 121 0004 FFF7FEFF 		bl	Button_Right_ISR_Disable
 133:Generated_Source\PSoC4/Button_Right_ISR.c **** 
 134:Generated_Source\PSoC4/Button_Right_ISR.c ****     /* Set the ISR to point to the passive one. */
 135:Generated_Source\PSoC4/Button_Right_ISR.c ****     Button_Right_ISR_SetVector(&IntDefaultHandler);
 122              		.loc 1 135 0
 123 0008 034B     		ldr	r3, .L6
 124 000a 1800     		movs	r0, r3
 125 000c FFF7FEFF 		bl	Button_Right_ISR_SetVector
 136:Generated_Source\PSoC4/Button_Right_ISR.c **** }
 126              		.loc 1 136 0
 127 0010 C046     		nop
 128 0012 BD46     		mov	sp, r7
 129              		@ sp needed
 130 0014 80BD     		pop	{r7, pc}
 131              	.L7:
 132 0016 C046     		.align	2
 133              	.L6:
 134 0018 00000000 		.word	IntDefaultHandler
 135              		.cfi_endproc
 136              	.LFE2:
 137              		.size	Button_Right_ISR_Stop, .-Button_Right_ISR_Stop
 138              		.section	.text.Button_Right_ISR_Interrupt,"ax",%progbits
 139              		.align	2
 140              		.global	Button_Right_ISR_Interrupt
 141              		.code	16
 142              		.thumb_func
 143              		.type	Button_Right_ISR_Interrupt, %function
 144              	Button_Right_ISR_Interrupt:
 145              	.LFB3:
 137:Generated_Source\PSoC4/Button_Right_ISR.c **** 
 138:Generated_Source\PSoC4/Button_Right_ISR.c **** 
 139:Generated_Source\PSoC4/Button_Right_ISR.c **** /*******************************************************************************
 140:Generated_Source\PSoC4/Button_Right_ISR.c **** * Function Name: Button_Right_ISR_Interrupt
ARM GAS  C:\Users\jagumiel\AppData\Local\Temp\ccL8R2ew.s 			page 6


 141:Generated_Source\PSoC4/Button_Right_ISR.c **** ********************************************************************************
 142:Generated_Source\PSoC4/Button_Right_ISR.c **** *
 143:Generated_Source\PSoC4/Button_Right_ISR.c **** * Summary:
 144:Generated_Source\PSoC4/Button_Right_ISR.c **** *   The default Interrupt Service Routine for Button_Right_ISR.
 145:Generated_Source\PSoC4/Button_Right_ISR.c **** *
 146:Generated_Source\PSoC4/Button_Right_ISR.c **** *   Add custom code between the START and END comments to keep the next version
 147:Generated_Source\PSoC4/Button_Right_ISR.c **** *   of this file from over-writing your code.
 148:Generated_Source\PSoC4/Button_Right_ISR.c **** *
 149:Generated_Source\PSoC4/Button_Right_ISR.c **** *   Note You may use either the default ISR by using this API, or you may define
 150:Generated_Source\PSoC4/Button_Right_ISR.c **** *   your own separate ISR through ISR_StartEx().
 151:Generated_Source\PSoC4/Button_Right_ISR.c **** *
 152:Generated_Source\PSoC4/Button_Right_ISR.c **** * Parameters:  
 153:Generated_Source\PSoC4/Button_Right_ISR.c **** *   None
 154:Generated_Source\PSoC4/Button_Right_ISR.c **** *
 155:Generated_Source\PSoC4/Button_Right_ISR.c **** * Return:
 156:Generated_Source\PSoC4/Button_Right_ISR.c **** *   None
 157:Generated_Source\PSoC4/Button_Right_ISR.c **** *
 158:Generated_Source\PSoC4/Button_Right_ISR.c **** *******************************************************************************/
 159:Generated_Source\PSoC4/Button_Right_ISR.c **** CY_ISR(Button_Right_ISR_Interrupt)
 160:Generated_Source\PSoC4/Button_Right_ISR.c **** {
 146              		.loc 1 160 0
 147              		.cfi_startproc
 148              		@ args = 0, pretend = 0, frame = 0
 149              		@ frame_needed = 1, uses_anonymous_args = 0
 150 0000 80B5     		push	{r7, lr}
 151              		.cfi_def_cfa_offset 8
 152              		.cfi_offset 7, -8
 153              		.cfi_offset 14, -4
 154 0002 00AF     		add	r7, sp, #0
 155              		.cfi_def_cfa_register 7
 161:Generated_Source\PSoC4/Button_Right_ISR.c ****     #ifdef Button_Right_ISR_INTERRUPT_INTERRUPT_CALLBACK
 162:Generated_Source\PSoC4/Button_Right_ISR.c ****         Button_Right_ISR_Interrupt_InterruptCallback();
 163:Generated_Source\PSoC4/Button_Right_ISR.c ****     #endif /* Button_Right_ISR_INTERRUPT_INTERRUPT_CALLBACK */ 
 164:Generated_Source\PSoC4/Button_Right_ISR.c **** 
 165:Generated_Source\PSoC4/Button_Right_ISR.c ****     /*  Place your Interrupt code here. */
 166:Generated_Source\PSoC4/Button_Right_ISR.c ****     /* `#START Button_Right_ISR_Interrupt` */
 167:Generated_Source\PSoC4/Button_Right_ISR.c **** 
 168:Generated_Source\PSoC4/Button_Right_ISR.c ****     /* `#END` */
 169:Generated_Source\PSoC4/Button_Right_ISR.c **** }
 156              		.loc 1 169 0
 157 0004 C046     		nop
 158 0006 BD46     		mov	sp, r7
 159              		@ sp needed
 160 0008 80BD     		pop	{r7, pc}
 161              		.cfi_endproc
 162              	.LFE3:
 163              		.size	Button_Right_ISR_Interrupt, .-Button_Right_ISR_Interrupt
 164              		.section	.text.Button_Right_ISR_SetVector,"ax",%progbits
 165              		.align	2
 166              		.global	Button_Right_ISR_SetVector
 167              		.code	16
 168              		.thumb_func
 169              		.type	Button_Right_ISR_SetVector, %function
 170              	Button_Right_ISR_SetVector:
 171              	.LFB4:
 170:Generated_Source\PSoC4/Button_Right_ISR.c **** 
 171:Generated_Source\PSoC4/Button_Right_ISR.c **** 
ARM GAS  C:\Users\jagumiel\AppData\Local\Temp\ccL8R2ew.s 			page 7


 172:Generated_Source\PSoC4/Button_Right_ISR.c **** /*******************************************************************************
 173:Generated_Source\PSoC4/Button_Right_ISR.c **** * Function Name: Button_Right_ISR_SetVector
 174:Generated_Source\PSoC4/Button_Right_ISR.c **** ********************************************************************************
 175:Generated_Source\PSoC4/Button_Right_ISR.c **** *
 176:Generated_Source\PSoC4/Button_Right_ISR.c **** * Summary:
 177:Generated_Source\PSoC4/Button_Right_ISR.c **** *   Change the ISR vector for the Interrupt. Note calling Button_Right_ISR_Start
 178:Generated_Source\PSoC4/Button_Right_ISR.c **** *   will override any effect this method would have had. To set the vector 
 179:Generated_Source\PSoC4/Button_Right_ISR.c **** *   before the component has been started use Button_Right_ISR_StartEx instead.
 180:Generated_Source\PSoC4/Button_Right_ISR.c **** * 
 181:Generated_Source\PSoC4/Button_Right_ISR.c **** *   When defining ISR functions, the CY_ISR and CY_ISR_PROTO macros should be 
 182:Generated_Source\PSoC4/Button_Right_ISR.c **** *   used to provide consistent definition across compilers:
 183:Generated_Source\PSoC4/Button_Right_ISR.c **** *
 184:Generated_Source\PSoC4/Button_Right_ISR.c **** *   Function definition example:
 185:Generated_Source\PSoC4/Button_Right_ISR.c **** *   CY_ISR(MyISR)
 186:Generated_Source\PSoC4/Button_Right_ISR.c **** *   {
 187:Generated_Source\PSoC4/Button_Right_ISR.c **** *   }
 188:Generated_Source\PSoC4/Button_Right_ISR.c **** *
 189:Generated_Source\PSoC4/Button_Right_ISR.c **** *   Function prototype example:
 190:Generated_Source\PSoC4/Button_Right_ISR.c **** *     CY_ISR_PROTO(MyISR);
 191:Generated_Source\PSoC4/Button_Right_ISR.c **** *
 192:Generated_Source\PSoC4/Button_Right_ISR.c **** * Parameters:
 193:Generated_Source\PSoC4/Button_Right_ISR.c **** *   address: Address of the ISR to set in the interrupt vector table.
 194:Generated_Source\PSoC4/Button_Right_ISR.c **** *
 195:Generated_Source\PSoC4/Button_Right_ISR.c **** * Return:
 196:Generated_Source\PSoC4/Button_Right_ISR.c **** *   None
 197:Generated_Source\PSoC4/Button_Right_ISR.c **** *
 198:Generated_Source\PSoC4/Button_Right_ISR.c **** *******************************************************************************/
 199:Generated_Source\PSoC4/Button_Right_ISR.c **** void Button_Right_ISR_SetVector(cyisraddress address)
 200:Generated_Source\PSoC4/Button_Right_ISR.c **** {
 172              		.loc 1 200 0
 173              		.cfi_startproc
 174              		@ args = 0, pretend = 0, frame = 8
 175              		@ frame_needed = 1, uses_anonymous_args = 0
 176 0000 80B5     		push	{r7, lr}
 177              		.cfi_def_cfa_offset 8
 178              		.cfi_offset 7, -8
 179              		.cfi_offset 14, -4
 180 0002 82B0     		sub	sp, sp, #8
 181              		.cfi_def_cfa_offset 16
 182 0004 00AF     		add	r7, sp, #0
 183              		.cfi_def_cfa_register 7
 184 0006 7860     		str	r0, [r7, #4]
 201:Generated_Source\PSoC4/Button_Right_ISR.c ****     CyRamVectors[CYINT_IRQ_BASE + Button_Right_ISR__INTC_NUMBER] = address;
 185              		.loc 1 201 0
 186 0008 034B     		ldr	r3, .L10
 187 000a 7A68     		ldr	r2, [r7, #4]
 188 000c 1A64     		str	r2, [r3, #64]
 202:Generated_Source\PSoC4/Button_Right_ISR.c **** }
 189              		.loc 1 202 0
 190 000e C046     		nop
 191 0010 BD46     		mov	sp, r7
 192 0012 02B0     		add	sp, sp, #8
 193              		@ sp needed
 194 0014 80BD     		pop	{r7, pc}
 195              	.L11:
 196 0016 C046     		.align	2
 197              	.L10:
ARM GAS  C:\Users\jagumiel\AppData\Local\Temp\ccL8R2ew.s 			page 8


 198 0018 00000000 		.word	CyRamVectors
 199              		.cfi_endproc
 200              	.LFE4:
 201              		.size	Button_Right_ISR_SetVector, .-Button_Right_ISR_SetVector
 202              		.section	.text.Button_Right_ISR_GetVector,"ax",%progbits
 203              		.align	2
 204              		.global	Button_Right_ISR_GetVector
 205              		.code	16
 206              		.thumb_func
 207              		.type	Button_Right_ISR_GetVector, %function
 208              	Button_Right_ISR_GetVector:
 209              	.LFB5:
 203:Generated_Source\PSoC4/Button_Right_ISR.c **** 
 204:Generated_Source\PSoC4/Button_Right_ISR.c **** 
 205:Generated_Source\PSoC4/Button_Right_ISR.c **** /*******************************************************************************
 206:Generated_Source\PSoC4/Button_Right_ISR.c **** * Function Name: Button_Right_ISR_GetVector
 207:Generated_Source\PSoC4/Button_Right_ISR.c **** ********************************************************************************
 208:Generated_Source\PSoC4/Button_Right_ISR.c **** *
 209:Generated_Source\PSoC4/Button_Right_ISR.c **** * Summary:
 210:Generated_Source\PSoC4/Button_Right_ISR.c **** *   Gets the "address" of the current ISR vector for the Interrupt.
 211:Generated_Source\PSoC4/Button_Right_ISR.c **** *
 212:Generated_Source\PSoC4/Button_Right_ISR.c **** * Parameters:
 213:Generated_Source\PSoC4/Button_Right_ISR.c **** *   None
 214:Generated_Source\PSoC4/Button_Right_ISR.c **** *
 215:Generated_Source\PSoC4/Button_Right_ISR.c **** * Return:
 216:Generated_Source\PSoC4/Button_Right_ISR.c **** *   Address of the ISR in the interrupt vector table.
 217:Generated_Source\PSoC4/Button_Right_ISR.c **** *
 218:Generated_Source\PSoC4/Button_Right_ISR.c **** *******************************************************************************/
 219:Generated_Source\PSoC4/Button_Right_ISR.c **** cyisraddress Button_Right_ISR_GetVector(void)
 220:Generated_Source\PSoC4/Button_Right_ISR.c **** {
 210              		.loc 1 220 0
 211              		.cfi_startproc
 212              		@ args = 0, pretend = 0, frame = 0
 213              		@ frame_needed = 1, uses_anonymous_args = 0
 214 0000 80B5     		push	{r7, lr}
 215              		.cfi_def_cfa_offset 8
 216              		.cfi_offset 7, -8
 217              		.cfi_offset 14, -4
 218 0002 00AF     		add	r7, sp, #0
 219              		.cfi_def_cfa_register 7
 221:Generated_Source\PSoC4/Button_Right_ISR.c ****     return CyRamVectors[CYINT_IRQ_BASE + Button_Right_ISR__INTC_NUMBER];
 220              		.loc 1 221 0
 221 0004 024B     		ldr	r3, .L14
 222 0006 1B6C     		ldr	r3, [r3, #64]
 222:Generated_Source\PSoC4/Button_Right_ISR.c **** }
 223              		.loc 1 222 0
 224 0008 1800     		movs	r0, r3
 225 000a BD46     		mov	sp, r7
 226              		@ sp needed
 227 000c 80BD     		pop	{r7, pc}
 228              	.L15:
 229 000e C046     		.align	2
 230              	.L14:
 231 0010 00000000 		.word	CyRamVectors
 232              		.cfi_endproc
 233              	.LFE5:
 234              		.size	Button_Right_ISR_GetVector, .-Button_Right_ISR_GetVector
ARM GAS  C:\Users\jagumiel\AppData\Local\Temp\ccL8R2ew.s 			page 9


 235              		.section	.text.Button_Right_ISR_SetPriority,"ax",%progbits
 236              		.align	2
 237              		.global	Button_Right_ISR_SetPriority
 238              		.code	16
 239              		.thumb_func
 240              		.type	Button_Right_ISR_SetPriority, %function
 241              	Button_Right_ISR_SetPriority:
 242              	.LFB6:
 223:Generated_Source\PSoC4/Button_Right_ISR.c **** 
 224:Generated_Source\PSoC4/Button_Right_ISR.c **** 
 225:Generated_Source\PSoC4/Button_Right_ISR.c **** /*******************************************************************************
 226:Generated_Source\PSoC4/Button_Right_ISR.c **** * Function Name: Button_Right_ISR_SetPriority
 227:Generated_Source\PSoC4/Button_Right_ISR.c **** ********************************************************************************
 228:Generated_Source\PSoC4/Button_Right_ISR.c **** *
 229:Generated_Source\PSoC4/Button_Right_ISR.c **** * Summary:
 230:Generated_Source\PSoC4/Button_Right_ISR.c **** *   Sets the Priority of the Interrupt. 
 231:Generated_Source\PSoC4/Button_Right_ISR.c **** *
 232:Generated_Source\PSoC4/Button_Right_ISR.c **** *   Note calling Button_Right_ISR_Start or Button_Right_ISR_StartEx will 
 233:Generated_Source\PSoC4/Button_Right_ISR.c **** *   override any effect this API would have had. This API should only be called
 234:Generated_Source\PSoC4/Button_Right_ISR.c **** *   after Button_Right_ISR_Start or Button_Right_ISR_StartEx has been called. 
 235:Generated_Source\PSoC4/Button_Right_ISR.c **** *   To set the initial priority for the component, use the Design-Wide Resources
 236:Generated_Source\PSoC4/Button_Right_ISR.c **** *   Interrupt Editor.
 237:Generated_Source\PSoC4/Button_Right_ISR.c **** *
 238:Generated_Source\PSoC4/Button_Right_ISR.c **** *   Note This API has no effect on Non-maskable interrupt NMI).
 239:Generated_Source\PSoC4/Button_Right_ISR.c **** *
 240:Generated_Source\PSoC4/Button_Right_ISR.c **** * Parameters:
 241:Generated_Source\PSoC4/Button_Right_ISR.c **** *   priority: Priority of the interrupt, 0 being the highest priority
 242:Generated_Source\PSoC4/Button_Right_ISR.c **** *             PSoC 3 and PSoC 5LP: Priority is from 0 to 7.
 243:Generated_Source\PSoC4/Button_Right_ISR.c **** *             PSoC 4: Priority is from 0 to 3.
 244:Generated_Source\PSoC4/Button_Right_ISR.c **** *
 245:Generated_Source\PSoC4/Button_Right_ISR.c **** * Return:
 246:Generated_Source\PSoC4/Button_Right_ISR.c **** *   None
 247:Generated_Source\PSoC4/Button_Right_ISR.c **** *
 248:Generated_Source\PSoC4/Button_Right_ISR.c **** *******************************************************************************/
 249:Generated_Source\PSoC4/Button_Right_ISR.c **** void Button_Right_ISR_SetPriority(uint8 priority)
 250:Generated_Source\PSoC4/Button_Right_ISR.c **** {
 243              		.loc 1 250 0
 244              		.cfi_startproc
 245              		@ args = 0, pretend = 0, frame = 16
 246              		@ frame_needed = 1, uses_anonymous_args = 0
 247 0000 90B5     		push	{r4, r7, lr}
 248              		.cfi_def_cfa_offset 12
 249              		.cfi_offset 4, -12
 250              		.cfi_offset 7, -8
 251              		.cfi_offset 14, -4
 252 0002 85B0     		sub	sp, sp, #20
 253              		.cfi_def_cfa_offset 32
 254 0004 00AF     		add	r7, sp, #0
 255              		.cfi_def_cfa_register 7
 256 0006 0200     		movs	r2, r0
 257 0008 FB1D     		adds	r3, r7, #7
 258 000a 1A70     		strb	r2, [r3]
 251:Generated_Source\PSoC4/Button_Right_ISR.c **** 	uint8 interruptState;
 252:Generated_Source\PSoC4/Button_Right_ISR.c ****     uint32 priorityOffset = ((Button_Right_ISR__INTC_NUMBER % 4u) * 8u) + 6u;
 259              		.loc 1 252 0
 260 000c 0623     		movs	r3, #6
 261 000e FB60     		str	r3, [r7, #12]
ARM GAS  C:\Users\jagumiel\AppData\Local\Temp\ccL8R2ew.s 			page 10


 253:Generated_Source\PSoC4/Button_Right_ISR.c ****     
 254:Generated_Source\PSoC4/Button_Right_ISR.c **** 	interruptState = CyEnterCriticalSection();
 262              		.loc 1 254 0
 263 0010 0B23     		movs	r3, #11
 264 0012 FC18     		adds	r4, r7, r3
 265 0014 FFF7FEFF 		bl	CyEnterCriticalSection
 266 0018 0300     		movs	r3, r0
 267 001a 2370     		strb	r3, [r4]
 255:Generated_Source\PSoC4/Button_Right_ISR.c ****     *Button_Right_ISR_INTC_PRIOR = (*Button_Right_ISR_INTC_PRIOR & (uint32)(~Button_Right_ISR__INTC
 268              		.loc 1 255 0
 269 001c 0B4B     		ldr	r3, .L17
 270 001e 0B4A     		ldr	r2, .L17
 271 0020 1268     		ldr	r2, [r2]
 272 0022 C021     		movs	r1, #192
 273 0024 8A43     		bics	r2, r1
 274 0026 1100     		movs	r1, r2
 256:Generated_Source\PSoC4/Button_Right_ISR.c ****                                     ((uint32)priority << priorityOffset);
 275              		.loc 1 256 0
 276 0028 FA1D     		adds	r2, r7, #7
 277 002a 1078     		ldrb	r0, [r2]
 278 002c FA68     		ldr	r2, [r7, #12]
 279 002e 9040     		lsls	r0, r0, r2
 280 0030 0200     		movs	r2, r0
 255:Generated_Source\PSoC4/Button_Right_ISR.c ****     *Button_Right_ISR_INTC_PRIOR = (*Button_Right_ISR_INTC_PRIOR & (uint32)(~Button_Right_ISR__INTC
 281              		.loc 1 255 0
 282 0032 0A43     		orrs	r2, r1
 283 0034 1A60     		str	r2, [r3]
 257:Generated_Source\PSoC4/Button_Right_ISR.c **** 	CyExitCriticalSection(interruptState);
 284              		.loc 1 257 0
 285 0036 0B23     		movs	r3, #11
 286 0038 FB18     		adds	r3, r7, r3
 287 003a 1B78     		ldrb	r3, [r3]
 288 003c 1800     		movs	r0, r3
 289 003e FFF7FEFF 		bl	CyExitCriticalSection
 258:Generated_Source\PSoC4/Button_Right_ISR.c **** }
 290              		.loc 1 258 0
 291 0042 C046     		nop
 292 0044 BD46     		mov	sp, r7
 293 0046 05B0     		add	sp, sp, #20
 294              		@ sp needed
 295 0048 90BD     		pop	{r4, r7, pc}
 296              	.L18:
 297 004a C046     		.align	2
 298              	.L17:
 299 004c 00E400E0 		.word	-536812544
 300              		.cfi_endproc
 301              	.LFE6:
 302              		.size	Button_Right_ISR_SetPriority, .-Button_Right_ISR_SetPriority
 303              		.section	.text.Button_Right_ISR_GetPriority,"ax",%progbits
 304              		.align	2
 305              		.global	Button_Right_ISR_GetPriority
 306              		.code	16
 307              		.thumb_func
 308              		.type	Button_Right_ISR_GetPriority, %function
 309              	Button_Right_ISR_GetPriority:
 310              	.LFB7:
 259:Generated_Source\PSoC4/Button_Right_ISR.c **** 
ARM GAS  C:\Users\jagumiel\AppData\Local\Temp\ccL8R2ew.s 			page 11


 260:Generated_Source\PSoC4/Button_Right_ISR.c **** 
 261:Generated_Source\PSoC4/Button_Right_ISR.c **** /*******************************************************************************
 262:Generated_Source\PSoC4/Button_Right_ISR.c **** * Function Name: Button_Right_ISR_GetPriority
 263:Generated_Source\PSoC4/Button_Right_ISR.c **** ********************************************************************************
 264:Generated_Source\PSoC4/Button_Right_ISR.c **** *
 265:Generated_Source\PSoC4/Button_Right_ISR.c **** * Summary:
 266:Generated_Source\PSoC4/Button_Right_ISR.c **** *   Gets the Priority of the Interrupt.
 267:Generated_Source\PSoC4/Button_Right_ISR.c **** *
 268:Generated_Source\PSoC4/Button_Right_ISR.c **** * Parameters:
 269:Generated_Source\PSoC4/Button_Right_ISR.c **** *   None
 270:Generated_Source\PSoC4/Button_Right_ISR.c **** *
 271:Generated_Source\PSoC4/Button_Right_ISR.c **** * Return:
 272:Generated_Source\PSoC4/Button_Right_ISR.c **** *   Priority of the interrupt, 0 being the highest priority
 273:Generated_Source\PSoC4/Button_Right_ISR.c **** *    PSoC 3 and PSoC 5LP: Priority is from 0 to 7.
 274:Generated_Source\PSoC4/Button_Right_ISR.c **** *    PSoC 4: Priority is from 0 to 3.
 275:Generated_Source\PSoC4/Button_Right_ISR.c **** *
 276:Generated_Source\PSoC4/Button_Right_ISR.c **** *******************************************************************************/
 277:Generated_Source\PSoC4/Button_Right_ISR.c **** uint8 Button_Right_ISR_GetPriority(void)
 278:Generated_Source\PSoC4/Button_Right_ISR.c **** {
 311              		.loc 1 278 0
 312              		.cfi_startproc
 313              		@ args = 0, pretend = 0, frame = 8
 314              		@ frame_needed = 1, uses_anonymous_args = 0
 315 0000 80B5     		push	{r7, lr}
 316              		.cfi_def_cfa_offset 8
 317              		.cfi_offset 7, -8
 318              		.cfi_offset 14, -4
 319 0002 82B0     		sub	sp, sp, #8
 320              		.cfi_def_cfa_offset 16
 321 0004 00AF     		add	r7, sp, #0
 322              		.cfi_def_cfa_register 7
 279:Generated_Source\PSoC4/Button_Right_ISR.c ****     uint32 priority;
 280:Generated_Source\PSoC4/Button_Right_ISR.c **** 	uint32 priorityOffset = ((Button_Right_ISR__INTC_NUMBER % 4u) * 8u) + 6u;
 323              		.loc 1 280 0
 324 0006 0623     		movs	r3, #6
 325 0008 7B60     		str	r3, [r7, #4]
 281:Generated_Source\PSoC4/Button_Right_ISR.c **** 
 282:Generated_Source\PSoC4/Button_Right_ISR.c ****     priority = (*Button_Right_ISR_INTC_PRIOR & Button_Right_ISR__INTC_PRIOR_MASK) >> priorityOffset
 326              		.loc 1 282 0
 327 000a 074B     		ldr	r3, .L21
 328 000c 1B68     		ldr	r3, [r3]
 329 000e C022     		movs	r2, #192
 330 0010 1A40     		ands	r2, r3
 331 0012 7B68     		ldr	r3, [r7, #4]
 332 0014 DA40     		lsrs	r2, r2, r3
 333 0016 1300     		movs	r3, r2
 334 0018 3B60     		str	r3, [r7]
 283:Generated_Source\PSoC4/Button_Right_ISR.c **** 
 284:Generated_Source\PSoC4/Button_Right_ISR.c ****     return (uint8)priority;
 335              		.loc 1 284 0
 336 001a 3B68     		ldr	r3, [r7]
 337 001c DBB2     		uxtb	r3, r3
 285:Generated_Source\PSoC4/Button_Right_ISR.c **** }
 338              		.loc 1 285 0
 339 001e 1800     		movs	r0, r3
 340 0020 BD46     		mov	sp, r7
 341 0022 02B0     		add	sp, sp, #8
ARM GAS  C:\Users\jagumiel\AppData\Local\Temp\ccL8R2ew.s 			page 12


 342              		@ sp needed
 343 0024 80BD     		pop	{r7, pc}
 344              	.L22:
 345 0026 C046     		.align	2
 346              	.L21:
 347 0028 00E400E0 		.word	-536812544
 348              		.cfi_endproc
 349              	.LFE7:
 350              		.size	Button_Right_ISR_GetPriority, .-Button_Right_ISR_GetPriority
 351              		.section	.text.Button_Right_ISR_Enable,"ax",%progbits
 352              		.align	2
 353              		.global	Button_Right_ISR_Enable
 354              		.code	16
 355              		.thumb_func
 356              		.type	Button_Right_ISR_Enable, %function
 357              	Button_Right_ISR_Enable:
 358              	.LFB8:
 286:Generated_Source\PSoC4/Button_Right_ISR.c **** 
 287:Generated_Source\PSoC4/Button_Right_ISR.c **** 
 288:Generated_Source\PSoC4/Button_Right_ISR.c **** /*******************************************************************************
 289:Generated_Source\PSoC4/Button_Right_ISR.c **** * Function Name: Button_Right_ISR_Enable
 290:Generated_Source\PSoC4/Button_Right_ISR.c **** ********************************************************************************
 291:Generated_Source\PSoC4/Button_Right_ISR.c **** *
 292:Generated_Source\PSoC4/Button_Right_ISR.c **** * Summary:
 293:Generated_Source\PSoC4/Button_Right_ISR.c **** *   Enables the interrupt to the interrupt controller. Do not call this function
 294:Generated_Source\PSoC4/Button_Right_ISR.c **** *   unless ISR_Start() has been called or the functionality of the ISR_Start() 
 295:Generated_Source\PSoC4/Button_Right_ISR.c **** *   function, which sets the vector and the priority, has been called.
 296:Generated_Source\PSoC4/Button_Right_ISR.c **** *
 297:Generated_Source\PSoC4/Button_Right_ISR.c **** * Parameters:
 298:Generated_Source\PSoC4/Button_Right_ISR.c **** *   None
 299:Generated_Source\PSoC4/Button_Right_ISR.c **** *
 300:Generated_Source\PSoC4/Button_Right_ISR.c **** * Return:
 301:Generated_Source\PSoC4/Button_Right_ISR.c **** *   None
 302:Generated_Source\PSoC4/Button_Right_ISR.c **** *
 303:Generated_Source\PSoC4/Button_Right_ISR.c **** *******************************************************************************/
 304:Generated_Source\PSoC4/Button_Right_ISR.c **** void Button_Right_ISR_Enable(void)
 305:Generated_Source\PSoC4/Button_Right_ISR.c **** {
 359              		.loc 1 305 0
 360              		.cfi_startproc
 361              		@ args = 0, pretend = 0, frame = 0
 362              		@ frame_needed = 1, uses_anonymous_args = 0
 363 0000 80B5     		push	{r7, lr}
 364              		.cfi_def_cfa_offset 8
 365              		.cfi_offset 7, -8
 366              		.cfi_offset 14, -4
 367 0002 00AF     		add	r7, sp, #0
 368              		.cfi_def_cfa_register 7
 306:Generated_Source\PSoC4/Button_Right_ISR.c ****     /* Enable the general interrupt. */
 307:Generated_Source\PSoC4/Button_Right_ISR.c ****     *Button_Right_ISR_INTC_SET_EN = Button_Right_ISR__INTC_MASK;
 369              		.loc 1 307 0
 370 0004 024B     		ldr	r3, .L24
 371 0006 0122     		movs	r2, #1
 372 0008 1A60     		str	r2, [r3]
 308:Generated_Source\PSoC4/Button_Right_ISR.c **** }
 373              		.loc 1 308 0
 374 000a C046     		nop
 375 000c BD46     		mov	sp, r7
ARM GAS  C:\Users\jagumiel\AppData\Local\Temp\ccL8R2ew.s 			page 13


 376              		@ sp needed
 377 000e 80BD     		pop	{r7, pc}
 378              	.L25:
 379              		.align	2
 380              	.L24:
 381 0010 00E100E0 		.word	-536813312
 382              		.cfi_endproc
 383              	.LFE8:
 384              		.size	Button_Right_ISR_Enable, .-Button_Right_ISR_Enable
 385              		.section	.text.Button_Right_ISR_GetState,"ax",%progbits
 386              		.align	2
 387              		.global	Button_Right_ISR_GetState
 388              		.code	16
 389              		.thumb_func
 390              		.type	Button_Right_ISR_GetState, %function
 391              	Button_Right_ISR_GetState:
 392              	.LFB9:
 309:Generated_Source\PSoC4/Button_Right_ISR.c **** 
 310:Generated_Source\PSoC4/Button_Right_ISR.c **** 
 311:Generated_Source\PSoC4/Button_Right_ISR.c **** /*******************************************************************************
 312:Generated_Source\PSoC4/Button_Right_ISR.c **** * Function Name: Button_Right_ISR_GetState
 313:Generated_Source\PSoC4/Button_Right_ISR.c **** ********************************************************************************
 314:Generated_Source\PSoC4/Button_Right_ISR.c **** *
 315:Generated_Source\PSoC4/Button_Right_ISR.c **** * Summary:
 316:Generated_Source\PSoC4/Button_Right_ISR.c **** *   Gets the state (enabled, disabled) of the Interrupt.
 317:Generated_Source\PSoC4/Button_Right_ISR.c **** *
 318:Generated_Source\PSoC4/Button_Right_ISR.c **** * Parameters:
 319:Generated_Source\PSoC4/Button_Right_ISR.c **** *   None
 320:Generated_Source\PSoC4/Button_Right_ISR.c **** *
 321:Generated_Source\PSoC4/Button_Right_ISR.c **** * Return:
 322:Generated_Source\PSoC4/Button_Right_ISR.c **** *   1 if enabled, 0 if disabled.
 323:Generated_Source\PSoC4/Button_Right_ISR.c **** *
 324:Generated_Source\PSoC4/Button_Right_ISR.c **** *******************************************************************************/
 325:Generated_Source\PSoC4/Button_Right_ISR.c **** uint8 Button_Right_ISR_GetState(void)
 326:Generated_Source\PSoC4/Button_Right_ISR.c **** {
 393              		.loc 1 326 0
 394              		.cfi_startproc
 395              		@ args = 0, pretend = 0, frame = 0
 396              		@ frame_needed = 1, uses_anonymous_args = 0
 397 0000 80B5     		push	{r7, lr}
 398              		.cfi_def_cfa_offset 8
 399              		.cfi_offset 7, -8
 400              		.cfi_offset 14, -4
 401 0002 00AF     		add	r7, sp, #0
 402              		.cfi_def_cfa_register 7
 327:Generated_Source\PSoC4/Button_Right_ISR.c ****     /* Get the state of the general interrupt. */
 328:Generated_Source\PSoC4/Button_Right_ISR.c ****     return ((*Button_Right_ISR_INTC_SET_EN & (uint32)Button_Right_ISR__INTC_MASK) != 0u) ? 1u:0u;
 403              		.loc 1 328 0
 404 0004 044B     		ldr	r3, .L28
 405 0006 1B68     		ldr	r3, [r3]
 406 0008 DBB2     		uxtb	r3, r3
 407 000a 0122     		movs	r2, #1
 408 000c 1340     		ands	r3, r2
 409 000e DBB2     		uxtb	r3, r3
 329:Generated_Source\PSoC4/Button_Right_ISR.c **** }
 410              		.loc 1 329 0
 411 0010 1800     		movs	r0, r3
ARM GAS  C:\Users\jagumiel\AppData\Local\Temp\ccL8R2ew.s 			page 14


 412 0012 BD46     		mov	sp, r7
 413              		@ sp needed
 414 0014 80BD     		pop	{r7, pc}
 415              	.L29:
 416 0016 C046     		.align	2
 417              	.L28:
 418 0018 00E100E0 		.word	-536813312
 419              		.cfi_endproc
 420              	.LFE9:
 421              		.size	Button_Right_ISR_GetState, .-Button_Right_ISR_GetState
 422              		.section	.text.Button_Right_ISR_Disable,"ax",%progbits
 423              		.align	2
 424              		.global	Button_Right_ISR_Disable
 425              		.code	16
 426              		.thumb_func
 427              		.type	Button_Right_ISR_Disable, %function
 428              	Button_Right_ISR_Disable:
 429              	.LFB10:
 330:Generated_Source\PSoC4/Button_Right_ISR.c **** 
 331:Generated_Source\PSoC4/Button_Right_ISR.c **** 
 332:Generated_Source\PSoC4/Button_Right_ISR.c **** /*******************************************************************************
 333:Generated_Source\PSoC4/Button_Right_ISR.c **** * Function Name: Button_Right_ISR_Disable
 334:Generated_Source\PSoC4/Button_Right_ISR.c **** ********************************************************************************
 335:Generated_Source\PSoC4/Button_Right_ISR.c **** *
 336:Generated_Source\PSoC4/Button_Right_ISR.c **** * Summary:
 337:Generated_Source\PSoC4/Button_Right_ISR.c **** *   Disables the Interrupt in the interrupt controller.
 338:Generated_Source\PSoC4/Button_Right_ISR.c **** *
 339:Generated_Source\PSoC4/Button_Right_ISR.c **** * Parameters:
 340:Generated_Source\PSoC4/Button_Right_ISR.c **** *   None
 341:Generated_Source\PSoC4/Button_Right_ISR.c **** *
 342:Generated_Source\PSoC4/Button_Right_ISR.c **** * Return:
 343:Generated_Source\PSoC4/Button_Right_ISR.c **** *   None
 344:Generated_Source\PSoC4/Button_Right_ISR.c **** *
 345:Generated_Source\PSoC4/Button_Right_ISR.c **** *******************************************************************************/
 346:Generated_Source\PSoC4/Button_Right_ISR.c **** void Button_Right_ISR_Disable(void)
 347:Generated_Source\PSoC4/Button_Right_ISR.c **** {
 430              		.loc 1 347 0
 431              		.cfi_startproc
 432              		@ args = 0, pretend = 0, frame = 0
 433              		@ frame_needed = 1, uses_anonymous_args = 0
 434 0000 80B5     		push	{r7, lr}
 435              		.cfi_def_cfa_offset 8
 436              		.cfi_offset 7, -8
 437              		.cfi_offset 14, -4
 438 0002 00AF     		add	r7, sp, #0
 439              		.cfi_def_cfa_register 7
 348:Generated_Source\PSoC4/Button_Right_ISR.c ****     /* Disable the general interrupt. */
 349:Generated_Source\PSoC4/Button_Right_ISR.c ****     *Button_Right_ISR_INTC_CLR_EN = Button_Right_ISR__INTC_MASK;
 440              		.loc 1 349 0
 441 0004 024B     		ldr	r3, .L31
 442 0006 0122     		movs	r2, #1
 443 0008 1A60     		str	r2, [r3]
 350:Generated_Source\PSoC4/Button_Right_ISR.c **** }
 444              		.loc 1 350 0
 445 000a C046     		nop
 446 000c BD46     		mov	sp, r7
 447              		@ sp needed
ARM GAS  C:\Users\jagumiel\AppData\Local\Temp\ccL8R2ew.s 			page 15


 448 000e 80BD     		pop	{r7, pc}
 449              	.L32:
 450              		.align	2
 451              	.L31:
 452 0010 80E100E0 		.word	-536813184
 453              		.cfi_endproc
 454              	.LFE10:
 455              		.size	Button_Right_ISR_Disable, .-Button_Right_ISR_Disable
 456              		.section	.text.Button_Right_ISR_SetPending,"ax",%progbits
 457              		.align	2
 458              		.global	Button_Right_ISR_SetPending
 459              		.code	16
 460              		.thumb_func
 461              		.type	Button_Right_ISR_SetPending, %function
 462              	Button_Right_ISR_SetPending:
 463              	.LFB11:
 351:Generated_Source\PSoC4/Button_Right_ISR.c **** 
 352:Generated_Source\PSoC4/Button_Right_ISR.c **** 
 353:Generated_Source\PSoC4/Button_Right_ISR.c **** /*******************************************************************************
 354:Generated_Source\PSoC4/Button_Right_ISR.c **** * Function Name: Button_Right_ISR_SetPending
 355:Generated_Source\PSoC4/Button_Right_ISR.c **** ********************************************************************************
 356:Generated_Source\PSoC4/Button_Right_ISR.c **** *
 357:Generated_Source\PSoC4/Button_Right_ISR.c **** * Summary:
 358:Generated_Source\PSoC4/Button_Right_ISR.c **** *   Causes the Interrupt to enter the pending state, a software method of
 359:Generated_Source\PSoC4/Button_Right_ISR.c **** *   generating the interrupt.
 360:Generated_Source\PSoC4/Button_Right_ISR.c **** *
 361:Generated_Source\PSoC4/Button_Right_ISR.c **** * Parameters:
 362:Generated_Source\PSoC4/Button_Right_ISR.c **** *   None
 363:Generated_Source\PSoC4/Button_Right_ISR.c **** *
 364:Generated_Source\PSoC4/Button_Right_ISR.c **** * Return:
 365:Generated_Source\PSoC4/Button_Right_ISR.c **** *   None
 366:Generated_Source\PSoC4/Button_Right_ISR.c **** *
 367:Generated_Source\PSoC4/Button_Right_ISR.c **** * Side Effects:
 368:Generated_Source\PSoC4/Button_Right_ISR.c **** *   If interrupts are enabled and the interrupt is set up properly, the ISR is
 369:Generated_Source\PSoC4/Button_Right_ISR.c **** *   entered (depending on the priority of this interrupt and other pending 
 370:Generated_Source\PSoC4/Button_Right_ISR.c **** *   interrupts).
 371:Generated_Source\PSoC4/Button_Right_ISR.c **** *
 372:Generated_Source\PSoC4/Button_Right_ISR.c **** *******************************************************************************/
 373:Generated_Source\PSoC4/Button_Right_ISR.c **** void Button_Right_ISR_SetPending(void)
 374:Generated_Source\PSoC4/Button_Right_ISR.c **** {
 464              		.loc 1 374 0
 465              		.cfi_startproc
 466              		@ args = 0, pretend = 0, frame = 0
 467              		@ frame_needed = 1, uses_anonymous_args = 0
 468 0000 80B5     		push	{r7, lr}
 469              		.cfi_def_cfa_offset 8
 470              		.cfi_offset 7, -8
 471              		.cfi_offset 14, -4
 472 0002 00AF     		add	r7, sp, #0
 473              		.cfi_def_cfa_register 7
 375:Generated_Source\PSoC4/Button_Right_ISR.c ****     *Button_Right_ISR_INTC_SET_PD = Button_Right_ISR__INTC_MASK;
 474              		.loc 1 375 0
 475 0004 024B     		ldr	r3, .L34
 476 0006 0122     		movs	r2, #1
 477 0008 1A60     		str	r2, [r3]
 376:Generated_Source\PSoC4/Button_Right_ISR.c **** }
 478              		.loc 1 376 0
ARM GAS  C:\Users\jagumiel\AppData\Local\Temp\ccL8R2ew.s 			page 16


 479 000a C046     		nop
 480 000c BD46     		mov	sp, r7
 481              		@ sp needed
 482 000e 80BD     		pop	{r7, pc}
 483              	.L35:
 484              		.align	2
 485              	.L34:
 486 0010 00E200E0 		.word	-536813056
 487              		.cfi_endproc
 488              	.LFE11:
 489              		.size	Button_Right_ISR_SetPending, .-Button_Right_ISR_SetPending
 490              		.section	.text.Button_Right_ISR_ClearPending,"ax",%progbits
 491              		.align	2
 492              		.global	Button_Right_ISR_ClearPending
 493              		.code	16
 494              		.thumb_func
 495              		.type	Button_Right_ISR_ClearPending, %function
 496              	Button_Right_ISR_ClearPending:
 497              	.LFB12:
 377:Generated_Source\PSoC4/Button_Right_ISR.c **** 
 378:Generated_Source\PSoC4/Button_Right_ISR.c **** 
 379:Generated_Source\PSoC4/Button_Right_ISR.c **** /*******************************************************************************
 380:Generated_Source\PSoC4/Button_Right_ISR.c **** * Function Name: Button_Right_ISR_ClearPending
 381:Generated_Source\PSoC4/Button_Right_ISR.c **** ********************************************************************************
 382:Generated_Source\PSoC4/Button_Right_ISR.c **** *
 383:Generated_Source\PSoC4/Button_Right_ISR.c **** * Summary:
 384:Generated_Source\PSoC4/Button_Right_ISR.c **** *   Clears a pending interrupt in the interrupt controller.
 385:Generated_Source\PSoC4/Button_Right_ISR.c **** *
 386:Generated_Source\PSoC4/Button_Right_ISR.c **** *   Note Some interrupt sources are clear-on-read and require the block 
 387:Generated_Source\PSoC4/Button_Right_ISR.c **** *   interrupt/status register to be read/cleared with the appropriate block API 
 388:Generated_Source\PSoC4/Button_Right_ISR.c **** *   (GPIO, UART, and so on). Otherwise the ISR will continue to remain in 
 389:Generated_Source\PSoC4/Button_Right_ISR.c **** *   pending state even though the interrupt itself is cleared using this API.
 390:Generated_Source\PSoC4/Button_Right_ISR.c **** *
 391:Generated_Source\PSoC4/Button_Right_ISR.c **** * Parameters:
 392:Generated_Source\PSoC4/Button_Right_ISR.c **** *   None
 393:Generated_Source\PSoC4/Button_Right_ISR.c **** *
 394:Generated_Source\PSoC4/Button_Right_ISR.c **** * Return:
 395:Generated_Source\PSoC4/Button_Right_ISR.c **** *   None
 396:Generated_Source\PSoC4/Button_Right_ISR.c **** *
 397:Generated_Source\PSoC4/Button_Right_ISR.c **** *******************************************************************************/
 398:Generated_Source\PSoC4/Button_Right_ISR.c **** void Button_Right_ISR_ClearPending(void)
 399:Generated_Source\PSoC4/Button_Right_ISR.c **** {
 498              		.loc 1 399 0
 499              		.cfi_startproc
 500              		@ args = 0, pretend = 0, frame = 0
 501              		@ frame_needed = 1, uses_anonymous_args = 0
 502 0000 80B5     		push	{r7, lr}
 503              		.cfi_def_cfa_offset 8
 504              		.cfi_offset 7, -8
 505              		.cfi_offset 14, -4
 506 0002 00AF     		add	r7, sp, #0
 507              		.cfi_def_cfa_register 7
 400:Generated_Source\PSoC4/Button_Right_ISR.c ****     *Button_Right_ISR_INTC_CLR_PD = Button_Right_ISR__INTC_MASK;
 508              		.loc 1 400 0
 509 0004 024B     		ldr	r3, .L37
 510 0006 0122     		movs	r2, #1
 511 0008 1A60     		str	r2, [r3]
ARM GAS  C:\Users\jagumiel\AppData\Local\Temp\ccL8R2ew.s 			page 17


 401:Generated_Source\PSoC4/Button_Right_ISR.c **** }
 512              		.loc 1 401 0
 513 000a C046     		nop
 514 000c BD46     		mov	sp, r7
 515              		@ sp needed
 516 000e 80BD     		pop	{r7, pc}
 517              	.L38:
 518              		.align	2
 519              	.L37:
 520 0010 80E200E0 		.word	-536812928
 521              		.cfi_endproc
 522              	.LFE12:
 523              		.size	Button_Right_ISR_ClearPending, .-Button_Right_ISR_ClearPending
 524              		.text
 525              	.Letext0:
 526              		.file 2 "Generated_Source\\PSoC4/cytypes.h"