ARM GAS  C:\Users\jagumiel\AppData\Local\Temp\ccFcURLj.s 			page 1


   1              		.syntax unified
   2              		.cpu cortex-m0
   3              		.fpu softvfp
   4              		.eabi_attribute 20, 1
   5              		.eabi_attribute 21, 1
   6              		.eabi_attribute 23, 3
   7              		.eabi_attribute 24, 1
   8              		.eabi_attribute 25, 1
   9              		.eabi_attribute 26, 1
  10              		.eabi_attribute 30, 6
  11              		.eabi_attribute 34, 0
  12              		.eabi_attribute 18, 4
  13              		.thumb
  14              		.syntax unified
  15              		.file	"cyfitter_cfg.c"
  16              		.text
  17              	.Ltext0:
  18              		.cfi_sections	.debug_frame
  19              		.section	.text.CYMEMZERO,"ax",%progbits
  20              		.align	2
  21              		.code	16
  22              		.thumb_func
  23              		.type	CYMEMZERO, %function
  24              	CYMEMZERO:
  25              	.LFB0:
  26              		.file 1 "Generated_Source\\PSoC4\\cyfitter_cfg.c"
   1:Generated_Source\PSoC4/cyfitter_cfg.c **** 
   2:Generated_Source\PSoC4/cyfitter_cfg.c **** /*******************************************************************************
   3:Generated_Source\PSoC4/cyfitter_cfg.c **** * File Name: cyfitter_cfg.c
   4:Generated_Source\PSoC4/cyfitter_cfg.c **** * 
   5:Generated_Source\PSoC4/cyfitter_cfg.c **** * PSoC Creator  4.2
   6:Generated_Source\PSoC4/cyfitter_cfg.c **** *
   7:Generated_Source\PSoC4/cyfitter_cfg.c **** * Description:
   8:Generated_Source\PSoC4/cyfitter_cfg.c **** * This file contains device initialization code.
   9:Generated_Source\PSoC4/cyfitter_cfg.c **** * Except for the user defined sections in CyClockStartupError(), this file should not be modified.
  10:Generated_Source\PSoC4/cyfitter_cfg.c **** * This file is automatically generated by PSoC Creator.
  11:Generated_Source\PSoC4/cyfitter_cfg.c **** *
  12:Generated_Source\PSoC4/cyfitter_cfg.c **** ********************************************************************************
  13:Generated_Source\PSoC4/cyfitter_cfg.c **** * Copyright (c) 2007-2018 Cypress Semiconductor.  All rights reserved.
  14:Generated_Source\PSoC4/cyfitter_cfg.c **** * You may use this file only in accordance with the license, terms, conditions, 
  15:Generated_Source\PSoC4/cyfitter_cfg.c **** * disclaimers, and limitations in the end user license agreement accompanying 
  16:Generated_Source\PSoC4/cyfitter_cfg.c **** * the software package with which this file was provided.
  17:Generated_Source\PSoC4/cyfitter_cfg.c **** ********************************************************************************/
  18:Generated_Source\PSoC4/cyfitter_cfg.c **** 
  19:Generated_Source\PSoC4/cyfitter_cfg.c **** #include <string.h>
  20:Generated_Source\PSoC4/cyfitter_cfg.c **** #include "cytypes.h"
  21:Generated_Source\PSoC4/cyfitter_cfg.c **** #include "cydevice_trm.h"
  22:Generated_Source\PSoC4/cyfitter_cfg.c **** #include "cyfitter.h"
  23:Generated_Source\PSoC4/cyfitter_cfg.c **** #include "CyLib.h"
  24:Generated_Source\PSoC4/cyfitter_cfg.c **** #include "cyfitter_cfg.h"
  25:Generated_Source\PSoC4/cyfitter_cfg.c **** #include "cyapicallbacks.h"
  26:Generated_Source\PSoC4/cyfitter_cfg.c **** 
  27:Generated_Source\PSoC4/cyfitter_cfg.c **** 
  28:Generated_Source\PSoC4/cyfitter_cfg.c **** #if defined(__GNUC__) || defined(__ARMCC_VERSION)
  29:Generated_Source\PSoC4/cyfitter_cfg.c ****     #define CYPACKED 
  30:Generated_Source\PSoC4/cyfitter_cfg.c ****     #define CYPACKED_ATTR __attribute__ ((packed))
  31:Generated_Source\PSoC4/cyfitter_cfg.c ****     #define CYALIGNED __attribute__ ((aligned))
ARM GAS  C:\Users\jagumiel\AppData\Local\Temp\ccFcURLj.s 			page 2


  32:Generated_Source\PSoC4/cyfitter_cfg.c ****     #define CY_CFG_UNUSED __attribute__ ((unused))
  33:Generated_Source\PSoC4/cyfitter_cfg.c ****     #ifndef CY_CFG_SECTION
  34:Generated_Source\PSoC4/cyfitter_cfg.c ****         #define CY_CFG_SECTION __attribute__ ((section(".psocinit")))
  35:Generated_Source\PSoC4/cyfitter_cfg.c ****     #endif
  36:Generated_Source\PSoC4/cyfitter_cfg.c ****     
  37:Generated_Source\PSoC4/cyfitter_cfg.c ****     #if defined(__ARMCC_VERSION)
  38:Generated_Source\PSoC4/cyfitter_cfg.c ****         #define CY_CFG_MEMORY_BARRIER() __memory_changed()
  39:Generated_Source\PSoC4/cyfitter_cfg.c ****     #else
  40:Generated_Source\PSoC4/cyfitter_cfg.c ****         #define CY_CFG_MEMORY_BARRIER() __sync_synchronize()
  41:Generated_Source\PSoC4/cyfitter_cfg.c ****     #endif
  42:Generated_Source\PSoC4/cyfitter_cfg.c ****     
  43:Generated_Source\PSoC4/cyfitter_cfg.c **** #elif defined(__ICCARM__)
  44:Generated_Source\PSoC4/cyfitter_cfg.c ****     #include <intrinsics.h>
  45:Generated_Source\PSoC4/cyfitter_cfg.c **** 
  46:Generated_Source\PSoC4/cyfitter_cfg.c ****     #define CYPACKED __packed
  47:Generated_Source\PSoC4/cyfitter_cfg.c ****     #define CYPACKED_ATTR 
  48:Generated_Source\PSoC4/cyfitter_cfg.c ****     #define CYALIGNED _Pragma("data_alignment=4")
  49:Generated_Source\PSoC4/cyfitter_cfg.c ****     #define CY_CFG_UNUSED _Pragma("diag_suppress=Pe177")
  50:Generated_Source\PSoC4/cyfitter_cfg.c ****     #define CY_CFG_SECTION _Pragma("location=\".psocinit\"")
  51:Generated_Source\PSoC4/cyfitter_cfg.c ****     
  52:Generated_Source\PSoC4/cyfitter_cfg.c ****     #define CY_CFG_MEMORY_BARRIER() __DMB()
  53:Generated_Source\PSoC4/cyfitter_cfg.c ****     
  54:Generated_Source\PSoC4/cyfitter_cfg.c **** #else
  55:Generated_Source\PSoC4/cyfitter_cfg.c ****     #error Unsupported toolchain
  56:Generated_Source\PSoC4/cyfitter_cfg.c **** #endif
  57:Generated_Source\PSoC4/cyfitter_cfg.c **** 
  58:Generated_Source\PSoC4/cyfitter_cfg.c **** #ifndef CYCODE
  59:Generated_Source\PSoC4/cyfitter_cfg.c ****     #define CYCODE
  60:Generated_Source\PSoC4/cyfitter_cfg.c **** #endif
  61:Generated_Source\PSoC4/cyfitter_cfg.c **** #ifndef CYDATA
  62:Generated_Source\PSoC4/cyfitter_cfg.c ****     #define CYDATA
  63:Generated_Source\PSoC4/cyfitter_cfg.c **** #endif
  64:Generated_Source\PSoC4/cyfitter_cfg.c **** #ifndef CYFAR
  65:Generated_Source\PSoC4/cyfitter_cfg.c ****     #define CYFAR
  66:Generated_Source\PSoC4/cyfitter_cfg.c **** #endif
  67:Generated_Source\PSoC4/cyfitter_cfg.c **** #ifndef CYXDATA
  68:Generated_Source\PSoC4/cyfitter_cfg.c ****     #define CYXDATA
  69:Generated_Source\PSoC4/cyfitter_cfg.c **** #endif
  70:Generated_Source\PSoC4/cyfitter_cfg.c **** 
  71:Generated_Source\PSoC4/cyfitter_cfg.c **** 
  72:Generated_Source\PSoC4/cyfitter_cfg.c **** CY_CFG_UNUSED
  73:Generated_Source\PSoC4/cyfitter_cfg.c **** static void CYMEMZERO(void *s, size_t n);
  74:Generated_Source\PSoC4/cyfitter_cfg.c **** CY_CFG_UNUSED
  75:Generated_Source\PSoC4/cyfitter_cfg.c **** static void CYMEMZERO(void *s, size_t n)
  76:Generated_Source\PSoC4/cyfitter_cfg.c **** {
  27              		.loc 1 76 0
  28              		.cfi_startproc
  29              		@ args = 0, pretend = 0, frame = 8
  30              		@ frame_needed = 1, uses_anonymous_args = 0
  31 0000 80B5     		push	{r7, lr}
  32              		.cfi_def_cfa_offset 8
  33              		.cfi_offset 7, -8
  34              		.cfi_offset 14, -4
  35 0002 82B0     		sub	sp, sp, #8
  36              		.cfi_def_cfa_offset 16
  37 0004 00AF     		add	r7, sp, #0
  38              		.cfi_def_cfa_register 7
ARM GAS  C:\Users\jagumiel\AppData\Local\Temp\ccFcURLj.s 			page 3


  39 0006 7860     		str	r0, [r7, #4]
  40 0008 3960     		str	r1, [r7]
  77:Generated_Source\PSoC4/cyfitter_cfg.c **** 	(void)memset(s, 0, n);
  41              		.loc 1 77 0
  42 000a 3A68     		ldr	r2, [r7]
  43 000c 7B68     		ldr	r3, [r7, #4]
  44 000e 0021     		movs	r1, #0
  45 0010 1800     		movs	r0, r3
  46 0012 FFF7FEFF 		bl	memset
  78:Generated_Source\PSoC4/cyfitter_cfg.c **** }
  47              		.loc 1 78 0
  48 0016 C046     		nop
  49 0018 BD46     		mov	sp, r7
  50 001a 02B0     		add	sp, sp, #8
  51              		@ sp needed
  52 001c 80BD     		pop	{r7, pc}
  53              		.cfi_endproc
  54              	.LFE0:
  55              		.size	CYMEMZERO, .-CYMEMZERO
  56 001e C046     		.section	.text.CYCONFIGCPY,"ax",%progbits
  57              		.align	2
  58              		.code	16
  59              		.thumb_func
  60              		.type	CYCONFIGCPY, %function
  61              	CYCONFIGCPY:
  62              	.LFB1:
  79:Generated_Source\PSoC4/cyfitter_cfg.c **** CY_CFG_UNUSED
  80:Generated_Source\PSoC4/cyfitter_cfg.c **** static void CYCONFIGCPY(void *dest, const void *src, size_t n);
  81:Generated_Source\PSoC4/cyfitter_cfg.c **** CY_CFG_UNUSED
  82:Generated_Source\PSoC4/cyfitter_cfg.c **** static void CYCONFIGCPY(void *dest, const void *src, size_t n)
  83:Generated_Source\PSoC4/cyfitter_cfg.c **** {
  63              		.loc 1 83 0
  64              		.cfi_startproc
  65              		@ args = 0, pretend = 0, frame = 16
  66              		@ frame_needed = 1, uses_anonymous_args = 0
  67 0000 80B5     		push	{r7, lr}
  68              		.cfi_def_cfa_offset 8
  69              		.cfi_offset 7, -8
  70              		.cfi_offset 14, -4
  71 0002 84B0     		sub	sp, sp, #16
  72              		.cfi_def_cfa_offset 24
  73 0004 00AF     		add	r7, sp, #0
  74              		.cfi_def_cfa_register 7
  75 0006 F860     		str	r0, [r7, #12]
  76 0008 B960     		str	r1, [r7, #8]
  77 000a 7A60     		str	r2, [r7, #4]
  84:Generated_Source\PSoC4/cyfitter_cfg.c **** 	(void)memcpy(dest, src, n);
  78              		.loc 1 84 0
  79 000c 7A68     		ldr	r2, [r7, #4]
  80 000e B968     		ldr	r1, [r7, #8]
  81 0010 FB68     		ldr	r3, [r7, #12]
  82 0012 1800     		movs	r0, r3
  83 0014 FFF7FEFF 		bl	memcpy
  85:Generated_Source\PSoC4/cyfitter_cfg.c **** }
  84              		.loc 1 85 0
  85 0018 C046     		nop
  86 001a BD46     		mov	sp, r7
ARM GAS  C:\Users\jagumiel\AppData\Local\Temp\ccFcURLj.s 			page 4


  87 001c 04B0     		add	sp, sp, #16
  88              		@ sp needed
  89 001e 80BD     		pop	{r7, pc}
  90              		.cfi_endproc
  91              	.LFE1:
  92              		.size	CYCONFIGCPY, .-CYCONFIGCPY
  93              		.section	.text.CYCONFIGCPYCODE,"ax",%progbits
  94              		.align	2
  95              		.code	16
  96              		.thumb_func
  97              		.type	CYCONFIGCPYCODE, %function
  98              	CYCONFIGCPYCODE:
  99              	.LFB2:
  86:Generated_Source\PSoC4/cyfitter_cfg.c **** CY_CFG_UNUSED
  87:Generated_Source\PSoC4/cyfitter_cfg.c **** static void CYCONFIGCPYCODE(void *dest, const void *src, size_t n);
  88:Generated_Source\PSoC4/cyfitter_cfg.c **** CY_CFG_UNUSED
  89:Generated_Source\PSoC4/cyfitter_cfg.c **** static void CYCONFIGCPYCODE(void *dest, const void *src, size_t n)
  90:Generated_Source\PSoC4/cyfitter_cfg.c **** {
 100              		.loc 1 90 0
 101              		.cfi_startproc
 102              		@ args = 0, pretend = 0, frame = 16
 103              		@ frame_needed = 1, uses_anonymous_args = 0
 104 0000 80B5     		push	{r7, lr}
 105              		.cfi_def_cfa_offset 8
 106              		.cfi_offset 7, -8
 107              		.cfi_offset 14, -4
 108 0002 84B0     		sub	sp, sp, #16
 109              		.cfi_def_cfa_offset 24
 110 0004 00AF     		add	r7, sp, #0
 111              		.cfi_def_cfa_register 7
 112 0006 F860     		str	r0, [r7, #12]
 113 0008 B960     		str	r1, [r7, #8]
 114 000a 7A60     		str	r2, [r7, #4]
  91:Generated_Source\PSoC4/cyfitter_cfg.c **** 	(void)memcpy(dest, src, n);
 115              		.loc 1 91 0
 116 000c 7A68     		ldr	r2, [r7, #4]
 117 000e B968     		ldr	r1, [r7, #8]
 118 0010 FB68     		ldr	r3, [r7, #12]
 119 0012 1800     		movs	r0, r3
 120 0014 FFF7FEFF 		bl	memcpy
  92:Generated_Source\PSoC4/cyfitter_cfg.c **** }
 121              		.loc 1 92 0
 122 0018 C046     		nop
 123 001a BD46     		mov	sp, r7
 124 001c 04B0     		add	sp, sp, #16
 125              		@ sp needed
 126 001e 80BD     		pop	{r7, pc}
 127              		.cfi_endproc
 128              	.LFE2:
 129              		.size	CYCONFIGCPYCODE, .-CYCONFIGCPYCODE
 130              		.section	.text.cfg_write_bytes32,"ax",%progbits
 131              		.align	2
 132              		.code	16
 133              		.thumb_func
 134              		.type	cfg_write_bytes32, %function
 135              	cfg_write_bytes32:
 136              	.LFB3:
ARM GAS  C:\Users\jagumiel\AppData\Local\Temp\ccFcURLj.s 			page 5


  93:Generated_Source\PSoC4/cyfitter_cfg.c **** 
  94:Generated_Source\PSoC4/cyfitter_cfg.c **** 
  95:Generated_Source\PSoC4/cyfitter_cfg.c **** 
  96:Generated_Source\PSoC4/cyfitter_cfg.c **** 
  97:Generated_Source\PSoC4/cyfitter_cfg.c **** /* Clock startup error codes                                                   */
  98:Generated_Source\PSoC4/cyfitter_cfg.c **** #define CYCLOCKSTART_NO_ERROR    0u
  99:Generated_Source\PSoC4/cyfitter_cfg.c **** #define CYCLOCKSTART_XTAL_ERROR  1u
 100:Generated_Source\PSoC4/cyfitter_cfg.c **** #define CYCLOCKSTART_32KHZ_ERROR 2u
 101:Generated_Source\PSoC4/cyfitter_cfg.c **** #define CYCLOCKSTART_PLL_ERROR   3u
 102:Generated_Source\PSoC4/cyfitter_cfg.c **** #define CYCLOCKSTART_FLL_ERROR   4u
 103:Generated_Source\PSoC4/cyfitter_cfg.c **** #define CYCLOCKSTART_WCO_ERROR   5u
 104:Generated_Source\PSoC4/cyfitter_cfg.c **** 
 105:Generated_Source\PSoC4/cyfitter_cfg.c **** 
 106:Generated_Source\PSoC4/cyfitter_cfg.c **** #ifdef CY_NEED_CYCLOCKSTARTUPERROR
 107:Generated_Source\PSoC4/cyfitter_cfg.c **** /*******************************************************************************
 108:Generated_Source\PSoC4/cyfitter_cfg.c **** * Function Name: CyClockStartupError
 109:Generated_Source\PSoC4/cyfitter_cfg.c **** ********************************************************************************
 110:Generated_Source\PSoC4/cyfitter_cfg.c **** * Summary:
 111:Generated_Source\PSoC4/cyfitter_cfg.c **** *  If an error is encountered during clock configuration (crystal startup error,
 112:Generated_Source\PSoC4/cyfitter_cfg.c **** *  PLL lock error, etc.), the system will end up here.  Unless reimplemented by
 113:Generated_Source\PSoC4/cyfitter_cfg.c **** *  the customer, this function will stop in an infinite loop.
 114:Generated_Source\PSoC4/cyfitter_cfg.c **** *
 115:Generated_Source\PSoC4/cyfitter_cfg.c **** * Parameters:
 116:Generated_Source\PSoC4/cyfitter_cfg.c **** *   void
 117:Generated_Source\PSoC4/cyfitter_cfg.c **** *
 118:Generated_Source\PSoC4/cyfitter_cfg.c **** * Return:
 119:Generated_Source\PSoC4/cyfitter_cfg.c **** *   void
 120:Generated_Source\PSoC4/cyfitter_cfg.c **** *
 121:Generated_Source\PSoC4/cyfitter_cfg.c **** *******************************************************************************/
 122:Generated_Source\PSoC4/cyfitter_cfg.c **** CY_CFG_UNUSED
 123:Generated_Source\PSoC4/cyfitter_cfg.c **** static void CyClockStartupError(uint8 errorCode);
 124:Generated_Source\PSoC4/cyfitter_cfg.c **** CY_CFG_UNUSED
 125:Generated_Source\PSoC4/cyfitter_cfg.c **** static void CyClockStartupError(uint8 errorCode)
 126:Generated_Source\PSoC4/cyfitter_cfg.c **** {
 127:Generated_Source\PSoC4/cyfitter_cfg.c ****     /* To remove the compiler warning if errorCode not used.                */
 128:Generated_Source\PSoC4/cyfitter_cfg.c ****     errorCode = errorCode;
 129:Generated_Source\PSoC4/cyfitter_cfg.c **** 
 130:Generated_Source\PSoC4/cyfitter_cfg.c ****     /* If we have a clock startup error (bad MHz crystal, PLL lock, etc.),  */
 131:Generated_Source\PSoC4/cyfitter_cfg.c ****     /* we will end up here to allow the customer to implement something to  */
 132:Generated_Source\PSoC4/cyfitter_cfg.c ****     /* deal with the clock condition.                                       */
 133:Generated_Source\PSoC4/cyfitter_cfg.c **** 
 134:Generated_Source\PSoC4/cyfitter_cfg.c **** #ifdef CY_CFG_CLOCK_STARTUP_ERROR_CALLBACK
 135:Generated_Source\PSoC4/cyfitter_cfg.c ****     CY_CFG_Clock_Startup_ErrorCallback();
 136:Generated_Source\PSoC4/cyfitter_cfg.c **** #else
 137:Generated_Source\PSoC4/cyfitter_cfg.c ****     /*  If not using CY_CFG_CLOCK_STARTUP_ERROR_CALLBACK, place your clock startup code here. */
 138:Generated_Source\PSoC4/cyfitter_cfg.c ****     /* `#START CyClockStartupError` */
 139:Generated_Source\PSoC4/cyfitter_cfg.c **** 
 140:Generated_Source\PSoC4/cyfitter_cfg.c **** 
 141:Generated_Source\PSoC4/cyfitter_cfg.c **** 
 142:Generated_Source\PSoC4/cyfitter_cfg.c ****     /* `#END` */
 143:Generated_Source\PSoC4/cyfitter_cfg.c **** 
 144:Generated_Source\PSoC4/cyfitter_cfg.c ****     while(1) {}
 145:Generated_Source\PSoC4/cyfitter_cfg.c **** #endif /* CY_CFG_CLOCK_STARTUP_ERROR_CALLBACK */
 146:Generated_Source\PSoC4/cyfitter_cfg.c **** }
 147:Generated_Source\PSoC4/cyfitter_cfg.c **** #endif
 148:Generated_Source\PSoC4/cyfitter_cfg.c **** 
 149:Generated_Source\PSoC4/cyfitter_cfg.c **** #define CY_CFG_BASE_ADDR_COUNT 7u
ARM GAS  C:\Users\jagumiel\AppData\Local\Temp\ccFcURLj.s 			page 6


 150:Generated_Source\PSoC4/cyfitter_cfg.c **** CYPACKED typedef struct
 151:Generated_Source\PSoC4/cyfitter_cfg.c **** {
 152:Generated_Source\PSoC4/cyfitter_cfg.c **** 	uint8 offset;
 153:Generated_Source\PSoC4/cyfitter_cfg.c **** 	uint8 value;
 154:Generated_Source\PSoC4/cyfitter_cfg.c **** } CYPACKED_ATTR cy_cfg_addrvalue_t;
 155:Generated_Source\PSoC4/cyfitter_cfg.c **** 
 156:Generated_Source\PSoC4/cyfitter_cfg.c **** 
 157:Generated_Source\PSoC4/cyfitter_cfg.c **** 
 158:Generated_Source\PSoC4/cyfitter_cfg.c **** /*******************************************************************************
 159:Generated_Source\PSoC4/cyfitter_cfg.c **** * Function Name: cfg_write_bytes32
 160:Generated_Source\PSoC4/cyfitter_cfg.c **** ********************************************************************************
 161:Generated_Source\PSoC4/cyfitter_cfg.c **** * Summary:
 162:Generated_Source\PSoC4/cyfitter_cfg.c **** *  This function is used for setting up the chip configuration areas that
 163:Generated_Source\PSoC4/cyfitter_cfg.c **** *  contain relatively sparse data.
 164:Generated_Source\PSoC4/cyfitter_cfg.c **** *
 165:Generated_Source\PSoC4/cyfitter_cfg.c **** * Parameters:
 166:Generated_Source\PSoC4/cyfitter_cfg.c **** *   void
 167:Generated_Source\PSoC4/cyfitter_cfg.c **** *
 168:Generated_Source\PSoC4/cyfitter_cfg.c **** * Return:
 169:Generated_Source\PSoC4/cyfitter_cfg.c **** *   void
 170:Generated_Source\PSoC4/cyfitter_cfg.c **** *
 171:Generated_Source\PSoC4/cyfitter_cfg.c **** *******************************************************************************/
 172:Generated_Source\PSoC4/cyfitter_cfg.c **** static void cfg_write_bytes32(const uint32 addr_table[], const cy_cfg_addrvalue_t data_table[]);
 173:Generated_Source\PSoC4/cyfitter_cfg.c **** static void cfg_write_bytes32(const uint32 addr_table[], const cy_cfg_addrvalue_t data_table[])
 174:Generated_Source\PSoC4/cyfitter_cfg.c **** {
 137              		.loc 1 174 0
 138              		.cfi_startproc
 139              		@ args = 0, pretend = 0, frame = 24
 140              		@ frame_needed = 1, uses_anonymous_args = 0
 141 0000 80B5     		push	{r7, lr}
 142              		.cfi_def_cfa_offset 8
 143              		.cfi_offset 7, -8
 144              		.cfi_offset 14, -4
 145 0002 86B0     		sub	sp, sp, #24
 146              		.cfi_def_cfa_offset 32
 147 0004 00AF     		add	r7, sp, #0
 148              		.cfi_def_cfa_register 7
 149 0006 7860     		str	r0, [r7, #4]
 150 0008 3960     		str	r1, [r7]
 175:Generated_Source\PSoC4/cyfitter_cfg.c **** 	/* For 32-bit little-endian architectures */
 176:Generated_Source\PSoC4/cyfitter_cfg.c **** 	uint32 i, j = 0u;
 151              		.loc 1 176 0
 152 000a 0023     		movs	r3, #0
 153 000c 3B61     		str	r3, [r7, #16]
 177:Generated_Source\PSoC4/cyfitter_cfg.c **** 	for (i = 0u; i < CY_CFG_BASE_ADDR_COUNT; i++)
 154              		.loc 1 177 0
 155 000e 0023     		movs	r3, #0
 156 0010 7B61     		str	r3, [r7, #20]
 157 0012 2FE0     		b	.L5
 158              	.L8:
 159              	.LBB2:
 178:Generated_Source\PSoC4/cyfitter_cfg.c **** 	{
 179:Generated_Source\PSoC4/cyfitter_cfg.c **** 		uint32 baseAddr = addr_table[i];
 160              		.loc 1 179 0
 161 0014 7B69     		ldr	r3, [r7, #20]
 162 0016 9B00     		lsls	r3, r3, #2
 163 0018 7A68     		ldr	r2, [r7, #4]
ARM GAS  C:\Users\jagumiel\AppData\Local\Temp\ccFcURLj.s 			page 7


 164 001a D318     		adds	r3, r2, r3
 165 001c 1B68     		ldr	r3, [r3]
 166 001e BB60     		str	r3, [r7, #8]
 180:Generated_Source\PSoC4/cyfitter_cfg.c **** 		uint8 count = (uint8)baseAddr;
 167              		.loc 1 180 0
 168 0020 0F23     		movs	r3, #15
 169 0022 FB18     		adds	r3, r7, r3
 170 0024 BA68     		ldr	r2, [r7, #8]
 171 0026 1A70     		strb	r2, [r3]
 181:Generated_Source\PSoC4/cyfitter_cfg.c **** 		baseAddr &= 0xFFFFFF00u;
 172              		.loc 1 181 0
 173 0028 BB68     		ldr	r3, [r7, #8]
 174 002a FF22     		movs	r2, #255
 175 002c 9343     		bics	r3, r2
 176 002e BB60     		str	r3, [r7, #8]
 182:Generated_Source\PSoC4/cyfitter_cfg.c **** 		while (count != 0u)
 177              		.loc 1 182 0
 178 0030 18E0     		b	.L6
 179              	.L7:
 183:Generated_Source\PSoC4/cyfitter_cfg.c **** 		{
 184:Generated_Source\PSoC4/cyfitter_cfg.c **** 			CY_SET_REG8((void *)(baseAddr + data_table[j].offset), data_table[j].value);
 180              		.loc 1 184 0
 181 0032 3B69     		ldr	r3, [r7, #16]
 182 0034 5B00     		lsls	r3, r3, #1
 183 0036 3A68     		ldr	r2, [r7]
 184 0038 D318     		adds	r3, r2, r3
 185 003a 1B78     		ldrb	r3, [r3]
 186 003c 1A00     		movs	r2, r3
 187 003e BB68     		ldr	r3, [r7, #8]
 188 0040 D318     		adds	r3, r2, r3
 189 0042 1900     		movs	r1, r3
 190 0044 3B69     		ldr	r3, [r7, #16]
 191 0046 5B00     		lsls	r3, r3, #1
 192 0048 3A68     		ldr	r2, [r7]
 193 004a D318     		adds	r3, r2, r3
 194 004c 5B78     		ldrb	r3, [r3, #1]
 195 004e 0B70     		strb	r3, [r1]
 185:Generated_Source\PSoC4/cyfitter_cfg.c **** 			j++;
 196              		.loc 1 185 0
 197 0050 3B69     		ldr	r3, [r7, #16]
 198 0052 0133     		adds	r3, r3, #1
 199 0054 3B61     		str	r3, [r7, #16]
 186:Generated_Source\PSoC4/cyfitter_cfg.c **** 			count--;
 200              		.loc 1 186 0
 201 0056 0F23     		movs	r3, #15
 202 0058 FB18     		adds	r3, r7, r3
 203 005a 1A78     		ldrb	r2, [r3]
 204 005c 0F23     		movs	r3, #15
 205 005e FB18     		adds	r3, r7, r3
 206 0060 013A     		subs	r2, r2, #1
 207 0062 1A70     		strb	r2, [r3]
 208              	.L6:
 182:Generated_Source\PSoC4/cyfitter_cfg.c **** 		{
 209              		.loc 1 182 0
 210 0064 0F23     		movs	r3, #15
 211 0066 FB18     		adds	r3, r7, r3
 212 0068 1B78     		ldrb	r3, [r3]
ARM GAS  C:\Users\jagumiel\AppData\Local\Temp\ccFcURLj.s 			page 8


 213 006a 002B     		cmp	r3, #0
 214 006c E1D1     		bne	.L7
 215              	.LBE2:
 177:Generated_Source\PSoC4/cyfitter_cfg.c **** 	{
 216              		.loc 1 177 0 discriminator 2
 217 006e 7B69     		ldr	r3, [r7, #20]
 218 0070 0133     		adds	r3, r3, #1
 219 0072 7B61     		str	r3, [r7, #20]
 220              	.L5:
 177:Generated_Source\PSoC4/cyfitter_cfg.c **** 	{
 221              		.loc 1 177 0 is_stmt 0 discriminator 1
 222 0074 7B69     		ldr	r3, [r7, #20]
 223 0076 062B     		cmp	r3, #6
 224 0078 CCD9     		bls	.L8
 187:Generated_Source\PSoC4/cyfitter_cfg.c **** 		}
 188:Generated_Source\PSoC4/cyfitter_cfg.c **** 	}
 189:Generated_Source\PSoC4/cyfitter_cfg.c **** }
 225              		.loc 1 189 0 is_stmt 1
 226 007a C046     		nop
 227 007c BD46     		mov	sp, r7
 228 007e 06B0     		add	sp, sp, #24
 229              		@ sp needed
 230 0080 80BD     		pop	{r7, pc}
 231              		.cfi_endproc
 232              	.LFE3:
 233              		.size	cfg_write_bytes32, .-cfg_write_bytes32
 234 0082 C046     		.section	.psocinit,"ax",%progbits
 235              		.align	2
 236              		.code	16
 237              		.thumb_func
 238              		.type	ClockSetup, %function
 239              	ClockSetup:
 240              	.LFB4:
 190:Generated_Source\PSoC4/cyfitter_cfg.c **** 
 191:Generated_Source\PSoC4/cyfitter_cfg.c **** 
 192:Generated_Source\PSoC4/cyfitter_cfg.c **** /*******************************************************************************
 193:Generated_Source\PSoC4/cyfitter_cfg.c **** * Function Name: ClockSetup
 194:Generated_Source\PSoC4/cyfitter_cfg.c **** ********************************************************************************
 195:Generated_Source\PSoC4/cyfitter_cfg.c **** *
 196:Generated_Source\PSoC4/cyfitter_cfg.c **** * Summary:
 197:Generated_Source\PSoC4/cyfitter_cfg.c **** *   Performs the initialization of all of the clocks in the device based on the
 198:Generated_Source\PSoC4/cyfitter_cfg.c **** *   settings in the Clock tab of the DWR.  This includes enabling the requested
 199:Generated_Source\PSoC4/cyfitter_cfg.c **** *   clocks and setting the necessary dividers to produce the desired frequency. 
 200:Generated_Source\PSoC4/cyfitter_cfg.c **** *
 201:Generated_Source\PSoC4/cyfitter_cfg.c **** * Parameters:
 202:Generated_Source\PSoC4/cyfitter_cfg.c **** *   void
 203:Generated_Source\PSoC4/cyfitter_cfg.c **** *
 204:Generated_Source\PSoC4/cyfitter_cfg.c **** * Return:
 205:Generated_Source\PSoC4/cyfitter_cfg.c **** *   void
 206:Generated_Source\PSoC4/cyfitter_cfg.c **** *
 207:Generated_Source\PSoC4/cyfitter_cfg.c **** *******************************************************************************/
 208:Generated_Source\PSoC4/cyfitter_cfg.c **** static void ClockSetup(void);
 209:Generated_Source\PSoC4/cyfitter_cfg.c **** CY_CFG_SECTION
 210:Generated_Source\PSoC4/cyfitter_cfg.c **** static void ClockSetup(void)
 211:Generated_Source\PSoC4/cyfitter_cfg.c **** {
 241              		.loc 1 211 0
 242              		.cfi_startproc
ARM GAS  C:\Users\jagumiel\AppData\Local\Temp\ccFcURLj.s 			page 9


 243              		@ args = 0, pretend = 0, frame = 0
 244              		@ frame_needed = 1, uses_anonymous_args = 0
 245 0000 80B5     		push	{r7, lr}
 246              		.cfi_def_cfa_offset 8
 247              		.cfi_offset 7, -8
 248              		.cfi_offset 14, -4
 249 0002 00AF     		add	r7, sp, #0
 250              		.cfi_def_cfa_register 7
 212:Generated_Source\PSoC4/cyfitter_cfg.c **** 	/* Enable HALF_EN before trimming for the flash accelerator. */
 213:Generated_Source\PSoC4/cyfitter_cfg.c **** 	CY_SET_REG32((void CYXDATA *)(CYREG_CLK_SELECT), (CY_GET_REG32((void *)CYREG_CLK_SELECT) | 0x00040
 251              		.loc 1 213 0
 252 0004 154B     		ldr	r3, .L10
 253 0006 154A     		ldr	r2, .L10
 254 0008 1268     		ldr	r2, [r2]
 255 000a 8021     		movs	r1, #128
 256 000c C902     		lsls	r1, r1, #11
 257 000e 0A43     		orrs	r2, r1
 258 0010 1A60     		str	r2, [r3]
 214:Generated_Source\PSoC4/cyfitter_cfg.c **** 
 215:Generated_Source\PSoC4/cyfitter_cfg.c **** 	/* Setup and trim IMO based on desired frequency. */
 216:Generated_Source\PSoC4/cyfitter_cfg.c **** 	CySysClkWriteImoFreq(24u);
 259              		.loc 1 216 0
 260 0012 1820     		movs	r0, #24
 261 0014 FFF7FEFF 		bl	CySysClkWriteImoFreq
 217:Generated_Source\PSoC4/cyfitter_cfg.c **** 
 218:Generated_Source\PSoC4/cyfitter_cfg.c **** 	/* Disable HALF_EN since it is not required at this IMO frequency. */
 219:Generated_Source\PSoC4/cyfitter_cfg.c **** 	CY_SET_REG32((void CYXDATA *)(CYREG_CLK_SELECT), (CY_GET_REG32((void *)CYREG_CLK_SELECT) & 0xFFFBF
 262              		.loc 1 219 0
 263 0018 104B     		ldr	r3, .L10
 264 001a 104A     		ldr	r2, .L10
 265 001c 1268     		ldr	r2, [r2]
 266 001e 1049     		ldr	r1, .L10+4
 267 0020 0A40     		ands	r2, r1
 268 0022 1A60     		str	r2, [r3]
 220:Generated_Source\PSoC4/cyfitter_cfg.c **** 	/* CYDEV_CLK_ILO_CONFIG Starting address: CYDEV_CLK_ILO_CONFIG */
 221:Generated_Source\PSoC4/cyfitter_cfg.c **** 	CY_SET_REG32((void *)(CYREG_CLK_ILO_CONFIG), 0x80000006u);
 269              		.loc 1 221 0
 270 0024 0F4B     		ldr	r3, .L10+8
 271 0026 104A     		ldr	r2, .L10+12
 272 0028 1A60     		str	r2, [r3]
 222:Generated_Source\PSoC4/cyfitter_cfg.c **** 
 223:Generated_Source\PSoC4/cyfitter_cfg.c **** 
 224:Generated_Source\PSoC4/cyfitter_cfg.c **** 	/* CYDEV_CLK_SELECT00 Starting address: CYDEV_CLK_SELECT00 */
 225:Generated_Source\PSoC4/cyfitter_cfg.c **** 	CY_SET_REG32((void *)(CYREG_CLK_SELECT02), 0x00000010u);
 273              		.loc 1 225 0
 274 002a 104B     		ldr	r3, .L10+16
 275 002c 1022     		movs	r2, #16
 276 002e 1A60     		str	r2, [r3]
 226:Generated_Source\PSoC4/cyfitter_cfg.c **** 	CY_SET_REG32((void *)(CYREG_CLK_SELECT12), 0x00000020u);
 277              		.loc 1 226 0
 278 0030 0F4B     		ldr	r3, .L10+20
 279 0032 2022     		movs	r2, #32
 280 0034 1A60     		str	r2, [r3]
 227:Generated_Source\PSoC4/cyfitter_cfg.c **** 
 228:Generated_Source\PSoC4/cyfitter_cfg.c **** 	/* CYDEV_CLK_IMO_CONFIG Starting address: CYDEV_CLK_IMO_CONFIG */
 229:Generated_Source\PSoC4/cyfitter_cfg.c **** 	CY_SET_REG32((void *)(CYREG_CLK_IMO_CONFIG), 0x80000000u);
 281              		.loc 1 229 0
ARM GAS  C:\Users\jagumiel\AppData\Local\Temp\ccFcURLj.s 			page 10


 282 0036 0F4B     		ldr	r3, .L10+24
 283 0038 8022     		movs	r2, #128
 284 003a 1206     		lsls	r2, r2, #24
 285 003c 1A60     		str	r2, [r3]
 230:Generated_Source\PSoC4/cyfitter_cfg.c **** 
 231:Generated_Source\PSoC4/cyfitter_cfg.c **** 	/* CYDEV_CLK_SELECT Starting address: CYDEV_CLK_SELECT */
 232:Generated_Source\PSoC4/cyfitter_cfg.c **** 	CY_SET_REG32((void *)(CYREG_CLK_SELECT), 0x00000000u);
 286              		.loc 1 232 0
 287 003e 074B     		ldr	r3, .L10
 288 0040 0022     		movs	r2, #0
 289 0042 1A60     		str	r2, [r3]
 233:Generated_Source\PSoC4/cyfitter_cfg.c **** 
 234:Generated_Source\PSoC4/cyfitter_cfg.c **** 	/* CYDEV_CLK_DIVIDER_A00 Starting address: CYDEV_CLK_DIVIDER_A00 */
 235:Generated_Source\PSoC4/cyfitter_cfg.c **** 	CY_SET_REG32((void *)(CYREG_CLK_DIVIDER_A00), 0x80000138u);
 290              		.loc 1 235 0
 291 0044 0C4B     		ldr	r3, .L10+28
 292 0046 0D4A     		ldr	r2, .L10+32
 293 0048 1A60     		str	r2, [r3]
 236:Generated_Source\PSoC4/cyfitter_cfg.c **** 
 237:Generated_Source\PSoC4/cyfitter_cfg.c **** 	/* CYDEV_CLK_DIVIDER_B00 Starting address: CYDEV_CLK_DIVIDER_B00 */
 238:Generated_Source\PSoC4/cyfitter_cfg.c **** 	CY_SET_REG32((void *)(CYREG_CLK_DIVIDER_B00), 0x800003BFu);
 294              		.loc 1 238 0
 295 004a 0D4B     		ldr	r3, .L10+36
 296 004c 0D4A     		ldr	r2, .L10+40
 297 004e 1A60     		str	r2, [r3]
 239:Generated_Source\PSoC4/cyfitter_cfg.c **** 
 240:Generated_Source\PSoC4/cyfitter_cfg.c **** 	CY_SET_REG32((void *)(CYREG_WDT_CONFIG), 0x00000000u);
 298              		.loc 1 240 0
 299 0050 0D4B     		ldr	r3, .L10+44
 300 0052 0022     		movs	r2, #0
 301 0054 1A60     		str	r2, [r3]
 241:Generated_Source\PSoC4/cyfitter_cfg.c **** }
 302              		.loc 1 241 0
 303 0056 C046     		nop
 304 0058 BD46     		mov	sp, r7
 305              		@ sp needed
 306 005a 80BD     		pop	{r7, pc}
 307              	.L11:
 308              		.align	2
 309              	.L10:
 310 005c 00010B40 		.word	1074462976
 311 0060 FFFFFBFF 		.word	-262145
 312 0064 04010B40 		.word	1074462980
 313 0068 06000080 		.word	-2147483642
 314 006c 08020240 		.word	1073873416
 315 0070 30020240 		.word	1073873456
 316 0074 08010B40 		.word	1074462984
 317 0078 00000240 		.word	1073872896
 318 007c 38010080 		.word	-2147483336
 319 0080 40000240 		.word	1073872960
 320 0084 BF030080 		.word	-2147482689
 321 0088 0C020B40 		.word	1074463244
 322              		.cfi_endproc
 323              	.LFE4:
 324              		.size	ClockSetup, .-ClockSetup
 325              		.section	.text.AnalogSetDefault,"ax",%progbits
 326              		.align	2
ARM GAS  C:\Users\jagumiel\AppData\Local\Temp\ccFcURLj.s 			page 11


 327              		.code	16
 328              		.thumb_func
 329              		.type	AnalogSetDefault, %function
 330              	AnalogSetDefault:
 331              	.LFB5:
 242:Generated_Source\PSoC4/cyfitter_cfg.c **** 
 243:Generated_Source\PSoC4/cyfitter_cfg.c **** 
 244:Generated_Source\PSoC4/cyfitter_cfg.c **** /* Analog API Functions */
 245:Generated_Source\PSoC4/cyfitter_cfg.c **** 
 246:Generated_Source\PSoC4/cyfitter_cfg.c **** 
 247:Generated_Source\PSoC4/cyfitter_cfg.c **** /*******************************************************************************
 248:Generated_Source\PSoC4/cyfitter_cfg.c **** * Function Name: AnalogSetDefault
 249:Generated_Source\PSoC4/cyfitter_cfg.c **** ********************************************************************************
 250:Generated_Source\PSoC4/cyfitter_cfg.c **** *
 251:Generated_Source\PSoC4/cyfitter_cfg.c **** * Summary:
 252:Generated_Source\PSoC4/cyfitter_cfg.c **** *  Sets up the analog portions of the chip to default values based on chip
 253:Generated_Source\PSoC4/cyfitter_cfg.c **** *  configuration options from the project.
 254:Generated_Source\PSoC4/cyfitter_cfg.c **** *
 255:Generated_Source\PSoC4/cyfitter_cfg.c **** * Parameters:
 256:Generated_Source\PSoC4/cyfitter_cfg.c **** *  void
 257:Generated_Source\PSoC4/cyfitter_cfg.c **** *
 258:Generated_Source\PSoC4/cyfitter_cfg.c **** * Return:
 259:Generated_Source\PSoC4/cyfitter_cfg.c **** *  void
 260:Generated_Source\PSoC4/cyfitter_cfg.c **** *
 261:Generated_Source\PSoC4/cyfitter_cfg.c **** *******************************************************************************/
 262:Generated_Source\PSoC4/cyfitter_cfg.c **** static void AnalogSetDefault(void);
 263:Generated_Source\PSoC4/cyfitter_cfg.c **** static void AnalogSetDefault(void)
 264:Generated_Source\PSoC4/cyfitter_cfg.c **** {
 332              		.loc 1 264 0
 333              		.cfi_startproc
 334              		@ args = 0, pretend = 0, frame = 0
 335              		@ frame_needed = 1, uses_anonymous_args = 0
 336 0000 80B5     		push	{r7, lr}
 337              		.cfi_def_cfa_offset 8
 338              		.cfi_offset 7, -8
 339              		.cfi_offset 14, -4
 340 0002 00AF     		add	r7, sp, #0
 341              		.cfi_def_cfa_register 7
 265:Generated_Source\PSoC4/cyfitter_cfg.c **** }
 342              		.loc 1 265 0
 343 0004 C046     		nop
 344 0006 BD46     		mov	sp, r7
 345              		@ sp needed
 346 0008 80BD     		pop	{r7, pc}
 347              		.cfi_endproc
 348              	.LFE5:
 349              		.size	AnalogSetDefault, .-AnalogSetDefault
 350 000a C046     		.section	.psocinit
 351              		.align	2
 352              		.global	cyfitter_cfg
 353              		.code	16
 354              		.thumb_func
 355              		.type	cyfitter_cfg, %function
 356              	cyfitter_cfg:
 357              	.LFB6:
 266:Generated_Source\PSoC4/cyfitter_cfg.c **** 
 267:Generated_Source\PSoC4/cyfitter_cfg.c **** 
ARM GAS  C:\Users\jagumiel\AppData\Local\Temp\ccFcURLj.s 			page 12


 268:Generated_Source\PSoC4/cyfitter_cfg.c **** 
 269:Generated_Source\PSoC4/cyfitter_cfg.c **** 
 270:Generated_Source\PSoC4/cyfitter_cfg.c **** /*******************************************************************************
 271:Generated_Source\PSoC4/cyfitter_cfg.c **** * Function Name: cyfitter_cfg
 272:Generated_Source\PSoC4/cyfitter_cfg.c **** ********************************************************************************
 273:Generated_Source\PSoC4/cyfitter_cfg.c **** * Summary:
 274:Generated_Source\PSoC4/cyfitter_cfg.c **** *  This function is called by the start-up code for the selected device. It
 275:Generated_Source\PSoC4/cyfitter_cfg.c **** *  performs all of the necessary device configuration based on the design
 276:Generated_Source\PSoC4/cyfitter_cfg.c **** *  settings.  This includes settings from the Design Wide Resources (DWR) such
 277:Generated_Source\PSoC4/cyfitter_cfg.c **** *  as Clocks and Pins as well as any component configuration that is necessary.
 278:Generated_Source\PSoC4/cyfitter_cfg.c **** *
 279:Generated_Source\PSoC4/cyfitter_cfg.c **** * Parameters:
 280:Generated_Source\PSoC4/cyfitter_cfg.c **** *   void
 281:Generated_Source\PSoC4/cyfitter_cfg.c **** *
 282:Generated_Source\PSoC4/cyfitter_cfg.c **** * Return:
 283:Generated_Source\PSoC4/cyfitter_cfg.c **** *   void
 284:Generated_Source\PSoC4/cyfitter_cfg.c **** *
 285:Generated_Source\PSoC4/cyfitter_cfg.c **** *******************************************************************************/
 286:Generated_Source\PSoC4/cyfitter_cfg.c **** CY_CFG_SECTION
 287:Generated_Source\PSoC4/cyfitter_cfg.c **** void cyfitter_cfg(void)
 288:Generated_Source\PSoC4/cyfitter_cfg.c **** {
 358              		.loc 1 288 0
 359              		.cfi_startproc
 360              		@ args = 0, pretend = 0, frame = 8
 361              		@ frame_needed = 1, uses_anonymous_args = 0
 362 008c 80B5     		push	{r7, lr}
 363              		.cfi_def_cfa_offset 8
 364              		.cfi_offset 7, -8
 365              		.cfi_offset 14, -4
 366 008e 82B0     		sub	sp, sp, #8
 367              		.cfi_def_cfa_offset 16
 368 0090 00AF     		add	r7, sp, #0
 369              		.cfi_def_cfa_register 7
 289:Generated_Source\PSoC4/cyfitter_cfg.c **** 	/* Disable interrupts by default. Let user enable if/when they want. */
 290:Generated_Source\PSoC4/cyfitter_cfg.c **** 	CyGlobalIntDisable;
 370              		.loc 1 290 0
 371              		.syntax divided
 372              	@ 290 "Generated_Source\PSoC4\cyfitter_cfg.c" 1
 373 0092 72B6     		CPSID   i
 374              	@ 0 "" 2
 375              		.thumb
 376              		.syntax unified
 377              	.LBB3:
 291:Generated_Source\PSoC4/cyfitter_cfg.c **** 
 292:Generated_Source\PSoC4/cyfitter_cfg.c **** 	{
 293:Generated_Source\PSoC4/cyfitter_cfg.c **** 		static const uint32 CYCODE cy_cfg_addr_table[] = {
 294:Generated_Source\PSoC4/cyfitter_cfg.c **** 			0x400F0002u, /* Base address: 0x400F0000 Count: 2 */
 295:Generated_Source\PSoC4/cyfitter_cfg.c **** 			0x400F324Eu, /* Base address: 0x400F3200 Count: 78 */
 296:Generated_Source\PSoC4/cyfitter_cfg.c **** 			0x400F332Cu, /* Base address: 0x400F3300 Count: 44 */
 297:Generated_Source\PSoC4/cyfitter_cfg.c **** 			0x400F4002u, /* Base address: 0x400F4000 Count: 2 */
 298:Generated_Source\PSoC4/cyfitter_cfg.c **** 			0x400F4103u, /* Base address: 0x400F4100 Count: 3 */
 299:Generated_Source\PSoC4/cyfitter_cfg.c **** 			0x400F4303u, /* Base address: 0x400F4300 Count: 3 */
 300:Generated_Source\PSoC4/cyfitter_cfg.c **** 			0x400F6002u, /* Base address: 0x400F6000 Count: 2 */
 301:Generated_Source\PSoC4/cyfitter_cfg.c **** 		};
 302:Generated_Source\PSoC4/cyfitter_cfg.c **** 
 303:Generated_Source\PSoC4/cyfitter_cfg.c **** 		static const cy_cfg_addrvalue_t CYCODE cy_cfg_data_table[] = {
 304:Generated_Source\PSoC4/cyfitter_cfg.c **** 			{0x82u, 0x0Du},
ARM GAS  C:\Users\jagumiel\AppData\Local\Temp\ccFcURLj.s 			page 13


 305:Generated_Source\PSoC4/cyfitter_cfg.c **** 			{0x83u, 0x0Du},
 306:Generated_Source\PSoC4/cyfitter_cfg.c **** 			{0x0Au, 0x04u},
 307:Generated_Source\PSoC4/cyfitter_cfg.c **** 			{0x0Fu, 0x01u},
 308:Generated_Source\PSoC4/cyfitter_cfg.c **** 			{0x14u, 0x01u},
 309:Generated_Source\PSoC4/cyfitter_cfg.c **** 			{0x18u, 0x07u},
 310:Generated_Source\PSoC4/cyfitter_cfg.c **** 			{0x27u, 0x01u},
 311:Generated_Source\PSoC4/cyfitter_cfg.c **** 			{0x2Eu, 0x08u},
 312:Generated_Source\PSoC4/cyfitter_cfg.c **** 			{0x30u, 0x01u},
 313:Generated_Source\PSoC4/cyfitter_cfg.c **** 			{0x32u, 0x02u},
 314:Generated_Source\PSoC4/cyfitter_cfg.c **** 			{0x34u, 0x08u},
 315:Generated_Source\PSoC4/cyfitter_cfg.c **** 			{0x35u, 0x01u},
 316:Generated_Source\PSoC4/cyfitter_cfg.c **** 			{0x36u, 0x04u},
 317:Generated_Source\PSoC4/cyfitter_cfg.c **** 			{0x3Fu, 0x10u},
 318:Generated_Source\PSoC4/cyfitter_cfg.c **** 			{0x40u, 0x20u},
 319:Generated_Source\PSoC4/cyfitter_cfg.c **** 			{0x41u, 0x05u},
 320:Generated_Source\PSoC4/cyfitter_cfg.c **** 			{0x45u, 0xD1u},
 321:Generated_Source\PSoC4/cyfitter_cfg.c **** 			{0x46u, 0x02u},
 322:Generated_Source\PSoC4/cyfitter_cfg.c **** 			{0x48u, 0x07u},
 323:Generated_Source\PSoC4/cyfitter_cfg.c **** 			{0x49u, 0xFFu},
 324:Generated_Source\PSoC4/cyfitter_cfg.c **** 			{0x4Au, 0xFFu},
 325:Generated_Source\PSoC4/cyfitter_cfg.c **** 			{0x4Bu, 0xFFu},
 326:Generated_Source\PSoC4/cyfitter_cfg.c **** 			{0x4Du, 0xA0u},
 327:Generated_Source\PSoC4/cyfitter_cfg.c **** 			{0x4Fu, 0x04u},
 328:Generated_Source\PSoC4/cyfitter_cfg.c **** 			{0x50u, 0x18u},
 329:Generated_Source\PSoC4/cyfitter_cfg.c **** 			{0x52u, 0x80u},
 330:Generated_Source\PSoC4/cyfitter_cfg.c **** 			{0x54u, 0x05u},
 331:Generated_Source\PSoC4/cyfitter_cfg.c **** 			{0x58u, 0x04u},
 332:Generated_Source\PSoC4/cyfitter_cfg.c **** 			{0x59u, 0x04u},
 333:Generated_Source\PSoC4/cyfitter_cfg.c **** 			{0x5Au, 0x04u},
 334:Generated_Source\PSoC4/cyfitter_cfg.c **** 			{0x5Bu, 0x04u},
 335:Generated_Source\PSoC4/cyfitter_cfg.c **** 			{0x5Fu, 0x01u},
 336:Generated_Source\PSoC4/cyfitter_cfg.c **** 			{0x60u, 0x40u},
 337:Generated_Source\PSoC4/cyfitter_cfg.c **** 			{0x62u, 0xC0u},
 338:Generated_Source\PSoC4/cyfitter_cfg.c **** 			{0x64u, 0x40u},
 339:Generated_Source\PSoC4/cyfitter_cfg.c **** 			{0x65u, 0x40u},
 340:Generated_Source\PSoC4/cyfitter_cfg.c **** 			{0x66u, 0xC0u},
 341:Generated_Source\PSoC4/cyfitter_cfg.c **** 			{0x68u, 0xC0u},
 342:Generated_Source\PSoC4/cyfitter_cfg.c **** 			{0x6Au, 0xC0u},
 343:Generated_Source\PSoC4/cyfitter_cfg.c **** 			{0x6Cu, 0xC0u},
 344:Generated_Source\PSoC4/cyfitter_cfg.c **** 			{0x6Eu, 0xC0u},
 345:Generated_Source\PSoC4/cyfitter_cfg.c **** 			{0x86u, 0x04u},
 346:Generated_Source\PSoC4/cyfitter_cfg.c **** 			{0x87u, 0x01u},
 347:Generated_Source\PSoC4/cyfitter_cfg.c **** 			{0x92u, 0x08u},
 348:Generated_Source\PSoC4/cyfitter_cfg.c **** 			{0x93u, 0x01u},
 349:Generated_Source\PSoC4/cyfitter_cfg.c **** 			{0x9Cu, 0x01u},
 350:Generated_Source\PSoC4/cyfitter_cfg.c **** 			{0xA4u, 0x07u},
 351:Generated_Source\PSoC4/cyfitter_cfg.c **** 			{0xB0u, 0x01u},
 352:Generated_Source\PSoC4/cyfitter_cfg.c **** 			{0xB2u, 0x04u},
 353:Generated_Source\PSoC4/cyfitter_cfg.c **** 			{0xB3u, 0x01u},
 354:Generated_Source\PSoC4/cyfitter_cfg.c **** 			{0xB4u, 0x08u},
 355:Generated_Source\PSoC4/cyfitter_cfg.c **** 			{0xB6u, 0x02u},
 356:Generated_Source\PSoC4/cyfitter_cfg.c **** 			{0xBFu, 0x04u},
 357:Generated_Source\PSoC4/cyfitter_cfg.c **** 			{0xC0u, 0x20u},
 358:Generated_Source\PSoC4/cyfitter_cfg.c **** 			{0xC1u, 0x05u},
 359:Generated_Source\PSoC4/cyfitter_cfg.c **** 			{0xC5u, 0xD1u},
 360:Generated_Source\PSoC4/cyfitter_cfg.c **** 			{0xC7u, 0x20u},
 361:Generated_Source\PSoC4/cyfitter_cfg.c **** 			{0xC8u, 0x23u},
ARM GAS  C:\Users\jagumiel\AppData\Local\Temp\ccFcURLj.s 			page 14


 362:Generated_Source\PSoC4/cyfitter_cfg.c **** 			{0xC9u, 0xFFu},
 363:Generated_Source\PSoC4/cyfitter_cfg.c **** 			{0xCAu, 0xFFu},
 364:Generated_Source\PSoC4/cyfitter_cfg.c **** 			{0xCBu, 0xFFu},
 365:Generated_Source\PSoC4/cyfitter_cfg.c **** 			{0xCDu, 0xA0u},
 366:Generated_Source\PSoC4/cyfitter_cfg.c **** 			{0xCFu, 0x04u},
 367:Generated_Source\PSoC4/cyfitter_cfg.c **** 			{0xD0u, 0x18u},
 368:Generated_Source\PSoC4/cyfitter_cfg.c **** 			{0xD2u, 0x80u},
 369:Generated_Source\PSoC4/cyfitter_cfg.c **** 			{0xD4u, 0x05u},
 370:Generated_Source\PSoC4/cyfitter_cfg.c **** 			{0xD8u, 0x04u},
 371:Generated_Source\PSoC4/cyfitter_cfg.c **** 			{0xD9u, 0x04u},
 372:Generated_Source\PSoC4/cyfitter_cfg.c **** 			{0xDAu, 0x04u},
 373:Generated_Source\PSoC4/cyfitter_cfg.c **** 			{0xDBu, 0x04u},
 374:Generated_Source\PSoC4/cyfitter_cfg.c **** 			{0xDFu, 0x01u},
 375:Generated_Source\PSoC4/cyfitter_cfg.c **** 			{0xE0u, 0x40u},
 376:Generated_Source\PSoC4/cyfitter_cfg.c **** 			{0xE2u, 0xC0u},
 377:Generated_Source\PSoC4/cyfitter_cfg.c **** 			{0xE4u, 0x40u},
 378:Generated_Source\PSoC4/cyfitter_cfg.c **** 			{0xE5u, 0x40u},
 379:Generated_Source\PSoC4/cyfitter_cfg.c **** 			{0xE6u, 0xC0u},
 380:Generated_Source\PSoC4/cyfitter_cfg.c **** 			{0xE8u, 0xC0u},
 381:Generated_Source\PSoC4/cyfitter_cfg.c **** 			{0xEAu, 0xC0u},
 382:Generated_Source\PSoC4/cyfitter_cfg.c **** 			{0xECu, 0xC0u},
 383:Generated_Source\PSoC4/cyfitter_cfg.c **** 			{0xEEu, 0xC0u},
 384:Generated_Source\PSoC4/cyfitter_cfg.c **** 			{0x00u, 0x04u},
 385:Generated_Source\PSoC4/cyfitter_cfg.c **** 			{0x05u, 0x10u},
 386:Generated_Source\PSoC4/cyfitter_cfg.c **** 			{0x09u, 0x02u},
 387:Generated_Source\PSoC4/cyfitter_cfg.c **** 			{0x0Au, 0x01u},
 388:Generated_Source\PSoC4/cyfitter_cfg.c **** 			{0x0Eu, 0x20u},
 389:Generated_Source\PSoC4/cyfitter_cfg.c **** 			{0x0Fu, 0x08u},
 390:Generated_Source\PSoC4/cyfitter_cfg.c **** 			{0x10u, 0x20u},
 391:Generated_Source\PSoC4/cyfitter_cfg.c **** 			{0x17u, 0x80u},
 392:Generated_Source\PSoC4/cyfitter_cfg.c **** 			{0x18u, 0x04u},
 393:Generated_Source\PSoC4/cyfitter_cfg.c **** 			{0x1Au, 0x61u},
 394:Generated_Source\PSoC4/cyfitter_cfg.c **** 			{0x1Du, 0x30u},
 395:Generated_Source\PSoC4/cyfitter_cfg.c **** 			{0x1Eu, 0xA0u},
 396:Generated_Source\PSoC4/cyfitter_cfg.c **** 			{0x1Fu, 0x60u},
 397:Generated_Source\PSoC4/cyfitter_cfg.c **** 			{0x22u, 0x04u},
 398:Generated_Source\PSoC4/cyfitter_cfg.c **** 			{0x27u, 0x08u},
 399:Generated_Source\PSoC4/cyfitter_cfg.c **** 			{0x2Fu, 0x20u},
 400:Generated_Source\PSoC4/cyfitter_cfg.c **** 			{0x30u, 0x02u},
 401:Generated_Source\PSoC4/cyfitter_cfg.c **** 			{0x38u, 0x04u},
 402:Generated_Source\PSoC4/cyfitter_cfg.c **** 			{0x3Fu, 0x80u},
 403:Generated_Source\PSoC4/cyfitter_cfg.c **** 			{0x40u, 0x04u},
 404:Generated_Source\PSoC4/cyfitter_cfg.c **** 			{0x45u, 0x20u},
 405:Generated_Source\PSoC4/cyfitter_cfg.c **** 			{0x48u, 0x22u},
 406:Generated_Source\PSoC4/cyfitter_cfg.c **** 			{0x49u, 0x01u},
 407:Generated_Source\PSoC4/cyfitter_cfg.c **** 			{0x4Fu, 0x89u},
 408:Generated_Source\PSoC4/cyfitter_cfg.c **** 			{0x50u, 0x02u},
 409:Generated_Source\PSoC4/cyfitter_cfg.c **** 			{0x57u, 0x40u},
 410:Generated_Source\PSoC4/cyfitter_cfg.c **** 			{0x59u, 0x01u},
 411:Generated_Source\PSoC4/cyfitter_cfg.c **** 			{0x5Au, 0x48u},
 412:Generated_Source\PSoC4/cyfitter_cfg.c **** 			{0x5Eu, 0x80u},
 413:Generated_Source\PSoC4/cyfitter_cfg.c **** 			{0x5Fu, 0x09u},
 414:Generated_Source\PSoC4/cyfitter_cfg.c **** 			{0x71u, 0x02u},
 415:Generated_Source\PSoC4/cyfitter_cfg.c **** 			{0x77u, 0x80u},
 416:Generated_Source\PSoC4/cyfitter_cfg.c **** 			{0x82u, 0x10u},
 417:Generated_Source\PSoC4/cyfitter_cfg.c **** 			{0x87u, 0x40u},
 418:Generated_Source\PSoC4/cyfitter_cfg.c **** 			{0xC0u, 0x44u},
ARM GAS  C:\Users\jagumiel\AppData\Local\Temp\ccFcURLj.s 			page 15


 419:Generated_Source\PSoC4/cyfitter_cfg.c **** 			{0xC2u, 0x69u},
 420:Generated_Source\PSoC4/cyfitter_cfg.c **** 			{0xC4u, 0x84u},
 421:Generated_Source\PSoC4/cyfitter_cfg.c **** 			{0xCAu, 0x40u},
 422:Generated_Source\PSoC4/cyfitter_cfg.c **** 			{0xCCu, 0x01u},
 423:Generated_Source\PSoC4/cyfitter_cfg.c **** 			{0xCEu, 0x12u},
 424:Generated_Source\PSoC4/cyfitter_cfg.c **** 			{0xD0u, 0x24u},
 425:Generated_Source\PSoC4/cyfitter_cfg.c **** 			{0xD2u, 0x18u},
 426:Generated_Source\PSoC4/cyfitter_cfg.c **** 			{0xD6u, 0xDBu},
 427:Generated_Source\PSoC4/cyfitter_cfg.c **** 			{0xE4u, 0x04u},
 428:Generated_Source\PSoC4/cyfitter_cfg.c **** 			{0x62u, 0x08u},
 429:Generated_Source\PSoC4/cyfitter_cfg.c **** 			{0xD8u, 0x40u},
 430:Generated_Source\PSoC4/cyfitter_cfg.c **** 			{0x86u, 0x08u},
 431:Generated_Source\PSoC4/cyfitter_cfg.c **** 			{0xA6u, 0x08u},
 432:Generated_Source\PSoC4/cyfitter_cfg.c **** 			{0xE2u, 0x10u},
 433:Generated_Source\PSoC4/cyfitter_cfg.c **** 			{0x67u, 0x02u},
 434:Generated_Source\PSoC4/cyfitter_cfg.c **** 			{0x83u, 0x01u},
 435:Generated_Source\PSoC4/cyfitter_cfg.c **** 			{0xD6u, 0x01u},
 436:Generated_Source\PSoC4/cyfitter_cfg.c **** 			{0x01u, 0x01u},
 437:Generated_Source\PSoC4/cyfitter_cfg.c **** 			{0x10u, 0x01u},
 438:Generated_Source\PSoC4/cyfitter_cfg.c **** 		};
 439:Generated_Source\PSoC4/cyfitter_cfg.c **** 
 440:Generated_Source\PSoC4/cyfitter_cfg.c **** 
 441:Generated_Source\PSoC4/cyfitter_cfg.c **** 
 442:Generated_Source\PSoC4/cyfitter_cfg.c **** 		CYPACKED typedef struct {
 443:Generated_Source\PSoC4/cyfitter_cfg.c **** 			void CYFAR *address;
 444:Generated_Source\PSoC4/cyfitter_cfg.c **** 			uint16 size;
 445:Generated_Source\PSoC4/cyfitter_cfg.c **** 		} CYPACKED_ATTR cfg_memset_t;
 446:Generated_Source\PSoC4/cyfitter_cfg.c **** 
 447:Generated_Source\PSoC4/cyfitter_cfg.c **** 		static const cfg_memset_t CYCODE cfg_memset_list[] = {
 448:Generated_Source\PSoC4/cyfitter_cfg.c **** 			/* address, size */
 449:Generated_Source\PSoC4/cyfitter_cfg.c **** 			{(void CYFAR *)(CYDEV_UDB_P0_U0_BASE), 1024u},
 450:Generated_Source\PSoC4/cyfitter_cfg.c **** 			{(void CYFAR *)(CYDEV_UDB_DSI0_BASE), 1024u},
 451:Generated_Source\PSoC4/cyfitter_cfg.c **** 		};
 452:Generated_Source\PSoC4/cyfitter_cfg.c **** 
 453:Generated_Source\PSoC4/cyfitter_cfg.c **** 		uint8 CYDATA i;
 454:Generated_Source\PSoC4/cyfitter_cfg.c **** 
 455:Generated_Source\PSoC4/cyfitter_cfg.c **** 		/* Zero out critical memory blocks before beginning configuration */
 456:Generated_Source\PSoC4/cyfitter_cfg.c **** 		for (i = 0u; i < (sizeof(cfg_memset_list)/sizeof(cfg_memset_list[0])); i++)
 378              		.loc 1 456 0
 379 0094 FB1D     		adds	r3, r7, #7
 380 0096 0022     		movs	r2, #0
 381 0098 1A70     		strb	r2, [r3]
 382 009a 22E0     		b	.L14
 383              	.L15:
 384              	.LBB4:
 457:Generated_Source\PSoC4/cyfitter_cfg.c **** 		{
 458:Generated_Source\PSoC4/cyfitter_cfg.c **** 			const cfg_memset_t CYCODE * CYDATA ms = &cfg_memset_list[i];
 385              		.loc 1 458 0 discriminator 3
 386 009c FB1D     		adds	r3, r7, #7
 387 009e 1A78     		ldrb	r2, [r3]
 388 00a0 1300     		movs	r3, r2
 389 00a2 5B00     		lsls	r3, r3, #1
 390 00a4 9B18     		adds	r3, r3, r2
 391 00a6 5B00     		lsls	r3, r3, #1
 392 00a8 424A     		ldr	r2, .L16
 393 00aa 9B18     		adds	r3, r3, r2
 394 00ac 3B60     		str	r3, [r7]
ARM GAS  C:\Users\jagumiel\AppData\Local\Temp\ccFcURLj.s 			page 16


 459:Generated_Source\PSoC4/cyfitter_cfg.c **** 			CYMEMZERO(ms->address, (size_t)(uint32)(ms->size));
 395              		.loc 1 459 0 discriminator 3
 396 00ae 3B68     		ldr	r3, [r7]
 397 00b0 1A78     		ldrb	r2, [r3]
 398 00b2 5978     		ldrb	r1, [r3, #1]
 399 00b4 0902     		lsls	r1, r1, #8
 400 00b6 0A43     		orrs	r2, r1
 401 00b8 9978     		ldrb	r1, [r3, #2]
 402 00ba 0904     		lsls	r1, r1, #16
 403 00bc 0A43     		orrs	r2, r1
 404 00be DB78     		ldrb	r3, [r3, #3]
 405 00c0 1B06     		lsls	r3, r3, #24
 406 00c2 1343     		orrs	r3, r2
 407 00c4 1800     		movs	r0, r3
 408 00c6 3B68     		ldr	r3, [r7]
 409 00c8 1A79     		ldrb	r2, [r3, #4]
 410 00ca 5B79     		ldrb	r3, [r3, #5]
 411 00cc 1B02     		lsls	r3, r3, #8
 412 00ce 1343     		orrs	r3, r2
 413 00d0 9BB2     		uxth	r3, r3
 414 00d2 1900     		movs	r1, r3
 415 00d4 FFF7FEFF 		bl	CYMEMZERO
 416              	.LBE4:
 456:Generated_Source\PSoC4/cyfitter_cfg.c **** 		{
 417              		.loc 1 456 0 discriminator 3
 418 00d8 FB1D     		adds	r3, r7, #7
 419 00da 1A78     		ldrb	r2, [r3]
 420 00dc FB1D     		adds	r3, r7, #7
 421 00de 0132     		adds	r2, r2, #1
 422 00e0 1A70     		strb	r2, [r3]
 423              	.L14:
 456:Generated_Source\PSoC4/cyfitter_cfg.c **** 		{
 424              		.loc 1 456 0 is_stmt 0 discriminator 1
 425 00e2 FB1D     		adds	r3, r7, #7
 426 00e4 1B78     		ldrb	r3, [r3]
 427 00e6 012B     		cmp	r3, #1
 428 00e8 D8D9     		bls	.L15
 460:Generated_Source\PSoC4/cyfitter_cfg.c **** 		}
 461:Generated_Source\PSoC4/cyfitter_cfg.c **** 
 462:Generated_Source\PSoC4/cyfitter_cfg.c **** 		cfg_write_bytes32(cy_cfg_addr_table, cy_cfg_data_table);
 429              		.loc 1 462 0 is_stmt 1
 430 00ea 334A     		ldr	r2, .L16+4
 431 00ec 334B     		ldr	r3, .L16+8
 432 00ee 1100     		movs	r1, r2
 433 00f0 1800     		movs	r0, r3
 434 00f2 FFF7FEFF 		bl	cfg_write_bytes32
 463:Generated_Source\PSoC4/cyfitter_cfg.c **** 
 464:Generated_Source\PSoC4/cyfitter_cfg.c **** 		/* HSIOM Starting address: CYDEV_HSIOM_BASE */
 465:Generated_Source\PSoC4/cyfitter_cfg.c **** 		CY_SET_REG32((void *)(CYDEV_HSIOM_BASE), 0x30000000u);
 435              		.loc 1 465 0
 436 00f6 324B     		ldr	r3, .L16+12
 437 00f8 C022     		movs	r2, #192
 438 00fa 9205     		lsls	r2, r2, #22
 439 00fc 1A60     		str	r2, [r3]
 466:Generated_Source\PSoC4/cyfitter_cfg.c **** 		CY_SET_REG32((void *)(CYREG_HSIOM_PORT_SEL3), 0x3000EE00u);
 440              		.loc 1 466 0
 441 00fe 314B     		ldr	r3, .L16+16
ARM GAS  C:\Users\jagumiel\AppData\Local\Temp\ccFcURLj.s 			page 17


 442 0100 314A     		ldr	r2, .L16+20
 443 0102 1A60     		str	r2, [r3]
 467:Generated_Source\PSoC4/cyfitter_cfg.c **** 		CY_SET_REG32((void *)(CYREG_HSIOM_PORT_SEL4), 0x00000090u);
 444              		.loc 1 467 0
 445 0104 314B     		ldr	r3, .L16+24
 446 0106 9022     		movs	r2, #144
 447 0108 1A60     		str	r2, [r3]
 468:Generated_Source\PSoC4/cyfitter_cfg.c **** 
 469:Generated_Source\PSoC4/cyfitter_cfg.c **** 		/* UDB_PA_0 Starting address: CYDEV_UDB_PA0_BASE */
 470:Generated_Source\PSoC4/cyfitter_cfg.c **** 		CY_SET_REG32((void *)(CYDEV_UDB_PA0_BASE), 0x00990000u);
 448              		.loc 1 470 0
 449 010a 314B     		ldr	r3, .L16+28
 450 010c 9922     		movs	r2, #153
 451 010e 1204     		lsls	r2, r2, #16
 452 0110 1A60     		str	r2, [r3]
 471:Generated_Source\PSoC4/cyfitter_cfg.c **** 		CY_SET_REG32((void *)(CYREG_UDB_PA0_CFG8), 0x80000000u);
 453              		.loc 1 471 0
 454 0112 304B     		ldr	r3, .L16+32
 455 0114 8022     		movs	r2, #128
 456 0116 1206     		lsls	r2, r2, #24
 457 0118 1A60     		str	r2, [r3]
 472:Generated_Source\PSoC4/cyfitter_cfg.c **** 
 473:Generated_Source\PSoC4/cyfitter_cfg.c **** 		/* UDB_PA_2 Starting address: CYDEV_UDB_PA2_BASE */
 474:Generated_Source\PSoC4/cyfitter_cfg.c **** 		CY_SET_REG32((void *)(CYDEV_UDB_PA2_BASE), 0x00990000u);
 458              		.loc 1 474 0
 459 011a 2F4B     		ldr	r3, .L16+36
 460 011c 9922     		movs	r2, #153
 461 011e 1204     		lsls	r2, r2, #16
 462 0120 1A60     		str	r2, [r3]
 475:Generated_Source\PSoC4/cyfitter_cfg.c **** 
 476:Generated_Source\PSoC4/cyfitter_cfg.c **** 		/* UDB_PA_3 Starting address: CYDEV_UDB_PA3_BASE */
 477:Generated_Source\PSoC4/cyfitter_cfg.c **** 		CY_SET_REG32((void *)(CYDEV_UDB_PA3_BASE), 0x00990000u);
 463              		.loc 1 477 0
 464 0122 2E4B     		ldr	r3, .L16+40
 465 0124 9922     		movs	r2, #153
 466 0126 1204     		lsls	r2, r2, #16
 467 0128 1A60     		str	r2, [r3]
 478:Generated_Source\PSoC4/cyfitter_cfg.c **** 		CY_SET_REG32((void *)(CYREG_UDB_PA3_CFG8), 0x40000000u);
 468              		.loc 1 478 0
 469 012a 2D4B     		ldr	r3, .L16+44
 470 012c 8022     		movs	r2, #128
 471 012e D205     		lsls	r2, r2, #23
 472 0130 1A60     		str	r2, [r3]
 479:Generated_Source\PSoC4/cyfitter_cfg.c **** 
 480:Generated_Source\PSoC4/cyfitter_cfg.c **** 		/* Enable UDB array and digital routing */
 481:Generated_Source\PSoC4/cyfitter_cfg.c **** 		CY_SET_XTND_REG8((void *)CYREG_UDB_UDBIF_WAIT_CFG, (uint8)((CY_GET_XTND_REG8((void *)CYREG_UDB_UD
 473              		.loc 1 481 0
 474 0132 2C4A     		ldr	r2, .L16+48
 475 0134 2B4B     		ldr	r3, .L16+48
 476 0136 1B78     		ldrb	r3, [r3]
 477 0138 DBB2     		uxtb	r3, r3
 478 013a 3C21     		movs	r1, #60
 479 013c 8B43     		bics	r3, r1
 480 013e DBB2     		uxtb	r3, r3
 481 0140 1421     		movs	r1, #20
 482 0142 0B43     		orrs	r3, r1
 483 0144 DBB2     		uxtb	r3, r3
ARM GAS  C:\Users\jagumiel\AppData\Local\Temp\ccFcURLj.s 			page 18


 484 0146 1370     		strb	r3, [r2]
 482:Generated_Source\PSoC4/cyfitter_cfg.c **** 		CY_SET_XTND_REG8((void *)CYREG_UDB_UDBIF_BANK_CTL, (uint8)(CY_GET_XTND_REG8((void *)CYREG_UDB_UDB
 485              		.loc 1 482 0
 486 0148 274A     		ldr	r2, .L16+52
 487 014a 274B     		ldr	r3, .L16+52
 488 014c 1B78     		ldrb	r3, [r3]
 489 014e DBB2     		uxtb	r3, r3
 490 0150 1621     		movs	r1, #22
 491 0152 0B43     		orrs	r3, r1
 492 0154 DBB2     		uxtb	r3, r3
 493 0156 1370     		strb	r3, [r2]
 494              	.LBE3:
 483:Generated_Source\PSoC4/cyfitter_cfg.c **** 	}
 484:Generated_Source\PSoC4/cyfitter_cfg.c **** 
 485:Generated_Source\PSoC4/cyfitter_cfg.c **** 	/* Perform second pass device configuration. These items must be configured in specific order afte
 486:Generated_Source\PSoC4/cyfitter_cfg.c **** 	/* IOPINS0_0 Starting address: CYDEV_PRT0_BASE */
 487:Generated_Source\PSoC4/cyfitter_cfg.c **** 	CY_SET_REG32((void *)(CYDEV_PRT0_BASE), 0x000000A0u);
 495              		.loc 1 487 0
 496 0158 244B     		ldr	r3, .L16+56
 497 015a A022     		movs	r2, #160
 498 015c 1A60     		str	r2, [r3]
 488:Generated_Source\PSoC4/cyfitter_cfg.c **** 	CY_SET_REG32((void *)(CYREG_PRT0_PC), 0x00C10000u);
 499              		.loc 1 488 0
 500 015e 244B     		ldr	r3, .L16+60
 501 0160 C122     		movs	r2, #193
 502 0162 1204     		lsls	r2, r2, #16
 503 0164 1A60     		str	r2, [r3]
 489:Generated_Source\PSoC4/cyfitter_cfg.c **** 	CY_SET_REG32((void *)(CYREG_PRT0_INTCFG), 0x00000C00u);
 504              		.loc 1 489 0
 505 0166 234B     		ldr	r3, .L16+64
 506 0168 C022     		movs	r2, #192
 507 016a 1201     		lsls	r2, r2, #4
 508 016c 1A60     		str	r2, [r3]
 490:Generated_Source\PSoC4/cyfitter_cfg.c **** 
 491:Generated_Source\PSoC4/cyfitter_cfg.c **** 	/* IOPINS0_2 Starting address: CYDEV_PRT2_BASE */
 492:Generated_Source\PSoC4/cyfitter_cfg.c **** 	CY_SET_REG32((void *)(CYDEV_PRT2_BASE), 0x00000080u);
 509              		.loc 1 492 0
 510 016e 224B     		ldr	r3, .L16+68
 511 0170 8022     		movs	r2, #128
 512 0172 1A60     		str	r2, [r3]
 493:Generated_Source\PSoC4/cyfitter_cfg.c **** 	CY_SET_REG32((void *)(CYREG_PRT2_PC), 0x00400000u);
 513              		.loc 1 493 0
 514 0174 214B     		ldr	r3, .L16+72
 515 0176 8022     		movs	r2, #128
 516 0178 D203     		lsls	r2, r2, #15
 517 017a 1A60     		str	r2, [r3]
 494:Generated_Source\PSoC4/cyfitter_cfg.c **** 	CY_SET_REG32((void *)(CYREG_PRT2_INTCFG), 0x0000C000u);
 518              		.loc 1 494 0
 519 017c 204B     		ldr	r3, .L16+76
 520 017e C022     		movs	r2, #192
 521 0180 1202     		lsls	r2, r2, #8
 522 0182 1A60     		str	r2, [r3]
 495:Generated_Source\PSoC4/cyfitter_cfg.c **** 
 496:Generated_Source\PSoC4/cyfitter_cfg.c **** 	/* IOPINS0_3 Starting address: CYDEV_PRT3_BASE */
 497:Generated_Source\PSoC4/cyfitter_cfg.c **** 	CY_SET_REG32((void *)(CYDEV_PRT3_BASE), 0x00000080u);
 523              		.loc 1 497 0
 524 0184 1F4B     		ldr	r3, .L16+80
ARM GAS  C:\Users\jagumiel\AppData\Local\Temp\ccFcURLj.s 			page 19


 525 0186 8022     		movs	r2, #128
 526 0188 1A60     		str	r2, [r3]
 498:Generated_Source\PSoC4/cyfitter_cfg.c **** 	CY_SET_REG32((void *)(CYREG_PRT3_PC), 0x00C00D80u);
 527              		.loc 1 498 0
 528 018a 1F4B     		ldr	r3, .L16+84
 529 018c 1F4A     		ldr	r2, .L16+88
 530 018e 1A60     		str	r2, [r3]
 499:Generated_Source\PSoC4/cyfitter_cfg.c **** 
 500:Generated_Source\PSoC4/cyfitter_cfg.c **** 	/* IOPINS0_4 Starting address: CYDEV_PRT4_BASE */
 501:Generated_Source\PSoC4/cyfitter_cfg.c **** 	CY_SET_REG32((void *)(CYDEV_PRT4_BASE), 0x00000002u);
 531              		.loc 1 501 0
 532 0190 1F4B     		ldr	r3, .L16+92
 533 0192 0222     		movs	r2, #2
 534 0194 1A60     		str	r2, [r3]
 502:Generated_Source\PSoC4/cyfitter_cfg.c **** 	CY_SET_REG32((void *)(CYREG_PRT4_PC), 0x00000030u);
 535              		.loc 1 502 0
 536 0196 1F4B     		ldr	r3, .L16+96
 537 0198 3022     		movs	r2, #48
 538 019a 1A60     		str	r2, [r3]
 503:Generated_Source\PSoC4/cyfitter_cfg.c **** 	CY_SET_REG32((void *)(CYREG_PRT4_PC2), 0x00000002u);
 539              		.loc 1 503 0
 540 019c 1E4B     		ldr	r3, .L16+100
 541 019e 0222     		movs	r2, #2
 542 01a0 1A60     		str	r2, [r3]
 504:Generated_Source\PSoC4/cyfitter_cfg.c **** 
 505:Generated_Source\PSoC4/cyfitter_cfg.c **** 
 506:Generated_Source\PSoC4/cyfitter_cfg.c **** 	/* Setup clocks based on selections from Clock DWR */
 507:Generated_Source\PSoC4/cyfitter_cfg.c **** 	ClockSetup();
 543              		.loc 1 507 0
 544 01a2 FFF72DFF 		bl	ClockSetup
 508:Generated_Source\PSoC4/cyfitter_cfg.c **** 
 509:Generated_Source\PSoC4/cyfitter_cfg.c **** 	/* Perform basic analog initialization to defaults */
 510:Generated_Source\PSoC4/cyfitter_cfg.c **** 	AnalogSetDefault();
 545              		.loc 1 510 0
 546 01a6 FFF7FEFF 		bl	AnalogSetDefault
 511:Generated_Source\PSoC4/cyfitter_cfg.c **** 
 512:Generated_Source\PSoC4/cyfitter_cfg.c **** }
 547              		.loc 1 512 0
 548 01aa C046     		nop
 549 01ac BD46     		mov	sp, r7
 550 01ae 02B0     		add	sp, sp, #8
 551              		@ sp needed
 552 01b0 80BD     		pop	{r7, pc}
 553              	.L17:
 554 01b2 C046     		.align	2
 555              	.L16:
 556 01b4 00000000 		.word	cfg_memset_list.4870
 557 01b8 28000000 		.word	cy_cfg_data_table.4865
 558 01bc 0C000000 		.word	cy_cfg_addr_table.4864
 559 01c0 00000140 		.word	1073807360
 560 01c4 0C000140 		.word	1073807372
 561 01c8 00EE0030 		.word	805367296
 562 01cc 10000140 		.word	1073807376
 563 01d0 00500F40 		.word	1074745344
 564 01d4 08500F40 		.word	1074745352
 565 01d8 20500F40 		.word	1074745376
 566 01dc 30500F40 		.word	1074745392
ARM GAS  C:\Users\jagumiel\AppData\Local\Temp\ccFcURLj.s 			page 20


 567 01e0 38500F40 		.word	1074745400
 568 01e4 01700F40 		.word	1074753537
 569 01e8 00700F40 		.word	1074753536
 570 01ec 00000440 		.word	1074003968
 571 01f0 08000440 		.word	1074003976
 572 01f4 0C000440 		.word	1074003980
 573 01f8 00020440 		.word	1074004480
 574 01fc 08020440 		.word	1074004488
 575 0200 0C020440 		.word	1074004492
 576 0204 00030440 		.word	1074004736
 577 0208 08030440 		.word	1074004744
 578 020c 800DC000 		.word	12586368
 579 0210 00040440 		.word	1074004992
 580 0214 08040440 		.word	1074005000
 581 0218 18040440 		.word	1074005016
 582              		.cfi_endproc
 583              	.LFE6:
 584              		.size	cyfitter_cfg, .-cyfitter_cfg
 585              		.section	.rodata
 586              		.align	2
 587              		.type	cfg_memset_list.4870, %object
 588              		.size	cfg_memset_list.4870, 12
 589              	cfg_memset_list.4870:
 590 0000 00300F40 		.word	1074737152
 591 0004 0004     		.short	1024
 592 0006 00400F40 		.4byte	1074741248
 593 000a 0004     		.short	1024
 594              		.align	2
 595              		.type	cy_cfg_addr_table.4864, %object
 596              		.size	cy_cfg_addr_table.4864, 28
 597              	cy_cfg_addr_table.4864:
 598 000c 02000F40 		.word	1074724866
 599 0010 4E320F40 		.word	1074737742
 600 0014 2C330F40 		.word	1074737964
 601 0018 02400F40 		.word	1074741250
 602 001c 03410F40 		.word	1074741507
 603 0020 03430F40 		.word	1074742019
 604 0024 02600F40 		.word	1074749442
 605              		.align	2
 606              		.type	cy_cfg_data_table.4865, %object
 607              		.size	cy_cfg_data_table.4865, 268
 608              	cy_cfg_data_table.4865:
 609 0028 82       		.byte	-126
 610 0029 0D       		.byte	13
 611 002a 83       		.byte	-125
 612 002b 0D       		.byte	13
 613 002c 0A       		.byte	10
 614 002d 04       		.byte	4
 615 002e 0F       		.byte	15
 616 002f 01       		.byte	1
 617 0030 14       		.byte	20
 618 0031 01       		.byte	1
 619 0032 18       		.byte	24
 620 0033 07       		.byte	7
 621 0034 27       		.byte	39
 622 0035 01       		.byte	1
 623 0036 2E       		.byte	46
ARM GAS  C:\Users\jagumiel\AppData\Local\Temp\ccFcURLj.s 			page 21


 624 0037 08       		.byte	8
 625 0038 30       		.byte	48
 626 0039 01       		.byte	1
 627 003a 32       		.byte	50
 628 003b 02       		.byte	2
 629 003c 34       		.byte	52
 630 003d 08       		.byte	8
 631 003e 35       		.byte	53
 632 003f 01       		.byte	1
 633 0040 36       		.byte	54
 634 0041 04       		.byte	4
 635 0042 3F       		.byte	63
 636 0043 10       		.byte	16
 637 0044 40       		.byte	64
 638 0045 20       		.byte	32
 639 0046 41       		.byte	65
 640 0047 05       		.byte	5
 641 0048 45       		.byte	69
 642 0049 D1       		.byte	-47
 643 004a 46       		.byte	70
 644 004b 02       		.byte	2
 645 004c 48       		.byte	72
 646 004d 07       		.byte	7
 647 004e 49       		.byte	73
 648 004f FF       		.byte	-1
 649 0050 4A       		.byte	74
 650 0051 FF       		.byte	-1
 651 0052 4B       		.byte	75
 652 0053 FF       		.byte	-1
 653 0054 4D       		.byte	77
 654 0055 A0       		.byte	-96
 655 0056 4F       		.byte	79
 656 0057 04       		.byte	4
 657 0058 50       		.byte	80
 658 0059 18       		.byte	24
 659 005a 52       		.byte	82
 660 005b 80       		.byte	-128
 661 005c 54       		.byte	84
 662 005d 05       		.byte	5
 663 005e 58       		.byte	88
 664 005f 04       		.byte	4
 665 0060 59       		.byte	89
 666 0061 04       		.byte	4
 667 0062 5A       		.byte	90
 668 0063 04       		.byte	4
 669 0064 5B       		.byte	91
 670 0065 04       		.byte	4
 671 0066 5F       		.byte	95
 672 0067 01       		.byte	1
 673 0068 60       		.byte	96
 674 0069 40       		.byte	64
 675 006a 62       		.byte	98
 676 006b C0       		.byte	-64
 677 006c 64       		.byte	100
 678 006d 40       		.byte	64
 679 006e 65       		.byte	101
 680 006f 40       		.byte	64
ARM GAS  C:\Users\jagumiel\AppData\Local\Temp\ccFcURLj.s 			page 22


 681 0070 66       		.byte	102
 682 0071 C0       		.byte	-64
 683 0072 68       		.byte	104
 684 0073 C0       		.byte	-64
 685 0074 6A       		.byte	106
 686 0075 C0       		.byte	-64
 687 0076 6C       		.byte	108
 688 0077 C0       		.byte	-64
 689 0078 6E       		.byte	110
 690 0079 C0       		.byte	-64
 691 007a 86       		.byte	-122
 692 007b 04       		.byte	4
 693 007c 87       		.byte	-121
 694 007d 01       		.byte	1
 695 007e 92       		.byte	-110
 696 007f 08       		.byte	8
 697 0080 93       		.byte	-109
 698 0081 01       		.byte	1
 699 0082 9C       		.byte	-100
 700 0083 01       		.byte	1
 701 0084 A4       		.byte	-92
 702 0085 07       		.byte	7
 703 0086 B0       		.byte	-80
 704 0087 01       		.byte	1
 705 0088 B2       		.byte	-78
 706 0089 04       		.byte	4
 707 008a B3       		.byte	-77
 708 008b 01       		.byte	1
 709 008c B4       		.byte	-76
 710 008d 08       		.byte	8
 711 008e B6       		.byte	-74
 712 008f 02       		.byte	2
 713 0090 BF       		.byte	-65
 714 0091 04       		.byte	4
 715 0092 C0       		.byte	-64
 716 0093 20       		.byte	32
 717 0094 C1       		.byte	-63
 718 0095 05       		.byte	5
 719 0096 C5       		.byte	-59
 720 0097 D1       		.byte	-47
 721 0098 C7       		.byte	-57
 722 0099 20       		.byte	32
 723 009a C8       		.byte	-56
 724 009b 23       		.byte	35
 725 009c C9       		.byte	-55
 726 009d FF       		.byte	-1
 727 009e CA       		.byte	-54
 728 009f FF       		.byte	-1
 729 00a0 CB       		.byte	-53
 730 00a1 FF       		.byte	-1
 731 00a2 CD       		.byte	-51
 732 00a3 A0       		.byte	-96
 733 00a4 CF       		.byte	-49
 734 00a5 04       		.byte	4
 735 00a6 D0       		.byte	-48
 736 00a7 18       		.byte	24
 737 00a8 D2       		.byte	-46
ARM GAS  C:\Users\jagumiel\AppData\Local\Temp\ccFcURLj.s 			page 23


 738 00a9 80       		.byte	-128
 739 00aa D4       		.byte	-44
 740 00ab 05       		.byte	5
 741 00ac D8       		.byte	-40
 742 00ad 04       		.byte	4
 743 00ae D9       		.byte	-39
 744 00af 04       		.byte	4
 745 00b0 DA       		.byte	-38
 746 00b1 04       		.byte	4
 747 00b2 DB       		.byte	-37
 748 00b3 04       		.byte	4
 749 00b4 DF       		.byte	-33
 750 00b5 01       		.byte	1
 751 00b6 E0       		.byte	-32
 752 00b7 40       		.byte	64
 753 00b8 E2       		.byte	-30
 754 00b9 C0       		.byte	-64
 755 00ba E4       		.byte	-28
 756 00bb 40       		.byte	64
 757 00bc E5       		.byte	-27
 758 00bd 40       		.byte	64
 759 00be E6       		.byte	-26
 760 00bf C0       		.byte	-64
 761 00c0 E8       		.byte	-24
 762 00c1 C0       		.byte	-64
 763 00c2 EA       		.byte	-22
 764 00c3 C0       		.byte	-64
 765 00c4 EC       		.byte	-20
 766 00c5 C0       		.byte	-64
 767 00c6 EE       		.byte	-18
 768 00c7 C0       		.byte	-64
 769 00c8 00       		.byte	0
 770 00c9 04       		.byte	4
 771 00ca 05       		.byte	5
 772 00cb 10       		.byte	16
 773 00cc 09       		.byte	9
 774 00cd 02       		.byte	2
 775 00ce 0A       		.byte	10
 776 00cf 01       		.byte	1
 777 00d0 0E       		.byte	14
 778 00d1 20       		.byte	32
 779 00d2 0F       		.byte	15
 780 00d3 08       		.byte	8
 781 00d4 10       		.byte	16
 782 00d5 20       		.byte	32
 783 00d6 17       		.byte	23
 784 00d7 80       		.byte	-128
 785 00d8 18       		.byte	24
 786 00d9 04       		.byte	4
 787 00da 1A       		.byte	26
 788 00db 61       		.byte	97
 789 00dc 1D       		.byte	29
 790 00dd 30       		.byte	48
 791 00de 1E       		.byte	30
 792 00df A0       		.byte	-96
 793 00e0 1F       		.byte	31
 794 00e1 60       		.byte	96
ARM GAS  C:\Users\jagumiel\AppData\Local\Temp\ccFcURLj.s 			page 24


 795 00e2 22       		.byte	34
 796 00e3 04       		.byte	4
 797 00e4 27       		.byte	39
 798 00e5 08       		.byte	8
 799 00e6 2F       		.byte	47
 800 00e7 20       		.byte	32
 801 00e8 30       		.byte	48
 802 00e9 02       		.byte	2
 803 00ea 38       		.byte	56
 804 00eb 04       		.byte	4
 805 00ec 3F       		.byte	63
 806 00ed 80       		.byte	-128
 807 00ee 40       		.byte	64
 808 00ef 04       		.byte	4
 809 00f0 45       		.byte	69
 810 00f1 20       		.byte	32
 811 00f2 48       		.byte	72
 812 00f3 22       		.byte	34
 813 00f4 49       		.byte	73
 814 00f5 01       		.byte	1
 815 00f6 4F       		.byte	79
 816 00f7 89       		.byte	-119
 817 00f8 50       		.byte	80
 818 00f9 02       		.byte	2
 819 00fa 57       		.byte	87
 820 00fb 40       		.byte	64
 821 00fc 59       		.byte	89
 822 00fd 01       		.byte	1
 823 00fe 5A       		.byte	90
 824 00ff 48       		.byte	72
 825 0100 5E       		.byte	94
 826 0101 80       		.byte	-128
 827 0102 5F       		.byte	95
 828 0103 09       		.byte	9
 829 0104 71       		.byte	113
 830 0105 02       		.byte	2
 831 0106 77       		.byte	119
 832 0107 80       		.byte	-128
 833 0108 82       		.byte	-126
 834 0109 10       		.byte	16
 835 010a 87       		.byte	-121
 836 010b 40       		.byte	64
 837 010c C0       		.byte	-64
 838 010d 44       		.byte	68
 839 010e C2       		.byte	-62
 840 010f 69       		.byte	105
 841 0110 C4       		.byte	-60
 842 0111 84       		.byte	-124
 843 0112 CA       		.byte	-54
 844 0113 40       		.byte	64
 845 0114 CC       		.byte	-52
 846 0115 01       		.byte	1
 847 0116 CE       		.byte	-50
 848 0117 12       		.byte	18
 849 0118 D0       		.byte	-48
 850 0119 24       		.byte	36
 851 011a D2       		.byte	-46
ARM GAS  C:\Users\jagumiel\AppData\Local\Temp\ccFcURLj.s 			page 25


 852 011b 18       		.byte	24
 853 011c D6       		.byte	-42
 854 011d DB       		.byte	-37
 855 011e E4       		.byte	-28
 856 011f 04       		.byte	4
 857 0120 62       		.byte	98
 858 0121 08       		.byte	8
 859 0122 D8       		.byte	-40
 860 0123 40       		.byte	64
 861 0124 86       		.byte	-122
 862 0125 08       		.byte	8
 863 0126 A6       		.byte	-90
 864 0127 08       		.byte	8
 865 0128 E2       		.byte	-30
 866 0129 10       		.byte	16
 867 012a 67       		.byte	103
 868 012b 02       		.byte	2
 869 012c 83       		.byte	-125
 870 012d 01       		.byte	1
 871 012e D6       		.byte	-42
 872 012f 01       		.byte	1
 873 0130 01       		.byte	1
 874 0131 01       		.byte	1
 875 0132 10       		.byte	16
 876 0133 01       		.byte	1
 877              		.text
 878              	.Letext0:
 879              		.file 2 "c:\\program files (x86)\\cypress\\psoc creator\\4.2\\psoc creator\\import\\gnu\\arm\\5.4.
 880              		.file 3 "Generated_Source\\PSoC4\\cytypes.h"