ARM GAS  C:\Users\jagumiel\AppData\Local\Temp\ccrMsASq.s 			page 1


   1              		.syntax unified
   2              		.cpu cortex-m0
   3              		.fpu softvfp
   4              		.eabi_attribute 20, 1
   5              		.eabi_attribute 21, 1
   6              		.eabi_attribute 23, 3
   7              		.eabi_attribute 24, 1
   8              		.eabi_attribute 25, 1
   9              		.eabi_attribute 26, 1
  10              		.eabi_attribute 30, 6
  11              		.eabi_attribute 34, 0
  12              		.eabi_attribute 18, 4
  13              		.thumb
  14              		.syntax unified
  15              		.file	"main.c"
  16              		.text
  17              	.Ltext0:
  18              		.cfi_sections	.debug_frame
  19              		.section	.rodata
  20              		.align	2
  21              	.LC0:
  22 0000 4C656674 		.ascii	"Left Door Opened.\015\012\000"
  22      20446F6F 
  22      72204F70 
  22      656E6564 
  22      2E0D0A00 
  23              		.align	2
  24              	.LC2:
  25 0014 4C656674 		.ascii	"Left Door Closed.\015\012\000"
  25      20446F6F 
  25      7220436C 
  25      6F736564 
  25      2E0D0A00 
  26              		.section	.text.leftDoorOpened,"ax",%progbits
  27              		.align	2
  28              		.global	leftDoorOpened
  29              		.code	16
  30              		.thumb_func
  31              		.type	leftDoorOpened, %function
  32              	leftDoorOpened:
  33              	.LFB32:
  34              		.file 1 "main.c"
   1:main.c        **** /*******************************************************************************
   2:main.c        **** * File Name: main.c
   3:main.c        **** *
   4:main.c        **** * Version: 1.00
   5:main.c        **** *
   6:main.c        **** * Description:
   7:main.c        **** *  This example tries to emulate the interior car lightning when a door is
   8:main.c        **** *  opened.
   9:main.c        **** *
  10:main.c        **** *******************************************************************************/
  11:main.c        **** 
  12:main.c        **** 
  13:main.c        **** #include <project.h>
  14:main.c        **** 
  15:main.c        **** /******************************************************************************
ARM GAS  C:\Users\jagumiel\AppData\Local\Temp\ccrMsASq.s 			page 2


  16:main.c        **** * Function Name: XDoorOpened
  17:main.c        **** *******************************************************************************
  18:main.c        **** *
  19:main.c        **** * Summary:
  20:main.c        **** *  Does something when the door has been opened. In this case, turns on a led.
  21:main.c        **** *
  22:main.c        **** ******************************************************************************/
  23:main.c        **** void leftDoorOpened(){
  35              		.loc 1 23 0
  36              		.cfi_startproc
  37              		@ args = 0, pretend = 0, frame = 8
  38              		@ frame_needed = 1, uses_anonymous_args = 0
  39 0000 80B5     		push	{r7, lr}
  40              		.cfi_def_cfa_offset 8
  41              		.cfi_offset 7, -8
  42              		.cfi_offset 14, -4
  43 0002 82B0     		sub	sp, sp, #8
  44              		.cfi_def_cfa_offset 16
  45 0004 00AF     		add	r7, sp, #0
  46              		.cfi_def_cfa_register 7
  24:main.c        ****     if(Button_Left_Read()==1){
  47              		.loc 1 24 0
  48 0006 FFF7FEFF 		bl	Button_Left_Read
  49 000a 0300     		movs	r3, r0
  50 000c 012B     		cmp	r3, #1
  51 000e 15D1     		bne	.L2
  25:main.c        ****         UART_UartPutString("Left Door Opened.\r\n");
  52              		.loc 1 25 0
  53 0010 174B     		ldr	r3, .L9
  54 0012 1800     		movs	r0, r3
  55 0014 FFF7FEFF 		bl	UART_UartPutString
  56              	.LBB2:
  26:main.c        ****         for(int i=255; i>2; i--){
  57              		.loc 1 26 0
  58 0018 FF23     		movs	r3, #255
  59 001a 7B60     		str	r3, [r7, #4]
  60 001c 0AE0     		b	.L3
  61              	.L4:
  27:main.c        ****             PWM_Left_WriteCompare(i);
  62              		.loc 1 27 0 discriminator 3
  63 001e 7B68     		ldr	r3, [r7, #4]
  64 0020 DBB2     		uxtb	r3, r3
  65 0022 1800     		movs	r0, r3
  66 0024 FFF7FEFF 		bl	PWM_Left_WriteCompare
  28:main.c        ****             CyDelay(5);
  67              		.loc 1 28 0 discriminator 3
  68 0028 0520     		movs	r0, #5
  69 002a FFF7FEFF 		bl	CyDelay
  26:main.c        ****         for(int i=255; i>2; i--){
  70              		.loc 1 26 0 discriminator 3
  71 002e 7B68     		ldr	r3, [r7, #4]
  72 0030 013B     		subs	r3, r3, #1
  73 0032 7B60     		str	r3, [r7, #4]
  74              	.L3:
  26:main.c        ****         for(int i=255; i>2; i--){
  75              		.loc 1 26 0 is_stmt 0 discriminator 1
  76 0034 7B68     		ldr	r3, [r7, #4]
ARM GAS  C:\Users\jagumiel\AppData\Local\Temp\ccrMsASq.s 			page 3


  77 0036 022B     		cmp	r3, #2
  78 0038 F1DC     		bgt	.L4
  79              	.LBE2:
  29:main.c        ****         }
  30:main.c        ****     }else{
  31:main.c        ****         UART_UartPutString("Left Door Closed.\r\n");
  32:main.c        ****         for(int i=1; i<256; i++){
  33:main.c        ****             PWM_Left_WriteCompare(i);
  34:main.c        ****             CyDelay(5);
  35:main.c        ****         }
  36:main.c        ****     }
  37:main.c        **** }
  80              		.loc 1 37 0 is_stmt 1
  81 003a 14E0     		b	.L8
  82              	.L2:
  31:main.c        ****         for(int i=1; i<256; i++){
  83              		.loc 1 31 0
  84 003c 0D4B     		ldr	r3, .L9+4
  85 003e 1800     		movs	r0, r3
  86 0040 FFF7FEFF 		bl	UART_UartPutString
  87              	.LBB3:
  32:main.c        ****             PWM_Left_WriteCompare(i);
  88              		.loc 1 32 0
  89 0044 0123     		movs	r3, #1
  90 0046 3B60     		str	r3, [r7]
  91 0048 0AE0     		b	.L6
  92              	.L7:
  33:main.c        ****             CyDelay(5);
  93              		.loc 1 33 0 discriminator 3
  94 004a 3B68     		ldr	r3, [r7]
  95 004c DBB2     		uxtb	r3, r3
  96 004e 1800     		movs	r0, r3
  97 0050 FFF7FEFF 		bl	PWM_Left_WriteCompare
  34:main.c        ****         }
  98              		.loc 1 34 0 discriminator 3
  99 0054 0520     		movs	r0, #5
 100 0056 FFF7FEFF 		bl	CyDelay
  32:main.c        ****             PWM_Left_WriteCompare(i);
 101              		.loc 1 32 0 discriminator 3
 102 005a 3B68     		ldr	r3, [r7]
 103 005c 0133     		adds	r3, r3, #1
 104 005e 3B60     		str	r3, [r7]
 105              	.L6:
  32:main.c        ****             PWM_Left_WriteCompare(i);
 106              		.loc 1 32 0 is_stmt 0 discriminator 1
 107 0060 3B68     		ldr	r3, [r7]
 108 0062 FF2B     		cmp	r3, #255
 109 0064 F1DD     		ble	.L7
 110              	.L8:
 111              	.LBE3:
 112              		.loc 1 37 0 is_stmt 1
 113 0066 C046     		nop
 114 0068 BD46     		mov	sp, r7
 115 006a 02B0     		add	sp, sp, #8
 116              		@ sp needed
 117 006c 80BD     		pop	{r7, pc}
 118              	.L10:
ARM GAS  C:\Users\jagumiel\AppData\Local\Temp\ccrMsASq.s 			page 4


 119 006e C046     		.align	2
 120              	.L9:
 121 0070 00000000 		.word	.LC0
 122 0074 14000000 		.word	.LC2
 123              		.cfi_endproc
 124              	.LFE32:
 125              		.size	leftDoorOpened, .-leftDoorOpened
 126              		.section	.rodata
 127              		.align	2
 128              	.LC4:
 129 0028 52696768 		.ascii	"Right Door Opened.\015\012\000"
 129      7420446F 
 129      6F72204F 
 129      70656E65 
 129      642E0D0A 
 130 003d 000000   		.align	2
 131              	.LC6:
 132 0040 52696768 		.ascii	"Right Door Closed.\015\012\000"
 132      7420446F 
 132      6F722043 
 132      6C6F7365 
 132      642E0D0A 
 133              		.section	.text.rightDoorOpened,"ax",%progbits
 134              		.align	2
 135              		.global	rightDoorOpened
 136              		.code	16
 137              		.thumb_func
 138              		.type	rightDoorOpened, %function
 139              	rightDoorOpened:
 140              	.LFB33:
  38:main.c        **** 
  39:main.c        **** void rightDoorOpened(){
 141              		.loc 1 39 0
 142              		.cfi_startproc
 143              		@ args = 0, pretend = 0, frame = 8
 144              		@ frame_needed = 1, uses_anonymous_args = 0
 145 0000 80B5     		push	{r7, lr}
 146              		.cfi_def_cfa_offset 8
 147              		.cfi_offset 7, -8
 148              		.cfi_offset 14, -4
 149 0002 82B0     		sub	sp, sp, #8
 150              		.cfi_def_cfa_offset 16
 151 0004 00AF     		add	r7, sp, #0
 152              		.cfi_def_cfa_register 7
  40:main.c        ****     if(Button_Right_Read()==1){
 153              		.loc 1 40 0
 154 0006 FFF7FEFF 		bl	Button_Right_Read
 155 000a 0300     		movs	r3, r0
 156 000c 012B     		cmp	r3, #1
 157 000e 15D1     		bne	.L12
  41:main.c        ****         UART_UartPutString("Right Door Opened.\r\n");
 158              		.loc 1 41 0
 159 0010 174B     		ldr	r3, .L19
 160 0012 1800     		movs	r0, r3
 161 0014 FFF7FEFF 		bl	UART_UartPutString
 162              	.LBB4:
  42:main.c        ****         for(int i=255; i>2; i--){
ARM GAS  C:\Users\jagumiel\AppData\Local\Temp\ccrMsASq.s 			page 5


 163              		.loc 1 42 0
 164 0018 FF23     		movs	r3, #255
 165 001a 7B60     		str	r3, [r7, #4]
 166 001c 0AE0     		b	.L13
 167              	.L14:
  43:main.c        ****             PWM_Right_WriteCompare(i);
 168              		.loc 1 43 0 discriminator 3
 169 001e 7B68     		ldr	r3, [r7, #4]
 170 0020 DBB2     		uxtb	r3, r3
 171 0022 1800     		movs	r0, r3
 172 0024 FFF7FEFF 		bl	PWM_Right_WriteCompare
  44:main.c        ****             CyDelay(5);
 173              		.loc 1 44 0 discriminator 3
 174 0028 0520     		movs	r0, #5
 175 002a FFF7FEFF 		bl	CyDelay
  42:main.c        ****         for(int i=255; i>2; i--){
 176              		.loc 1 42 0 discriminator 3
 177 002e 7B68     		ldr	r3, [r7, #4]
 178 0030 013B     		subs	r3, r3, #1
 179 0032 7B60     		str	r3, [r7, #4]
 180              	.L13:
  42:main.c        ****         for(int i=255; i>2; i--){
 181              		.loc 1 42 0 is_stmt 0 discriminator 1
 182 0034 7B68     		ldr	r3, [r7, #4]
 183 0036 022B     		cmp	r3, #2
 184 0038 F1DC     		bgt	.L14
 185              	.LBE4:
  45:main.c        ****         }
  46:main.c        ****     }else{
  47:main.c        ****         UART_UartPutString("Right Door Closed.\r\n");
  48:main.c        ****         for(int i=1; i<256; i++){
  49:main.c        ****             PWM_Right_WriteCompare(i);
  50:main.c        ****             CyDelay(5);
  51:main.c        ****         }
  52:main.c        ****     }
  53:main.c        **** }
 186              		.loc 1 53 0 is_stmt 1
 187 003a 14E0     		b	.L18
 188              	.L12:
  47:main.c        ****         for(int i=1; i<256; i++){
 189              		.loc 1 47 0
 190 003c 0D4B     		ldr	r3, .L19+4
 191 003e 1800     		movs	r0, r3
 192 0040 FFF7FEFF 		bl	UART_UartPutString
 193              	.LBB5:
  48:main.c        ****             PWM_Right_WriteCompare(i);
 194              		.loc 1 48 0
 195 0044 0123     		movs	r3, #1
 196 0046 3B60     		str	r3, [r7]
 197 0048 0AE0     		b	.L16
 198              	.L17:
  49:main.c        ****             CyDelay(5);
 199              		.loc 1 49 0 discriminator 3
 200 004a 3B68     		ldr	r3, [r7]
 201 004c DBB2     		uxtb	r3, r3
 202 004e 1800     		movs	r0, r3
 203 0050 FFF7FEFF 		bl	PWM_Right_WriteCompare
ARM GAS  C:\Users\jagumiel\AppData\Local\Temp\ccrMsASq.s 			page 6


  50:main.c        ****         }
 204              		.loc 1 50 0 discriminator 3
 205 0054 0520     		movs	r0, #5
 206 0056 FFF7FEFF 		bl	CyDelay
  48:main.c        ****             PWM_Right_WriteCompare(i);
 207              		.loc 1 48 0 discriminator 3
 208 005a 3B68     		ldr	r3, [r7]
 209 005c 0133     		adds	r3, r3, #1
 210 005e 3B60     		str	r3, [r7]
 211              	.L16:
  48:main.c        ****             PWM_Right_WriteCompare(i);
 212              		.loc 1 48 0 is_stmt 0 discriminator 1
 213 0060 3B68     		ldr	r3, [r7]
 214 0062 FF2B     		cmp	r3, #255
 215 0064 F1DD     		ble	.L17
 216              	.L18:
 217              	.LBE5:
 218              		.loc 1 53 0 is_stmt 1
 219 0066 C046     		nop
 220 0068 BD46     		mov	sp, r7
 221 006a 02B0     		add	sp, sp, #8
 222              		@ sp needed
 223 006c 80BD     		pop	{r7, pc}
 224              	.L20:
 225 006e C046     		.align	2
 226              	.L19:
 227 0070 28000000 		.word	.LC4
 228 0074 40000000 		.word	.LC6
 229              		.cfi_endproc
 230              	.LFE33:
 231              		.size	rightDoorOpened, .-rightDoorOpened
 232              		.section	.text.Button_Left_ISR_Handler,"ax",%progbits
 233              		.align	2
 234              		.global	Button_Left_ISR_Handler
 235              		.code	16
 236              		.thumb_func
 237              		.type	Button_Left_ISR_Handler, %function
 238              	Button_Left_ISR_Handler:
 239              	.LFB34:
  54:main.c        **** 
  55:main.c        **** 
  56:main.c        **** /******************************************************************************
  57:main.c        **** * Function Name: Button_X_ISR_Handler
  58:main.c        **** *******************************************************************************
  59:main.c        **** *
  60:main.c        **** * Summary:
  61:main.c        **** *  Interrupt Service Routine. Check the Button (L/R) status and sets the flags.
  62:main.c        **** *
  63:main.c        **** ******************************************************************************/
  64:main.c        **** CY_ISR(Button_Left_ISR_Handler){
 240              		.loc 1 64 0
 241              		.cfi_startproc
 242              		@ args = 0, pretend = 0, frame = 0
 243              		@ frame_needed = 1, uses_anonymous_args = 0
 244 0000 80B5     		push	{r7, lr}
 245              		.cfi_def_cfa_offset 8
 246              		.cfi_offset 7, -8
ARM GAS  C:\Users\jagumiel\AppData\Local\Temp\ccrMsASq.s 			page 7


 247              		.cfi_offset 14, -4
 248 0002 00AF     		add	r7, sp, #0
 249              		.cfi_def_cfa_register 7
  65:main.c        ****     leftDoorOpened();
 250              		.loc 1 65 0
 251 0004 FFF7FEFF 		bl	leftDoorOpened
  66:main.c        ****     Button_Left_ClearInterrupt();
 252              		.loc 1 66 0
 253 0008 FFF7FEFF 		bl	Button_Left_ClearInterrupt
  67:main.c        **** }
 254              		.loc 1 67 0
 255 000c C046     		nop
 256 000e BD46     		mov	sp, r7
 257              		@ sp needed
 258 0010 80BD     		pop	{r7, pc}
 259              		.cfi_endproc
 260              	.LFE34:
 261              		.size	Button_Left_ISR_Handler, .-Button_Left_ISR_Handler
 262 0012 C046     		.section	.text.Button_Right_ISR_Handler,"ax",%progbits
 263              		.align	2
 264              		.global	Button_Right_ISR_Handler
 265              		.code	16
 266              		.thumb_func
 267              		.type	Button_Right_ISR_Handler, %function
 268              	Button_Right_ISR_Handler:
 269              	.LFB35:
  68:main.c        **** 
  69:main.c        **** CY_ISR(Button_Right_ISR_Handler){
 270              		.loc 1 69 0
 271              		.cfi_startproc
 272              		@ args = 0, pretend = 0, frame = 0
 273              		@ frame_needed = 1, uses_anonymous_args = 0
 274 0000 80B5     		push	{r7, lr}
 275              		.cfi_def_cfa_offset 8
 276              		.cfi_offset 7, -8
 277              		.cfi_offset 14, -4
 278 0002 00AF     		add	r7, sp, #0
 279              		.cfi_def_cfa_register 7
  70:main.c        ****     rightDoorOpened();
 280              		.loc 1 70 0
 281 0004 FFF7FEFF 		bl	rightDoorOpened
  71:main.c        ****     Button_Right_ClearInterrupt();
 282              		.loc 1 71 0
 283 0008 FFF7FEFF 		bl	Button_Right_ClearInterrupt
  72:main.c        **** }
 284              		.loc 1 72 0
 285 000c C046     		nop
 286 000e BD46     		mov	sp, r7
 287              		@ sp needed
 288 0010 80BD     		pop	{r7, pc}
 289              		.cfi_endproc
 290              	.LFE35:
 291              		.size	Button_Right_ISR_Handler, .-Button_Right_ISR_Handler
 292 0012 C046     		.section	.text.main,"ax",%progbits
 293              		.align	2
 294              		.global	main
 295              		.code	16
ARM GAS  C:\Users\jagumiel\AppData\Local\Temp\ccrMsASq.s 			page 8


 296              		.thumb_func
 297              		.type	main, %function
 298              	main:
 299              	.LFB36:
  73:main.c        **** 
  74:main.c        **** 
  75:main.c        **** /*******************************************************************************
  76:main.c        **** * Function Name: main
  77:main.c        **** ********************************************************************************
  78:main.c        **** *
  79:main.c        **** * Summary:
  80:main.c        **** *  Performs the following tasks:
  81:main.c        **** *  - Start the components.
  82:main.c        **** *
  83:main.c        **** * Parameters:
  84:main.c        **** *  None.
  85:main.c        **** *
  86:main.c        **** * Return:
  87:main.c        **** *  None.
  88:main.c        **** *
  89:main.c        **** *******************************************************************************/
  90:main.c        **** int main()
  91:main.c        **** {    
 300              		.loc 1 91 0
 301              		.cfi_startproc
 302              		@ args = 0, pretend = 0, frame = 0
 303              		@ frame_needed = 1, uses_anonymous_args = 0
 304 0000 80B5     		push	{r7, lr}
 305              		.cfi_def_cfa_offset 8
 306              		.cfi_offset 7, -8
 307              		.cfi_offset 14, -4
 308 0002 00AF     		add	r7, sp, #0
 309              		.cfi_def_cfa_register 7
  92:main.c        ****     /* Start the Components */
  93:main.c        ****     UART_Start();
 310              		.loc 1 93 0
 311 0004 FFF7FEFF 		bl	UART_Start
  94:main.c        ****     PWM_Left_Start();
 312              		.loc 1 94 0
 313 0008 FFF7FEFF 		bl	PWM_Left_Start
  95:main.c        ****     PWM_Right_Start();
 314              		.loc 1 95 0
 315 000c FFF7FEFF 		bl	PWM_Right_Start
  96:main.c        ****     
  97:main.c        ****     /* Start ISRs */
  98:main.c        ****     Button_Left_ISR_StartEx(Button_Left_ISR_Handler);
 316              		.loc 1 98 0
 317 0010 044B     		ldr	r3, .L25
 318 0012 1800     		movs	r0, r3
 319 0014 FFF7FEFF 		bl	Button_Left_ISR_StartEx
  99:main.c        ****     Button_Right_ISR_StartEx(Button_Right_ISR_Handler);
 320              		.loc 1 99 0
 321 0018 034B     		ldr	r3, .L25+4
 322 001a 1800     		movs	r0, r3
 323 001c FFF7FEFF 		bl	Button_Right_ISR_StartEx
 100:main.c        ****     
 101:main.c        ****     /* Enable global interrupts */
ARM GAS  C:\Users\jagumiel\AppData\Local\Temp\ccrMsASq.s 			page 9


 102:main.c        ****     CyGlobalIntEnable;
 324              		.loc 1 102 0
 325              		.syntax divided
 326              	@ 102 "main.c" 1
 327 0020 62B6     		CPSIE   i
 328              	@ 0 "" 2
 329              		.thumb
 330              		.syntax unified
 331              	.L24:
 103:main.c        **** 
 104:main.c        ****     
 105:main.c        ****     for(;;)
 106:main.c        ****     {
 107:main.c        ****         /*Prepare and set the PWM DutyCycle*/
 108:main.c        ****         //PWM_WriteCompare((mVolts*255)/5000);
 109:main.c        ****         //UART_UartPutString("Hello World.\r\n");
 110:main.c        ****     }
 332              		.loc 1 110 0 discriminator 1
 333 0022 FEE7     		b	.L24
 334              	.L26:
 335              		.align	2
 336              	.L25:
 337 0024 00000000 		.word	Button_Left_ISR_Handler
 338 0028 00000000 		.word	Button_Right_ISR_Handler
 339              		.cfi_endproc
 340              	.LFE36:
 341              		.size	main, .-main
 342              		.text
 343              	.Letext0: