ARM GAS  C:\Users\jagumiel\AppData\Local\Temp\cc6m0Vht.s 			page 1


   1              		.syntax unified
   2              		.cpu cortex-m0
   3              		.fpu softvfp
   4              		.eabi_attribute 20, 1
   5              		.eabi_attribute 21, 1
   6              		.eabi_attribute 23, 3
   7              		.eabi_attribute 24, 1
   8              		.eabi_attribute 25, 1
   9              		.eabi_attribute 26, 1
  10              		.eabi_attribute 30, 6
  11              		.eabi_attribute 34, 0
  12              		.eabi_attribute 18, 4
  13              		.thumb
  14              		.syntax unified
  15              		.file	"PWM_Left.c"
  16              		.text
  17              	.Ltext0:
  18              		.cfi_sections	.debug_frame
  19              		.global	PWM_Left_initVar
  20              		.bss
  21              		.type	PWM_Left_initVar, %object
  22              		.size	PWM_Left_initVar, 1
  23              	PWM_Left_initVar:
  24 0000 00       		.space	1
  25              		.section	.text.PWM_Left_Start,"ax",%progbits
  26              		.align	2
  27              		.global	PWM_Left_Start
  28              		.code	16
  29              		.thumb_func
  30              		.type	PWM_Left_Start, %function
  31              	PWM_Left_Start:
  32              	.LFB0:
  33              		.file 1 "Generated_Source\\PSoC4\\PWM_Left.c"
   1:Generated_Source\PSoC4/PWM_Left.c **** /*******************************************************************************
   2:Generated_Source\PSoC4/PWM_Left.c **** * File Name: PWM_Left.c
   3:Generated_Source\PSoC4/PWM_Left.c **** * Version 3.30
   4:Generated_Source\PSoC4/PWM_Left.c **** *
   5:Generated_Source\PSoC4/PWM_Left.c **** * Description:
   6:Generated_Source\PSoC4/PWM_Left.c **** *  The PWM User Module consist of an 8 or 16-bit counter with two 8 or 16-bit
   7:Generated_Source\PSoC4/PWM_Left.c **** *  comparitors. Each instance of this user module is capable of generating
   8:Generated_Source\PSoC4/PWM_Left.c **** *  two PWM outputs with the same period. The pulse width is selectable between
   9:Generated_Source\PSoC4/PWM_Left.c **** *  1 and 255/65535. The period is selectable between 2 and 255/65536 clocks.
  10:Generated_Source\PSoC4/PWM_Left.c **** *  The compare value output may be configured to be active when the present
  11:Generated_Source\PSoC4/PWM_Left.c **** *  counter is less than or less than/equal to the compare value.
  12:Generated_Source\PSoC4/PWM_Left.c **** *  A terminal count output is also provided. It generates a pulse one clock
  13:Generated_Source\PSoC4/PWM_Left.c **** *  width wide when the counter is equal to zero.
  14:Generated_Source\PSoC4/PWM_Left.c **** *
  15:Generated_Source\PSoC4/PWM_Left.c **** * Note:
  16:Generated_Source\PSoC4/PWM_Left.c **** *
  17:Generated_Source\PSoC4/PWM_Left.c **** *******************************************************************************
  18:Generated_Source\PSoC4/PWM_Left.c **** * Copyright 2008-2014, Cypress Semiconductor Corporation.  All rights reserved.
  19:Generated_Source\PSoC4/PWM_Left.c **** * You may use this file only in accordance with the license, terms, conditions,
  20:Generated_Source\PSoC4/PWM_Left.c **** * disclaimers, and limitations in the end user license agreement accompanying
  21:Generated_Source\PSoC4/PWM_Left.c **** * the software package with which this file was provided.
  22:Generated_Source\PSoC4/PWM_Left.c **** ********************************************************************************/
  23:Generated_Source\PSoC4/PWM_Left.c **** 
  24:Generated_Source\PSoC4/PWM_Left.c **** #include "PWM_Left.h"
ARM GAS  C:\Users\jagumiel\AppData\Local\Temp\cc6m0Vht.s 			page 2


  25:Generated_Source\PSoC4/PWM_Left.c **** 
  26:Generated_Source\PSoC4/PWM_Left.c **** /* Error message for removed <resource> through optimization */
  27:Generated_Source\PSoC4/PWM_Left.c **** #ifdef PWM_Left_PWMUDB_genblk1_ctrlreg__REMOVED
  28:Generated_Source\PSoC4/PWM_Left.c ****     #error PWM_v3_30 detected with a constant 0 for the enable or \
  29:Generated_Source\PSoC4/PWM_Left.c ****          constant 1 for reset. This will prevent the component from operating.
  30:Generated_Source\PSoC4/PWM_Left.c **** #endif /* PWM_Left_PWMUDB_genblk1_ctrlreg__REMOVED */
  31:Generated_Source\PSoC4/PWM_Left.c **** 
  32:Generated_Source\PSoC4/PWM_Left.c **** uint8 PWM_Left_initVar = 0u;
  33:Generated_Source\PSoC4/PWM_Left.c **** 
  34:Generated_Source\PSoC4/PWM_Left.c **** 
  35:Generated_Source\PSoC4/PWM_Left.c **** /*******************************************************************************
  36:Generated_Source\PSoC4/PWM_Left.c **** * Function Name: PWM_Left_Start
  37:Generated_Source\PSoC4/PWM_Left.c **** ********************************************************************************
  38:Generated_Source\PSoC4/PWM_Left.c **** *
  39:Generated_Source\PSoC4/PWM_Left.c **** * Summary:
  40:Generated_Source\PSoC4/PWM_Left.c **** *  The start function initializes the pwm with the default values, the
  41:Generated_Source\PSoC4/PWM_Left.c **** *  enables the counter to begin counting.  It does not enable interrupts,
  42:Generated_Source\PSoC4/PWM_Left.c **** *  the EnableInt command should be called if interrupt generation is required.
  43:Generated_Source\PSoC4/PWM_Left.c **** *
  44:Generated_Source\PSoC4/PWM_Left.c **** * Parameters:
  45:Generated_Source\PSoC4/PWM_Left.c **** *  None
  46:Generated_Source\PSoC4/PWM_Left.c **** *
  47:Generated_Source\PSoC4/PWM_Left.c **** * Return:
  48:Generated_Source\PSoC4/PWM_Left.c **** *  None
  49:Generated_Source\PSoC4/PWM_Left.c **** *
  50:Generated_Source\PSoC4/PWM_Left.c **** * Global variables:
  51:Generated_Source\PSoC4/PWM_Left.c **** *  PWM_Left_initVar: Is modified when this function is called for the
  52:Generated_Source\PSoC4/PWM_Left.c **** *   first time. Is used to ensure that initialization happens only once.
  53:Generated_Source\PSoC4/PWM_Left.c **** *
  54:Generated_Source\PSoC4/PWM_Left.c **** *******************************************************************************/
  55:Generated_Source\PSoC4/PWM_Left.c **** void PWM_Left_Start(void) 
  56:Generated_Source\PSoC4/PWM_Left.c **** {
  34              		.loc 1 56 0
  35              		.cfi_startproc
  36              		@ args = 0, pretend = 0, frame = 0
  37              		@ frame_needed = 1, uses_anonymous_args = 0
  38 0000 80B5     		push	{r7, lr}
  39              		.cfi_def_cfa_offset 8
  40              		.cfi_offset 7, -8
  41              		.cfi_offset 14, -4
  42 0002 00AF     		add	r7, sp, #0
  43              		.cfi_def_cfa_register 7
  57:Generated_Source\PSoC4/PWM_Left.c ****     /* If not Initialized then initialize all required hardware and software */
  58:Generated_Source\PSoC4/PWM_Left.c ****     if(PWM_Left_initVar == 0u)
  44              		.loc 1 58 0
  45 0004 064B     		ldr	r3, .L3
  46 0006 1B78     		ldrb	r3, [r3]
  47 0008 002B     		cmp	r3, #0
  48 000a 04D1     		bne	.L2
  59:Generated_Source\PSoC4/PWM_Left.c ****     {
  60:Generated_Source\PSoC4/PWM_Left.c ****         PWM_Left_Init();
  49              		.loc 1 60 0
  50 000c FFF7FEFF 		bl	PWM_Left_Init
  61:Generated_Source\PSoC4/PWM_Left.c ****         PWM_Left_initVar = 1u;
  51              		.loc 1 61 0
  52 0010 034B     		ldr	r3, .L3
  53 0012 0122     		movs	r2, #1
ARM GAS  C:\Users\jagumiel\AppData\Local\Temp\cc6m0Vht.s 			page 3


  54 0014 1A70     		strb	r2, [r3]
  55              	.L2:
  62:Generated_Source\PSoC4/PWM_Left.c ****     }
  63:Generated_Source\PSoC4/PWM_Left.c ****     PWM_Left_Enable();
  56              		.loc 1 63 0
  57 0016 FFF7FEFF 		bl	PWM_Left_Enable
  64:Generated_Source\PSoC4/PWM_Left.c **** 
  65:Generated_Source\PSoC4/PWM_Left.c **** }
  58              		.loc 1 65 0
  59 001a C046     		nop
  60 001c BD46     		mov	sp, r7
  61              		@ sp needed
  62 001e 80BD     		pop	{r7, pc}
  63              	.L4:
  64              		.align	2
  65              	.L3:
  66 0020 00000000 		.word	PWM_Left_initVar
  67              		.cfi_endproc
  68              	.LFE0:
  69              		.size	PWM_Left_Start, .-PWM_Left_Start
  70              		.section	.text.PWM_Left_Init,"ax",%progbits
  71              		.align	2
  72              		.global	PWM_Left_Init
  73              		.code	16
  74              		.thumb_func
  75              		.type	PWM_Left_Init, %function
  76              	PWM_Left_Init:
  77              	.LFB1:
  66:Generated_Source\PSoC4/PWM_Left.c **** 
  67:Generated_Source\PSoC4/PWM_Left.c **** 
  68:Generated_Source\PSoC4/PWM_Left.c **** /*******************************************************************************
  69:Generated_Source\PSoC4/PWM_Left.c **** * Function Name: PWM_Left_Init
  70:Generated_Source\PSoC4/PWM_Left.c **** ********************************************************************************
  71:Generated_Source\PSoC4/PWM_Left.c **** *
  72:Generated_Source\PSoC4/PWM_Left.c **** * Summary:
  73:Generated_Source\PSoC4/PWM_Left.c **** *  Initialize component's parameters to the parameters set by user in the
  74:Generated_Source\PSoC4/PWM_Left.c **** *  customizer of the component placed onto schematic. Usually called in
  75:Generated_Source\PSoC4/PWM_Left.c **** *  PWM_Left_Start().
  76:Generated_Source\PSoC4/PWM_Left.c **** *
  77:Generated_Source\PSoC4/PWM_Left.c **** * Parameters:
  78:Generated_Source\PSoC4/PWM_Left.c **** *  None
  79:Generated_Source\PSoC4/PWM_Left.c **** *
  80:Generated_Source\PSoC4/PWM_Left.c **** * Return:
  81:Generated_Source\PSoC4/PWM_Left.c **** *  None
  82:Generated_Source\PSoC4/PWM_Left.c **** *
  83:Generated_Source\PSoC4/PWM_Left.c **** *******************************************************************************/
  84:Generated_Source\PSoC4/PWM_Left.c **** void PWM_Left_Init(void) 
  85:Generated_Source\PSoC4/PWM_Left.c **** {
  78              		.loc 1 85 0
  79              		.cfi_startproc
  80              		@ args = 0, pretend = 0, frame = 8
  81              		@ frame_needed = 1, uses_anonymous_args = 0
  82 0000 90B5     		push	{r4, r7, lr}
  83              		.cfi_def_cfa_offset 12
  84              		.cfi_offset 4, -12
  85              		.cfi_offset 7, -8
  86              		.cfi_offset 14, -4
ARM GAS  C:\Users\jagumiel\AppData\Local\Temp\cc6m0Vht.s 			page 4


  87 0002 83B0     		sub	sp, sp, #12
  88              		.cfi_def_cfa_offset 24
  89 0004 00AF     		add	r7, sp, #0
  90              		.cfi_def_cfa_register 7
  86:Generated_Source\PSoC4/PWM_Left.c ****     #if (PWM_Left_UsingFixedFunction || PWM_Left_UseControl)
  87:Generated_Source\PSoC4/PWM_Left.c ****         uint8 ctrl;
  88:Generated_Source\PSoC4/PWM_Left.c ****     #endif /* (PWM_Left_UsingFixedFunction || PWM_Left_UseControl) */
  89:Generated_Source\PSoC4/PWM_Left.c **** 
  90:Generated_Source\PSoC4/PWM_Left.c ****     #if(!PWM_Left_UsingFixedFunction)
  91:Generated_Source\PSoC4/PWM_Left.c ****         #if(PWM_Left_UseStatus)
  92:Generated_Source\PSoC4/PWM_Left.c ****             /* Interrupt State Backup for Critical Region*/
  93:Generated_Source\PSoC4/PWM_Left.c ****             uint8 PWM_Left_interruptState;
  94:Generated_Source\PSoC4/PWM_Left.c ****         #endif /* (PWM_Left_UseStatus) */
  95:Generated_Source\PSoC4/PWM_Left.c ****     #endif /* (!PWM_Left_UsingFixedFunction) */
  96:Generated_Source\PSoC4/PWM_Left.c **** 
  97:Generated_Source\PSoC4/PWM_Left.c ****     #if (PWM_Left_UsingFixedFunction)
  98:Generated_Source\PSoC4/PWM_Left.c ****         /* You are allowed to write the compare value (FF only) */
  99:Generated_Source\PSoC4/PWM_Left.c ****         PWM_Left_CONTROL |= PWM_Left_CFG0_MODE;
 100:Generated_Source\PSoC4/PWM_Left.c ****         #if (PWM_Left_DeadBand2_4)
 101:Generated_Source\PSoC4/PWM_Left.c ****             PWM_Left_CONTROL |= PWM_Left_CFG0_DB;
 102:Generated_Source\PSoC4/PWM_Left.c ****         #endif /* (PWM_Left_DeadBand2_4) */
 103:Generated_Source\PSoC4/PWM_Left.c **** 
 104:Generated_Source\PSoC4/PWM_Left.c ****         ctrl = PWM_Left_CONTROL3 & ((uint8 )(~PWM_Left_CTRL_CMPMODE1_MASK));
 105:Generated_Source\PSoC4/PWM_Left.c ****         PWM_Left_CONTROL3 = ctrl | PWM_Left_DEFAULT_COMPARE1_MODE;
 106:Generated_Source\PSoC4/PWM_Left.c **** 
 107:Generated_Source\PSoC4/PWM_Left.c ****          /* Clear and Set SYNCTC and SYNCCMP bits of RT1 register */
 108:Generated_Source\PSoC4/PWM_Left.c ****         PWM_Left_RT1 &= ((uint8)(~PWM_Left_RT1_MASK));
 109:Generated_Source\PSoC4/PWM_Left.c ****         PWM_Left_RT1 |= PWM_Left_SYNC;
 110:Generated_Source\PSoC4/PWM_Left.c **** 
 111:Generated_Source\PSoC4/PWM_Left.c ****         /*Enable DSI Sync all all inputs of the PWM*/
 112:Generated_Source\PSoC4/PWM_Left.c ****         PWM_Left_RT1 &= ((uint8)(~PWM_Left_SYNCDSI_MASK));
 113:Generated_Source\PSoC4/PWM_Left.c ****         PWM_Left_RT1 |= PWM_Left_SYNCDSI_EN;
 114:Generated_Source\PSoC4/PWM_Left.c **** 
 115:Generated_Source\PSoC4/PWM_Left.c ****     #elif (PWM_Left_UseControl)
 116:Generated_Source\PSoC4/PWM_Left.c ****         /* Set the default compare mode defined in the parameter */
 117:Generated_Source\PSoC4/PWM_Left.c ****         ctrl = PWM_Left_CONTROL & ((uint8)(~PWM_Left_CTRL_CMPMODE2_MASK)) &
  91              		.loc 1 117 0
  92 0006 1D4B     		ldr	r3, .L6
  93 0008 1B78     		ldrb	r3, [r3]
  94 000a DAB2     		uxtb	r2, r3
  95 000c FB1D     		adds	r3, r7, #7
  96 000e 3F21     		movs	r1, #63
  97 0010 8A43     		bics	r2, r1
  98 0012 1A70     		strb	r2, [r3]
 118:Generated_Source\PSoC4/PWM_Left.c ****                 ((uint8)(~PWM_Left_CTRL_CMPMODE1_MASK));
 119:Generated_Source\PSoC4/PWM_Left.c ****         PWM_Left_CONTROL = ctrl | PWM_Left_DEFAULT_COMPARE2_MODE |
  99              		.loc 1 119 0
 100 0014 194A     		ldr	r2, .L6
 101 0016 FB1D     		adds	r3, r7, #7
 102 0018 1B78     		ldrb	r3, [r3]
 103 001a 0C21     		movs	r1, #12
 104 001c 0B43     		orrs	r3, r1
 105 001e DBB2     		uxtb	r3, r3
 106 0020 1370     		strb	r3, [r2]
 120:Generated_Source\PSoC4/PWM_Left.c ****                                    PWM_Left_DEFAULT_COMPARE1_MODE;
 121:Generated_Source\PSoC4/PWM_Left.c ****     #endif /* (PWM_Left_UsingFixedFunction) */
 122:Generated_Source\PSoC4/PWM_Left.c **** 
ARM GAS  C:\Users\jagumiel\AppData\Local\Temp\cc6m0Vht.s 			page 5


 123:Generated_Source\PSoC4/PWM_Left.c ****     #if (!PWM_Left_UsingFixedFunction)
 124:Generated_Source\PSoC4/PWM_Left.c ****         #if (PWM_Left_Resolution == 8)
 125:Generated_Source\PSoC4/PWM_Left.c ****             /* Set FIFO 0 to 1 byte register for period*/
 126:Generated_Source\PSoC4/PWM_Left.c ****             PWM_Left_AUX_CONTROLDP0 |= (PWM_Left_AUX_CTRL_FIFO0_CLR);
 107              		.loc 1 126 0
 108 0022 174A     		ldr	r2, .L6+4
 109 0024 164B     		ldr	r3, .L6+4
 110 0026 1B78     		ldrb	r3, [r3]
 111 0028 DBB2     		uxtb	r3, r3
 112 002a 0121     		movs	r1, #1
 113 002c 0B43     		orrs	r3, r1
 114 002e DBB2     		uxtb	r3, r3
 115 0030 1370     		strb	r3, [r2]
 127:Generated_Source\PSoC4/PWM_Left.c ****         #else /* (PWM_Left_Resolution == 16)*/
 128:Generated_Source\PSoC4/PWM_Left.c ****             /* Set FIFO 0 to 1 byte register for period */
 129:Generated_Source\PSoC4/PWM_Left.c ****             PWM_Left_AUX_CONTROLDP0 |= (PWM_Left_AUX_CTRL_FIFO0_CLR);
 130:Generated_Source\PSoC4/PWM_Left.c ****             PWM_Left_AUX_CONTROLDP1 |= (PWM_Left_AUX_CTRL_FIFO0_CLR);
 131:Generated_Source\PSoC4/PWM_Left.c ****         #endif /* (PWM_Left_Resolution == 8) */
 132:Generated_Source\PSoC4/PWM_Left.c **** 
 133:Generated_Source\PSoC4/PWM_Left.c ****         PWM_Left_WriteCounter(PWM_Left_INIT_PERIOD_VALUE);
 116              		.loc 1 133 0
 117 0032 FF20     		movs	r0, #255
 118 0034 FFF7FEFF 		bl	PWM_Left_WriteCounter
 134:Generated_Source\PSoC4/PWM_Left.c ****     #endif /* (!PWM_Left_UsingFixedFunction) */
 135:Generated_Source\PSoC4/PWM_Left.c **** 
 136:Generated_Source\PSoC4/PWM_Left.c ****     PWM_Left_WritePeriod(PWM_Left_INIT_PERIOD_VALUE);
 119              		.loc 1 136 0
 120 0038 FF20     		movs	r0, #255
 121 003a FFF7FEFF 		bl	PWM_Left_WritePeriod
 137:Generated_Source\PSoC4/PWM_Left.c **** 
 138:Generated_Source\PSoC4/PWM_Left.c ****         #if (PWM_Left_UseOneCompareMode)
 139:Generated_Source\PSoC4/PWM_Left.c ****             PWM_Left_WriteCompare(PWM_Left_INIT_COMPARE_VALUE1);
 122              		.loc 1 139 0
 123 003e 7F20     		movs	r0, #127
 124 0040 FFF7FEFF 		bl	PWM_Left_WriteCompare
 140:Generated_Source\PSoC4/PWM_Left.c ****         #else
 141:Generated_Source\PSoC4/PWM_Left.c ****             PWM_Left_WriteCompare1(PWM_Left_INIT_COMPARE_VALUE1);
 142:Generated_Source\PSoC4/PWM_Left.c ****             PWM_Left_WriteCompare2(PWM_Left_INIT_COMPARE_VALUE2);
 143:Generated_Source\PSoC4/PWM_Left.c ****         #endif /* (PWM_Left_UseOneCompareMode) */
 144:Generated_Source\PSoC4/PWM_Left.c **** 
 145:Generated_Source\PSoC4/PWM_Left.c ****         #if (PWM_Left_KillModeMinTime)
 146:Generated_Source\PSoC4/PWM_Left.c ****             PWM_Left_WriteKillTime(PWM_Left_MinimumKillTime);
 147:Generated_Source\PSoC4/PWM_Left.c ****         #endif /* (PWM_Left_KillModeMinTime) */
 148:Generated_Source\PSoC4/PWM_Left.c **** 
 149:Generated_Source\PSoC4/PWM_Left.c ****         #if (PWM_Left_DeadBandUsed)
 150:Generated_Source\PSoC4/PWM_Left.c ****             PWM_Left_WriteDeadTime(PWM_Left_INIT_DEAD_TIME);
 151:Generated_Source\PSoC4/PWM_Left.c ****         #endif /* (PWM_Left_DeadBandUsed) */
 152:Generated_Source\PSoC4/PWM_Left.c **** 
 153:Generated_Source\PSoC4/PWM_Left.c ****     #if (PWM_Left_UseStatus || PWM_Left_UsingFixedFunction)
 154:Generated_Source\PSoC4/PWM_Left.c ****         PWM_Left_SetInterruptMode(PWM_Left_INIT_INTERRUPTS_MODE);
 125              		.loc 1 154 0
 126 0044 0020     		movs	r0, #0
 127 0046 FFF7FEFF 		bl	PWM_Left_SetInterruptMode
 155:Generated_Source\PSoC4/PWM_Left.c ****     #endif /* (PWM_Left_UseStatus || PWM_Left_UsingFixedFunction) */
 156:Generated_Source\PSoC4/PWM_Left.c **** 
 157:Generated_Source\PSoC4/PWM_Left.c ****     #if (PWM_Left_UsingFixedFunction)
 158:Generated_Source\PSoC4/PWM_Left.c ****         /* Globally Enable the Fixed Function Block chosen */
ARM GAS  C:\Users\jagumiel\AppData\Local\Temp\cc6m0Vht.s 			page 6


 159:Generated_Source\PSoC4/PWM_Left.c ****         PWM_Left_GLOBAL_ENABLE |= PWM_Left_BLOCK_EN_MASK;
 160:Generated_Source\PSoC4/PWM_Left.c ****         /* Set the Interrupt source to come from the status register */
 161:Generated_Source\PSoC4/PWM_Left.c ****         PWM_Left_CONTROL2 |= PWM_Left_CTRL2_IRQ_SEL;
 162:Generated_Source\PSoC4/PWM_Left.c ****     #else
 163:Generated_Source\PSoC4/PWM_Left.c ****         #if(PWM_Left_UseStatus)
 164:Generated_Source\PSoC4/PWM_Left.c **** 
 165:Generated_Source\PSoC4/PWM_Left.c ****             /* CyEnterCriticalRegion and CyExitCriticalRegion are used to mark following region cri
 166:Generated_Source\PSoC4/PWM_Left.c ****             /* Enter Critical Region*/
 167:Generated_Source\PSoC4/PWM_Left.c ****             PWM_Left_interruptState = CyEnterCriticalSection();
 128              		.loc 1 167 0
 129 004a BC1D     		adds	r4, r7, #6
 130 004c FFF7FEFF 		bl	CyEnterCriticalSection
 131 0050 0300     		movs	r3, r0
 132 0052 2370     		strb	r3, [r4]
 168:Generated_Source\PSoC4/PWM_Left.c ****             /* Use the interrupt output of the status register for IRQ output */
 169:Generated_Source\PSoC4/PWM_Left.c ****             PWM_Left_STATUS_AUX_CTRL |= PWM_Left_STATUS_ACTL_INT_EN_MASK;
 133              		.loc 1 169 0
 134 0054 0A4A     		ldr	r2, .L6+4
 135 0056 0A4B     		ldr	r3, .L6+4
 136 0058 1B78     		ldrb	r3, [r3]
 137 005a DBB2     		uxtb	r3, r3
 138 005c 1021     		movs	r1, #16
 139 005e 0B43     		orrs	r3, r1
 140 0060 DBB2     		uxtb	r3, r3
 141 0062 1370     		strb	r3, [r2]
 170:Generated_Source\PSoC4/PWM_Left.c **** 
 171:Generated_Source\PSoC4/PWM_Left.c ****              /* Exit Critical Region*/
 172:Generated_Source\PSoC4/PWM_Left.c ****             CyExitCriticalSection(PWM_Left_interruptState);
 142              		.loc 1 172 0
 143 0064 BB1D     		adds	r3, r7, #6
 144 0066 1B78     		ldrb	r3, [r3]
 145 0068 1800     		movs	r0, r3
 146 006a FFF7FEFF 		bl	CyExitCriticalSection
 173:Generated_Source\PSoC4/PWM_Left.c **** 
 174:Generated_Source\PSoC4/PWM_Left.c ****             /* Clear the FIFO to enable the PWM_Left_STATUS_FIFOFULL
 175:Generated_Source\PSoC4/PWM_Left.c ****                    bit to be set on FIFO full. */
 176:Generated_Source\PSoC4/PWM_Left.c ****             PWM_Left_ClearFIFO();
 147              		.loc 1 176 0
 148 006e FFF7FEFF 		bl	PWM_Left_ClearFIFO
 177:Generated_Source\PSoC4/PWM_Left.c ****         #endif /* (PWM_Left_UseStatus) */
 178:Generated_Source\PSoC4/PWM_Left.c ****     #endif /* (PWM_Left_UsingFixedFunction) */
 179:Generated_Source\PSoC4/PWM_Left.c **** }
 149              		.loc 1 179 0
 150 0072 C046     		nop
 151 0074 BD46     		mov	sp, r7
 152 0076 03B0     		add	sp, sp, #12
 153              		@ sp needed
 154 0078 90BD     		pop	{r4, r7, pc}
 155              	.L7:
 156 007a C046     		.align	2
 157              	.L6:
 158 007c 72000F40 		.word	1074724978
 159 0080 92000F40 		.word	1074725010
 160              		.cfi_endproc
 161              	.LFE1:
 162              		.size	PWM_Left_Init, .-PWM_Left_Init
 163              		.section	.text.PWM_Left_Enable,"ax",%progbits
ARM GAS  C:\Users\jagumiel\AppData\Local\Temp\cc6m0Vht.s 			page 7


 164              		.align	2
 165              		.global	PWM_Left_Enable
 166              		.code	16
 167              		.thumb_func
 168              		.type	PWM_Left_Enable, %function
 169              	PWM_Left_Enable:
 170              	.LFB2:
 180:Generated_Source\PSoC4/PWM_Left.c **** 
 181:Generated_Source\PSoC4/PWM_Left.c **** 
 182:Generated_Source\PSoC4/PWM_Left.c **** /*******************************************************************************
 183:Generated_Source\PSoC4/PWM_Left.c **** * Function Name: PWM_Left_Enable
 184:Generated_Source\PSoC4/PWM_Left.c **** ********************************************************************************
 185:Generated_Source\PSoC4/PWM_Left.c **** *
 186:Generated_Source\PSoC4/PWM_Left.c **** * Summary:
 187:Generated_Source\PSoC4/PWM_Left.c **** *  Enables the PWM block operation
 188:Generated_Source\PSoC4/PWM_Left.c **** *
 189:Generated_Source\PSoC4/PWM_Left.c **** * Parameters:
 190:Generated_Source\PSoC4/PWM_Left.c **** *  None
 191:Generated_Source\PSoC4/PWM_Left.c **** *
 192:Generated_Source\PSoC4/PWM_Left.c **** * Return:
 193:Generated_Source\PSoC4/PWM_Left.c **** *  None
 194:Generated_Source\PSoC4/PWM_Left.c **** *
 195:Generated_Source\PSoC4/PWM_Left.c **** * Side Effects:
 196:Generated_Source\PSoC4/PWM_Left.c **** *  This works only if software enable mode is chosen
 197:Generated_Source\PSoC4/PWM_Left.c **** *
 198:Generated_Source\PSoC4/PWM_Left.c **** *******************************************************************************/
 199:Generated_Source\PSoC4/PWM_Left.c **** void PWM_Left_Enable(void) 
 200:Generated_Source\PSoC4/PWM_Left.c **** {
 171              		.loc 1 200 0
 172              		.cfi_startproc
 173              		@ args = 0, pretend = 0, frame = 0
 174              		@ frame_needed = 1, uses_anonymous_args = 0
 175 0000 80B5     		push	{r7, lr}
 176              		.cfi_def_cfa_offset 8
 177              		.cfi_offset 7, -8
 178              		.cfi_offset 14, -4
 179 0002 00AF     		add	r7, sp, #0
 180              		.cfi_def_cfa_register 7
 201:Generated_Source\PSoC4/PWM_Left.c ****     /* Globally Enable the Fixed Function Block chosen */
 202:Generated_Source\PSoC4/PWM_Left.c ****     #if (PWM_Left_UsingFixedFunction)
 203:Generated_Source\PSoC4/PWM_Left.c ****         PWM_Left_GLOBAL_ENABLE |= PWM_Left_BLOCK_EN_MASK;
 204:Generated_Source\PSoC4/PWM_Left.c ****         PWM_Left_GLOBAL_STBY_ENABLE |= PWM_Left_BLOCK_STBY_EN_MASK;
 205:Generated_Source\PSoC4/PWM_Left.c ****     #endif /* (PWM_Left_UsingFixedFunction) */
 206:Generated_Source\PSoC4/PWM_Left.c **** 
 207:Generated_Source\PSoC4/PWM_Left.c ****     /* Enable the PWM from the control register  */
 208:Generated_Source\PSoC4/PWM_Left.c ****     #if (PWM_Left_UseControl || PWM_Left_UsingFixedFunction)
 209:Generated_Source\PSoC4/PWM_Left.c ****         PWM_Left_CONTROL |= PWM_Left_CTRL_ENABLE;
 181              		.loc 1 209 0
 182 0004 0549     		ldr	r1, .L9
 183 0006 054B     		ldr	r3, .L9
 184 0008 1B78     		ldrb	r3, [r3]
 185 000a DBB2     		uxtb	r3, r3
 186 000c 8022     		movs	r2, #128
 187 000e 5242     		rsbs	r2, r2, #0
 188 0010 1343     		orrs	r3, r2
 189 0012 DBB2     		uxtb	r3, r3
 190 0014 0B70     		strb	r3, [r1]
ARM GAS  C:\Users\jagumiel\AppData\Local\Temp\cc6m0Vht.s 			page 8


 210:Generated_Source\PSoC4/PWM_Left.c ****     #endif /* (PWM_Left_UseControl || PWM_Left_UsingFixedFunction) */
 211:Generated_Source\PSoC4/PWM_Left.c **** }
 191              		.loc 1 211 0
 192 0016 C046     		nop
 193 0018 BD46     		mov	sp, r7
 194              		@ sp needed
 195 001a 80BD     		pop	{r7, pc}
 196              	.L10:
 197              		.align	2
 198              	.L9:
 199 001c 72000F40 		.word	1074724978
 200              		.cfi_endproc
 201              	.LFE2:
 202              		.size	PWM_Left_Enable, .-PWM_Left_Enable
 203              		.section	.text.PWM_Left_Stop,"ax",%progbits
 204              		.align	2
 205              		.global	PWM_Left_Stop
 206              		.code	16
 207              		.thumb_func
 208              		.type	PWM_Left_Stop, %function
 209              	PWM_Left_Stop:
 210              	.LFB3:
 212:Generated_Source\PSoC4/PWM_Left.c **** 
 213:Generated_Source\PSoC4/PWM_Left.c **** 
 214:Generated_Source\PSoC4/PWM_Left.c **** /*******************************************************************************
 215:Generated_Source\PSoC4/PWM_Left.c **** * Function Name: PWM_Left_Stop
 216:Generated_Source\PSoC4/PWM_Left.c **** ********************************************************************************
 217:Generated_Source\PSoC4/PWM_Left.c **** *
 218:Generated_Source\PSoC4/PWM_Left.c **** * Summary:
 219:Generated_Source\PSoC4/PWM_Left.c **** *  The stop function halts the PWM, but does not change any modes or disable
 220:Generated_Source\PSoC4/PWM_Left.c **** *  interrupts.
 221:Generated_Source\PSoC4/PWM_Left.c **** *
 222:Generated_Source\PSoC4/PWM_Left.c **** * Parameters:
 223:Generated_Source\PSoC4/PWM_Left.c **** *  None
 224:Generated_Source\PSoC4/PWM_Left.c **** *
 225:Generated_Source\PSoC4/PWM_Left.c **** * Return:
 226:Generated_Source\PSoC4/PWM_Left.c **** *  None
 227:Generated_Source\PSoC4/PWM_Left.c **** *
 228:Generated_Source\PSoC4/PWM_Left.c **** * Side Effects:
 229:Generated_Source\PSoC4/PWM_Left.c **** *  If the Enable mode is set to Hardware only then this function
 230:Generated_Source\PSoC4/PWM_Left.c **** *  has no effect on the operation of the PWM
 231:Generated_Source\PSoC4/PWM_Left.c **** *
 232:Generated_Source\PSoC4/PWM_Left.c **** *******************************************************************************/
 233:Generated_Source\PSoC4/PWM_Left.c **** void PWM_Left_Stop(void) 
 234:Generated_Source\PSoC4/PWM_Left.c **** {
 211              		.loc 1 234 0
 212              		.cfi_startproc
 213              		@ args = 0, pretend = 0, frame = 0
 214              		@ frame_needed = 1, uses_anonymous_args = 0
 215 0000 80B5     		push	{r7, lr}
 216              		.cfi_def_cfa_offset 8
 217              		.cfi_offset 7, -8
 218              		.cfi_offset 14, -4
 219 0002 00AF     		add	r7, sp, #0
 220              		.cfi_def_cfa_register 7
 235:Generated_Source\PSoC4/PWM_Left.c ****     #if (PWM_Left_UseControl || PWM_Left_UsingFixedFunction)
 236:Generated_Source\PSoC4/PWM_Left.c ****         PWM_Left_CONTROL &= ((uint8)(~PWM_Left_CTRL_ENABLE));
ARM GAS  C:\Users\jagumiel\AppData\Local\Temp\cc6m0Vht.s 			page 9


 221              		.loc 1 236 0
 222 0004 054A     		ldr	r2, .L12
 223 0006 054B     		ldr	r3, .L12
 224 0008 1B78     		ldrb	r3, [r3]
 225 000a DBB2     		uxtb	r3, r3
 226 000c 7F21     		movs	r1, #127
 227 000e 0B40     		ands	r3, r1
 228 0010 DBB2     		uxtb	r3, r3
 229 0012 1370     		strb	r3, [r2]
 237:Generated_Source\PSoC4/PWM_Left.c ****     #endif /* (PWM_Left_UseControl || PWM_Left_UsingFixedFunction) */
 238:Generated_Source\PSoC4/PWM_Left.c **** 
 239:Generated_Source\PSoC4/PWM_Left.c ****     /* Globally disable the Fixed Function Block chosen */
 240:Generated_Source\PSoC4/PWM_Left.c ****     #if (PWM_Left_UsingFixedFunction)
 241:Generated_Source\PSoC4/PWM_Left.c ****         PWM_Left_GLOBAL_ENABLE &= ((uint8)(~PWM_Left_BLOCK_EN_MASK));
 242:Generated_Source\PSoC4/PWM_Left.c ****         PWM_Left_GLOBAL_STBY_ENABLE &= ((uint8)(~PWM_Left_BLOCK_STBY_EN_MASK));
 243:Generated_Source\PSoC4/PWM_Left.c ****     #endif /* (PWM_Left_UsingFixedFunction) */
 244:Generated_Source\PSoC4/PWM_Left.c **** }
 230              		.loc 1 244 0
 231 0014 C046     		nop
 232 0016 BD46     		mov	sp, r7
 233              		@ sp needed
 234 0018 80BD     		pop	{r7, pc}
 235              	.L13:
 236 001a C046     		.align	2
 237              	.L12:
 238 001c 72000F40 		.word	1074724978
 239              		.cfi_endproc
 240              	.LFE3:
 241              		.size	PWM_Left_Stop, .-PWM_Left_Stop
 242              		.section	.text.PWM_Left_WriteCounter,"ax",%progbits
 243              		.align	2
 244              		.global	PWM_Left_WriteCounter
 245              		.code	16
 246              		.thumb_func
 247              		.type	PWM_Left_WriteCounter, %function
 248              	PWM_Left_WriteCounter:
 249              	.LFB4:
 245:Generated_Source\PSoC4/PWM_Left.c **** 
 246:Generated_Source\PSoC4/PWM_Left.c **** #if (PWM_Left_UseOneCompareMode)
 247:Generated_Source\PSoC4/PWM_Left.c ****     #if (PWM_Left_CompareMode1SW)
 248:Generated_Source\PSoC4/PWM_Left.c **** 
 249:Generated_Source\PSoC4/PWM_Left.c **** 
 250:Generated_Source\PSoC4/PWM_Left.c ****         /*******************************************************************************
 251:Generated_Source\PSoC4/PWM_Left.c ****         * Function Name: PWM_Left_SetCompareMode
 252:Generated_Source\PSoC4/PWM_Left.c ****         ********************************************************************************
 253:Generated_Source\PSoC4/PWM_Left.c ****         *
 254:Generated_Source\PSoC4/PWM_Left.c ****         * Summary:
 255:Generated_Source\PSoC4/PWM_Left.c ****         *  This function writes the Compare Mode for the pwm output when in Dither mode,
 256:Generated_Source\PSoC4/PWM_Left.c ****         *  Center Align Mode or One Output Mode.
 257:Generated_Source\PSoC4/PWM_Left.c ****         *
 258:Generated_Source\PSoC4/PWM_Left.c ****         * Parameters:
 259:Generated_Source\PSoC4/PWM_Left.c ****         *  comparemode:  The new compare mode for the PWM output. Use the compare types
 260:Generated_Source\PSoC4/PWM_Left.c ****         *                defined in the H file as input arguments.
 261:Generated_Source\PSoC4/PWM_Left.c ****         *
 262:Generated_Source\PSoC4/PWM_Left.c ****         * Return:
 263:Generated_Source\PSoC4/PWM_Left.c ****         *  None
 264:Generated_Source\PSoC4/PWM_Left.c ****         *
ARM GAS  C:\Users\jagumiel\AppData\Local\Temp\cc6m0Vht.s 			page 10


 265:Generated_Source\PSoC4/PWM_Left.c ****         *******************************************************************************/
 266:Generated_Source\PSoC4/PWM_Left.c ****         void PWM_Left_SetCompareMode(uint8 comparemode) 
 267:Generated_Source\PSoC4/PWM_Left.c ****         {
 268:Generated_Source\PSoC4/PWM_Left.c ****             #if(PWM_Left_UsingFixedFunction)
 269:Generated_Source\PSoC4/PWM_Left.c **** 
 270:Generated_Source\PSoC4/PWM_Left.c ****                 #if(0 != PWM_Left_CTRL_CMPMODE1_SHIFT)
 271:Generated_Source\PSoC4/PWM_Left.c ****                     uint8 comparemodemasked = ((uint8)((uint8)comparemode << PWM_Left_CTRL_CMPMODE1
 272:Generated_Source\PSoC4/PWM_Left.c ****                 #else
 273:Generated_Source\PSoC4/PWM_Left.c ****                     uint8 comparemodemasked = comparemode;
 274:Generated_Source\PSoC4/PWM_Left.c ****                 #endif /* (0 != PWM_Left_CTRL_CMPMODE1_SHIFT) */
 275:Generated_Source\PSoC4/PWM_Left.c **** 
 276:Generated_Source\PSoC4/PWM_Left.c ****                 PWM_Left_CONTROL3 &= ((uint8)(~PWM_Left_CTRL_CMPMODE1_MASK)); /*Clear Existing Data
 277:Generated_Source\PSoC4/PWM_Left.c ****                 PWM_Left_CONTROL3 |= comparemodemasked;
 278:Generated_Source\PSoC4/PWM_Left.c **** 
 279:Generated_Source\PSoC4/PWM_Left.c ****             #elif (PWM_Left_UseControl)
 280:Generated_Source\PSoC4/PWM_Left.c **** 
 281:Generated_Source\PSoC4/PWM_Left.c ****                 #if(0 != PWM_Left_CTRL_CMPMODE1_SHIFT)
 282:Generated_Source\PSoC4/PWM_Left.c ****                     uint8 comparemode1masked = ((uint8)((uint8)comparemode << PWM_Left_CTRL_CMPMODE
 283:Generated_Source\PSoC4/PWM_Left.c ****                                                 PWM_Left_CTRL_CMPMODE1_MASK;
 284:Generated_Source\PSoC4/PWM_Left.c ****                 #else
 285:Generated_Source\PSoC4/PWM_Left.c ****                     uint8 comparemode1masked = comparemode & PWM_Left_CTRL_CMPMODE1_MASK;
 286:Generated_Source\PSoC4/PWM_Left.c ****                 #endif /* (0 != PWM_Left_CTRL_CMPMODE1_SHIFT) */
 287:Generated_Source\PSoC4/PWM_Left.c **** 
 288:Generated_Source\PSoC4/PWM_Left.c ****                 #if(0 != PWM_Left_CTRL_CMPMODE2_SHIFT)
 289:Generated_Source\PSoC4/PWM_Left.c ****                     uint8 comparemode2masked = ((uint8)((uint8)comparemode << PWM_Left_CTRL_CMPMODE
 290:Generated_Source\PSoC4/PWM_Left.c ****                                                PWM_Left_CTRL_CMPMODE2_MASK;
 291:Generated_Source\PSoC4/PWM_Left.c ****                 #else
 292:Generated_Source\PSoC4/PWM_Left.c ****                     uint8 comparemode2masked = comparemode & PWM_Left_CTRL_CMPMODE2_MASK;
 293:Generated_Source\PSoC4/PWM_Left.c ****                 #endif /* (0 != PWM_Left_CTRL_CMPMODE2_SHIFT) */
 294:Generated_Source\PSoC4/PWM_Left.c **** 
 295:Generated_Source\PSoC4/PWM_Left.c ****                 /*Clear existing mode */
 296:Generated_Source\PSoC4/PWM_Left.c ****                 PWM_Left_CONTROL &= ((uint8)(~(PWM_Left_CTRL_CMPMODE1_MASK |
 297:Generated_Source\PSoC4/PWM_Left.c ****                                             PWM_Left_CTRL_CMPMODE2_MASK)));
 298:Generated_Source\PSoC4/PWM_Left.c ****                 PWM_Left_CONTROL |= (comparemode1masked | comparemode2masked);
 299:Generated_Source\PSoC4/PWM_Left.c **** 
 300:Generated_Source\PSoC4/PWM_Left.c ****             #else
 301:Generated_Source\PSoC4/PWM_Left.c ****                 uint8 temp = comparemode;
 302:Generated_Source\PSoC4/PWM_Left.c ****             #endif /* (PWM_Left_UsingFixedFunction) */
 303:Generated_Source\PSoC4/PWM_Left.c ****         }
 304:Generated_Source\PSoC4/PWM_Left.c ****     #endif /* PWM_Left_CompareMode1SW */
 305:Generated_Source\PSoC4/PWM_Left.c **** 
 306:Generated_Source\PSoC4/PWM_Left.c **** #else /* UseOneCompareMode */
 307:Generated_Source\PSoC4/PWM_Left.c **** 
 308:Generated_Source\PSoC4/PWM_Left.c ****     #if (PWM_Left_CompareMode1SW)
 309:Generated_Source\PSoC4/PWM_Left.c **** 
 310:Generated_Source\PSoC4/PWM_Left.c **** 
 311:Generated_Source\PSoC4/PWM_Left.c ****         /*******************************************************************************
 312:Generated_Source\PSoC4/PWM_Left.c ****         * Function Name: PWM_Left_SetCompareMode1
 313:Generated_Source\PSoC4/PWM_Left.c ****         ********************************************************************************
 314:Generated_Source\PSoC4/PWM_Left.c ****         *
 315:Generated_Source\PSoC4/PWM_Left.c ****         * Summary:
 316:Generated_Source\PSoC4/PWM_Left.c ****         *  This function writes the Compare Mode for the pwm or pwm1 output
 317:Generated_Source\PSoC4/PWM_Left.c ****         *
 318:Generated_Source\PSoC4/PWM_Left.c ****         * Parameters:
 319:Generated_Source\PSoC4/PWM_Left.c ****         *  comparemode:  The new compare mode for the PWM output. Use the compare types
 320:Generated_Source\PSoC4/PWM_Left.c ****         *                defined in the H file as input arguments.
 321:Generated_Source\PSoC4/PWM_Left.c ****         *
ARM GAS  C:\Users\jagumiel\AppData\Local\Temp\cc6m0Vht.s 			page 11


 322:Generated_Source\PSoC4/PWM_Left.c ****         * Return:
 323:Generated_Source\PSoC4/PWM_Left.c ****         *  None
 324:Generated_Source\PSoC4/PWM_Left.c ****         *
 325:Generated_Source\PSoC4/PWM_Left.c ****         *******************************************************************************/
 326:Generated_Source\PSoC4/PWM_Left.c ****         void PWM_Left_SetCompareMode1(uint8 comparemode) 
 327:Generated_Source\PSoC4/PWM_Left.c ****         {
 328:Generated_Source\PSoC4/PWM_Left.c ****             #if(0 != PWM_Left_CTRL_CMPMODE1_SHIFT)
 329:Generated_Source\PSoC4/PWM_Left.c ****                 uint8 comparemodemasked = ((uint8)((uint8)comparemode << PWM_Left_CTRL_CMPMODE1_SHI
 330:Generated_Source\PSoC4/PWM_Left.c ****                                            PWM_Left_CTRL_CMPMODE1_MASK;
 331:Generated_Source\PSoC4/PWM_Left.c ****             #else
 332:Generated_Source\PSoC4/PWM_Left.c ****                 uint8 comparemodemasked = comparemode & PWM_Left_CTRL_CMPMODE1_MASK;
 333:Generated_Source\PSoC4/PWM_Left.c ****             #endif /* (0 != PWM_Left_CTRL_CMPMODE1_SHIFT) */
 334:Generated_Source\PSoC4/PWM_Left.c **** 
 335:Generated_Source\PSoC4/PWM_Left.c ****             #if (PWM_Left_UseControl)
 336:Generated_Source\PSoC4/PWM_Left.c ****                 PWM_Left_CONTROL &= ((uint8)(~PWM_Left_CTRL_CMPMODE1_MASK)); /*Clear existing mode 
 337:Generated_Source\PSoC4/PWM_Left.c ****                 PWM_Left_CONTROL |= comparemodemasked;
 338:Generated_Source\PSoC4/PWM_Left.c ****             #endif /* (PWM_Left_UseControl) */
 339:Generated_Source\PSoC4/PWM_Left.c ****         }
 340:Generated_Source\PSoC4/PWM_Left.c ****     #endif /* PWM_Left_CompareMode1SW */
 341:Generated_Source\PSoC4/PWM_Left.c **** 
 342:Generated_Source\PSoC4/PWM_Left.c **** #if (PWM_Left_CompareMode2SW)
 343:Generated_Source\PSoC4/PWM_Left.c **** 
 344:Generated_Source\PSoC4/PWM_Left.c **** 
 345:Generated_Source\PSoC4/PWM_Left.c ****     /*******************************************************************************
 346:Generated_Source\PSoC4/PWM_Left.c ****     * Function Name: PWM_Left_SetCompareMode2
 347:Generated_Source\PSoC4/PWM_Left.c ****     ********************************************************************************
 348:Generated_Source\PSoC4/PWM_Left.c ****     *
 349:Generated_Source\PSoC4/PWM_Left.c ****     * Summary:
 350:Generated_Source\PSoC4/PWM_Left.c ****     *  This function writes the Compare Mode for the pwm or pwm2 output
 351:Generated_Source\PSoC4/PWM_Left.c ****     *
 352:Generated_Source\PSoC4/PWM_Left.c ****     * Parameters:
 353:Generated_Source\PSoC4/PWM_Left.c ****     *  comparemode:  The new compare mode for the PWM output. Use the compare types
 354:Generated_Source\PSoC4/PWM_Left.c ****     *                defined in the H file as input arguments.
 355:Generated_Source\PSoC4/PWM_Left.c ****     *
 356:Generated_Source\PSoC4/PWM_Left.c ****     * Return:
 357:Generated_Source\PSoC4/PWM_Left.c ****     *  None
 358:Generated_Source\PSoC4/PWM_Left.c ****     *
 359:Generated_Source\PSoC4/PWM_Left.c ****     *******************************************************************************/
 360:Generated_Source\PSoC4/PWM_Left.c ****     void PWM_Left_SetCompareMode2(uint8 comparemode) 
 361:Generated_Source\PSoC4/PWM_Left.c ****     {
 362:Generated_Source\PSoC4/PWM_Left.c **** 
 363:Generated_Source\PSoC4/PWM_Left.c ****         #if(0 != PWM_Left_CTRL_CMPMODE2_SHIFT)
 364:Generated_Source\PSoC4/PWM_Left.c ****             uint8 comparemodemasked = ((uint8)((uint8)comparemode << PWM_Left_CTRL_CMPMODE2_SHIFT))
 365:Generated_Source\PSoC4/PWM_Left.c ****                                                  PWM_Left_CTRL_CMPMODE2_MASK;
 366:Generated_Source\PSoC4/PWM_Left.c ****         #else
 367:Generated_Source\PSoC4/PWM_Left.c ****             uint8 comparemodemasked = comparemode & PWM_Left_CTRL_CMPMODE2_MASK;
 368:Generated_Source\PSoC4/PWM_Left.c ****         #endif /* (0 != PWM_Left_CTRL_CMPMODE2_SHIFT) */
 369:Generated_Source\PSoC4/PWM_Left.c **** 
 370:Generated_Source\PSoC4/PWM_Left.c ****         #if (PWM_Left_UseControl)
 371:Generated_Source\PSoC4/PWM_Left.c ****             PWM_Left_CONTROL &= ((uint8)(~PWM_Left_CTRL_CMPMODE2_MASK)); /*Clear existing mode */
 372:Generated_Source\PSoC4/PWM_Left.c ****             PWM_Left_CONTROL |= comparemodemasked;
 373:Generated_Source\PSoC4/PWM_Left.c ****         #endif /* (PWM_Left_UseControl) */
 374:Generated_Source\PSoC4/PWM_Left.c ****     }
 375:Generated_Source\PSoC4/PWM_Left.c ****     #endif /*PWM_Left_CompareMode2SW */
 376:Generated_Source\PSoC4/PWM_Left.c **** 
 377:Generated_Source\PSoC4/PWM_Left.c **** #endif /* UseOneCompareMode */
 378:Generated_Source\PSoC4/PWM_Left.c **** 
ARM GAS  C:\Users\jagumiel\AppData\Local\Temp\cc6m0Vht.s 			page 12


 379:Generated_Source\PSoC4/PWM_Left.c **** 
 380:Generated_Source\PSoC4/PWM_Left.c **** #if (!PWM_Left_UsingFixedFunction)
 381:Generated_Source\PSoC4/PWM_Left.c **** 
 382:Generated_Source\PSoC4/PWM_Left.c **** 
 383:Generated_Source\PSoC4/PWM_Left.c ****     /*******************************************************************************
 384:Generated_Source\PSoC4/PWM_Left.c ****     * Function Name: PWM_Left_WriteCounter
 385:Generated_Source\PSoC4/PWM_Left.c ****     ********************************************************************************
 386:Generated_Source\PSoC4/PWM_Left.c ****     *
 387:Generated_Source\PSoC4/PWM_Left.c ****     * Summary:
 388:Generated_Source\PSoC4/PWM_Left.c ****     *  Writes a new counter value directly to the counter register. This will be
 389:Generated_Source\PSoC4/PWM_Left.c ****     *  implemented for that currently running period and only that period. This API
 390:Generated_Source\PSoC4/PWM_Left.c ****     *  is valid only for UDB implementation and not available for fixed function
 391:Generated_Source\PSoC4/PWM_Left.c ****     *  PWM implementation.
 392:Generated_Source\PSoC4/PWM_Left.c ****     *
 393:Generated_Source\PSoC4/PWM_Left.c ****     * Parameters:
 394:Generated_Source\PSoC4/PWM_Left.c ****     *  counter:  The period new period counter value.
 395:Generated_Source\PSoC4/PWM_Left.c ****     *
 396:Generated_Source\PSoC4/PWM_Left.c ****     * Return:
 397:Generated_Source\PSoC4/PWM_Left.c ****     *  None
 398:Generated_Source\PSoC4/PWM_Left.c ****     *
 399:Generated_Source\PSoC4/PWM_Left.c ****     * Side Effects:
 400:Generated_Source\PSoC4/PWM_Left.c ****     *  The PWM Period will be reloaded when a counter value will be a zero
 401:Generated_Source\PSoC4/PWM_Left.c ****     *
 402:Generated_Source\PSoC4/PWM_Left.c ****     *******************************************************************************/
 403:Generated_Source\PSoC4/PWM_Left.c ****     void PWM_Left_WriteCounter(uint8 counter) \
 404:Generated_Source\PSoC4/PWM_Left.c ****                                        
 405:Generated_Source\PSoC4/PWM_Left.c ****     {
 250              		.loc 1 405 0
 251              		.cfi_startproc
 252              		@ args = 0, pretend = 0, frame = 8
 253              		@ frame_needed = 1, uses_anonymous_args = 0
 254 0000 80B5     		push	{r7, lr}
 255              		.cfi_def_cfa_offset 8
 256              		.cfi_offset 7, -8
 257              		.cfi_offset 14, -4
 258 0002 82B0     		sub	sp, sp, #8
 259              		.cfi_def_cfa_offset 16
 260 0004 00AF     		add	r7, sp, #0
 261              		.cfi_def_cfa_register 7
 262 0006 0200     		movs	r2, r0
 263 0008 FB1D     		adds	r3, r7, #7
 264 000a 1A70     		strb	r2, [r3]
 406:Generated_Source\PSoC4/PWM_Left.c ****         CY_SET_REG8(PWM_Left_COUNTER_LSB_PTR, counter);
 265              		.loc 1 406 0
 266 000c 034A     		ldr	r2, .L15
 267 000e FB1D     		adds	r3, r7, #7
 268 0010 1B78     		ldrb	r3, [r3]
 269 0012 1370     		strb	r3, [r2]
 407:Generated_Source\PSoC4/PWM_Left.c ****     }
 270              		.loc 1 407 0
 271 0014 C046     		nop
 272 0016 BD46     		mov	sp, r7
 273 0018 02B0     		add	sp, sp, #8
 274              		@ sp needed
 275 001a 80BD     		pop	{r7, pc}
 276              	.L16:
 277              		.align	2
ARM GAS  C:\Users\jagumiel\AppData\Local\Temp\cc6m0Vht.s 			page 13


 278              	.L15:
 279 001c 02000F40 		.word	1074724866
 280              		.cfi_endproc
 281              	.LFE4:
 282              		.size	PWM_Left_WriteCounter, .-PWM_Left_WriteCounter
 283              		.section	.text.PWM_Left_ReadCounter,"ax",%progbits
 284              		.align	2
 285              		.global	PWM_Left_ReadCounter
 286              		.code	16
 287              		.thumb_func
 288              		.type	PWM_Left_ReadCounter, %function
 289              	PWM_Left_ReadCounter:
 290              	.LFB5:
 408:Generated_Source\PSoC4/PWM_Left.c **** 
 409:Generated_Source\PSoC4/PWM_Left.c **** 
 410:Generated_Source\PSoC4/PWM_Left.c ****     /*******************************************************************************
 411:Generated_Source\PSoC4/PWM_Left.c ****     * Function Name: PWM_Left_ReadCounter
 412:Generated_Source\PSoC4/PWM_Left.c ****     ********************************************************************************
 413:Generated_Source\PSoC4/PWM_Left.c ****     *
 414:Generated_Source\PSoC4/PWM_Left.c ****     * Summary:
 415:Generated_Source\PSoC4/PWM_Left.c ****     *  This function returns the current value of the counter.  It doesn't matter
 416:Generated_Source\PSoC4/PWM_Left.c ****     *  if the counter is enabled or running.
 417:Generated_Source\PSoC4/PWM_Left.c ****     *
 418:Generated_Source\PSoC4/PWM_Left.c ****     * Parameters:
 419:Generated_Source\PSoC4/PWM_Left.c ****     *  None
 420:Generated_Source\PSoC4/PWM_Left.c ****     *
 421:Generated_Source\PSoC4/PWM_Left.c ****     * Return:
 422:Generated_Source\PSoC4/PWM_Left.c ****     *  The current value of the counter.
 423:Generated_Source\PSoC4/PWM_Left.c ****     *
 424:Generated_Source\PSoC4/PWM_Left.c ****     *******************************************************************************/
 425:Generated_Source\PSoC4/PWM_Left.c ****     uint8 PWM_Left_ReadCounter(void) 
 426:Generated_Source\PSoC4/PWM_Left.c ****     {
 291              		.loc 1 426 0
 292              		.cfi_startproc
 293              		@ args = 0, pretend = 0, frame = 0
 294              		@ frame_needed = 1, uses_anonymous_args = 0
 295 0000 80B5     		push	{r7, lr}
 296              		.cfi_def_cfa_offset 8
 297              		.cfi_offset 7, -8
 298              		.cfi_offset 14, -4
 299 0002 00AF     		add	r7, sp, #0
 300              		.cfi_def_cfa_register 7
 427:Generated_Source\PSoC4/PWM_Left.c ****         /* Force capture by reading Accumulator */
 428:Generated_Source\PSoC4/PWM_Left.c ****         /* Must first do a software capture to be able to read the counter */
 429:Generated_Source\PSoC4/PWM_Left.c ****         /* It is up to the user code to make sure there isn't already captured data in the FIFO */
 430:Generated_Source\PSoC4/PWM_Left.c ****           (void)CY_GET_REG8(PWM_Left_COUNTERCAP_LSB_PTR_8BIT);
 301              		.loc 1 430 0
 302 0004 034B     		ldr	r3, .L19
 303 0006 1B78     		ldrb	r3, [r3]
 431:Generated_Source\PSoC4/PWM_Left.c **** 
 432:Generated_Source\PSoC4/PWM_Left.c ****         /* Read the data from the FIFO */
 433:Generated_Source\PSoC4/PWM_Left.c ****         return (CY_GET_REG8(PWM_Left_CAPTURE_LSB_PTR));
 304              		.loc 1 433 0
 305 0008 034B     		ldr	r3, .L19+4
 306 000a 1B78     		ldrb	r3, [r3]
 307 000c DBB2     		uxtb	r3, r3
 434:Generated_Source\PSoC4/PWM_Left.c ****     }
ARM GAS  C:\Users\jagumiel\AppData\Local\Temp\cc6m0Vht.s 			page 14


 308              		.loc 1 434 0
 309 000e 1800     		movs	r0, r3
 310 0010 BD46     		mov	sp, r7
 311              		@ sp needed
 312 0012 80BD     		pop	{r7, pc}
 313              	.L20:
 314              		.align	2
 315              	.L19:
 316 0014 12000F40 		.word	1074724882
 317 0018 52000F40 		.word	1074724946
 318              		.cfi_endproc
 319              	.LFE5:
 320              		.size	PWM_Left_ReadCounter, .-PWM_Left_ReadCounter
 321              		.section	.text.PWM_Left_ClearFIFO,"ax",%progbits
 322              		.align	2
 323              		.global	PWM_Left_ClearFIFO
 324              		.code	16
 325              		.thumb_func
 326              		.type	PWM_Left_ClearFIFO, %function
 327              	PWM_Left_ClearFIFO:
 328              	.LFB6:
 435:Generated_Source\PSoC4/PWM_Left.c **** 
 436:Generated_Source\PSoC4/PWM_Left.c ****     #if (PWM_Left_UseStatus)
 437:Generated_Source\PSoC4/PWM_Left.c **** 
 438:Generated_Source\PSoC4/PWM_Left.c **** 
 439:Generated_Source\PSoC4/PWM_Left.c ****         /*******************************************************************************
 440:Generated_Source\PSoC4/PWM_Left.c ****         * Function Name: PWM_Left_ClearFIFO
 441:Generated_Source\PSoC4/PWM_Left.c ****         ********************************************************************************
 442:Generated_Source\PSoC4/PWM_Left.c ****         *
 443:Generated_Source\PSoC4/PWM_Left.c ****         * Summary:
 444:Generated_Source\PSoC4/PWM_Left.c ****         *  This function clears all capture data from the capture FIFO
 445:Generated_Source\PSoC4/PWM_Left.c ****         *
 446:Generated_Source\PSoC4/PWM_Left.c ****         * Parameters:
 447:Generated_Source\PSoC4/PWM_Left.c ****         *  None
 448:Generated_Source\PSoC4/PWM_Left.c ****         *
 449:Generated_Source\PSoC4/PWM_Left.c ****         * Return:
 450:Generated_Source\PSoC4/PWM_Left.c ****         *  None
 451:Generated_Source\PSoC4/PWM_Left.c ****         *
 452:Generated_Source\PSoC4/PWM_Left.c ****         *******************************************************************************/
 453:Generated_Source\PSoC4/PWM_Left.c ****         void PWM_Left_ClearFIFO(void) 
 454:Generated_Source\PSoC4/PWM_Left.c ****         {
 329              		.loc 1 454 0
 330              		.cfi_startproc
 331              		@ args = 0, pretend = 0, frame = 0
 332              		@ frame_needed = 1, uses_anonymous_args = 0
 333 0000 80B5     		push	{r7, lr}
 334              		.cfi_def_cfa_offset 8
 335              		.cfi_offset 7, -8
 336              		.cfi_offset 14, -4
 337 0002 00AF     		add	r7, sp, #0
 338              		.cfi_def_cfa_register 7
 455:Generated_Source\PSoC4/PWM_Left.c ****             while(0u != (PWM_Left_ReadStatusRegister() & PWM_Left_STATUS_FIFONEMPTY))
 339              		.loc 1 455 0
 340 0004 01E0     		b	.L22
 341              	.L23:
 456:Generated_Source\PSoC4/PWM_Left.c ****             {
 457:Generated_Source\PSoC4/PWM_Left.c ****                 (void)PWM_Left_ReadCapture();
ARM GAS  C:\Users\jagumiel\AppData\Local\Temp\cc6m0Vht.s 			page 15


 342              		.loc 1 457 0
 343 0006 FFF7FEFF 		bl	PWM_Left_ReadCapture
 344              	.L22:
 455:Generated_Source\PSoC4/PWM_Left.c ****             while(0u != (PWM_Left_ReadStatusRegister() & PWM_Left_STATUS_FIFONEMPTY))
 345              		.loc 1 455 0
 346 000a FFF7FEFF 		bl	PWM_Left_ReadStatusRegister
 347 000e 0300     		movs	r3, r0
 348 0010 1A00     		movs	r2, r3
 349 0012 1023     		movs	r3, #16
 350 0014 1340     		ands	r3, r2
 351 0016 F6D1     		bne	.L23
 458:Generated_Source\PSoC4/PWM_Left.c ****             }
 459:Generated_Source\PSoC4/PWM_Left.c ****         }
 352              		.loc 1 459 0
 353 0018 C046     		nop
 354 001a BD46     		mov	sp, r7
 355              		@ sp needed
 356 001c 80BD     		pop	{r7, pc}
 357              		.cfi_endproc
 358              	.LFE6:
 359              		.size	PWM_Left_ClearFIFO, .-PWM_Left_ClearFIFO
 360 001e C046     		.section	.text.PWM_Left_WritePeriod,"ax",%progbits
 361              		.align	2
 362              		.global	PWM_Left_WritePeriod
 363              		.code	16
 364              		.thumb_func
 365              		.type	PWM_Left_WritePeriod, %function
 366              	PWM_Left_WritePeriod:
 367              	.LFB7:
 460:Generated_Source\PSoC4/PWM_Left.c **** 
 461:Generated_Source\PSoC4/PWM_Left.c ****     #endif /* PWM_Left_UseStatus */
 462:Generated_Source\PSoC4/PWM_Left.c **** 
 463:Generated_Source\PSoC4/PWM_Left.c **** #endif /* !PWM_Left_UsingFixedFunction */
 464:Generated_Source\PSoC4/PWM_Left.c **** 
 465:Generated_Source\PSoC4/PWM_Left.c **** 
 466:Generated_Source\PSoC4/PWM_Left.c **** /*******************************************************************************
 467:Generated_Source\PSoC4/PWM_Left.c **** * Function Name: PWM_Left_WritePeriod
 468:Generated_Source\PSoC4/PWM_Left.c **** ********************************************************************************
 469:Generated_Source\PSoC4/PWM_Left.c **** *
 470:Generated_Source\PSoC4/PWM_Left.c **** * Summary:
 471:Generated_Source\PSoC4/PWM_Left.c **** *  This function is used to change the period of the counter.  The new period
 472:Generated_Source\PSoC4/PWM_Left.c **** *  will be loaded the next time terminal count is detected.
 473:Generated_Source\PSoC4/PWM_Left.c **** *
 474:Generated_Source\PSoC4/PWM_Left.c **** * Parameters:
 475:Generated_Source\PSoC4/PWM_Left.c **** *  period:  Period value. May be between 1 and (2^Resolution)-1.  A value of 0
 476:Generated_Source\PSoC4/PWM_Left.c **** *           will result in the counter remaining at zero.
 477:Generated_Source\PSoC4/PWM_Left.c **** *
 478:Generated_Source\PSoC4/PWM_Left.c **** * Return:
 479:Generated_Source\PSoC4/PWM_Left.c **** *  None
 480:Generated_Source\PSoC4/PWM_Left.c **** *
 481:Generated_Source\PSoC4/PWM_Left.c **** *******************************************************************************/
 482:Generated_Source\PSoC4/PWM_Left.c **** void PWM_Left_WritePeriod(uint8 period) 
 483:Generated_Source\PSoC4/PWM_Left.c **** {
 368              		.loc 1 483 0
 369              		.cfi_startproc
 370              		@ args = 0, pretend = 0, frame = 8
 371              		@ frame_needed = 1, uses_anonymous_args = 0
ARM GAS  C:\Users\jagumiel\AppData\Local\Temp\cc6m0Vht.s 			page 16


 372 0000 80B5     		push	{r7, lr}
 373              		.cfi_def_cfa_offset 8
 374              		.cfi_offset 7, -8
 375              		.cfi_offset 14, -4
 376 0002 82B0     		sub	sp, sp, #8
 377              		.cfi_def_cfa_offset 16
 378 0004 00AF     		add	r7, sp, #0
 379              		.cfi_def_cfa_register 7
 380 0006 0200     		movs	r2, r0
 381 0008 FB1D     		adds	r3, r7, #7
 382 000a 1A70     		strb	r2, [r3]
 484:Generated_Source\PSoC4/PWM_Left.c ****     #if(PWM_Left_UsingFixedFunction)
 485:Generated_Source\PSoC4/PWM_Left.c ****         CY_SET_REG16(PWM_Left_PERIOD_LSB_PTR, (uint16)period);
 486:Generated_Source\PSoC4/PWM_Left.c ****     #else
 487:Generated_Source\PSoC4/PWM_Left.c ****         CY_SET_REG8(PWM_Left_PERIOD_LSB_PTR, period);
 383              		.loc 1 487 0
 384 000c 034A     		ldr	r2, .L25
 385 000e FB1D     		adds	r3, r7, #7
 386 0010 1B78     		ldrb	r3, [r3]
 387 0012 1370     		strb	r3, [r2]
 488:Generated_Source\PSoC4/PWM_Left.c ****     #endif /* (PWM_Left_UsingFixedFunction) */
 489:Generated_Source\PSoC4/PWM_Left.c **** }
 388              		.loc 1 489 0
 389 0014 C046     		nop
 390 0016 BD46     		mov	sp, r7
 391 0018 02B0     		add	sp, sp, #8
 392              		@ sp needed
 393 001a 80BD     		pop	{r7, pc}
 394              	.L26:
 395              		.align	2
 396              	.L25:
 397 001c 42000F40 		.word	1074724930
 398              		.cfi_endproc
 399              	.LFE7:
 400              		.size	PWM_Left_WritePeriod, .-PWM_Left_WritePeriod
 401              		.section	.text.PWM_Left_WriteCompare,"ax",%progbits
 402              		.align	2
 403              		.global	PWM_Left_WriteCompare
 404              		.code	16
 405              		.thumb_func
 406              		.type	PWM_Left_WriteCompare, %function
 407              	PWM_Left_WriteCompare:
 408              	.LFB8:
 490:Generated_Source\PSoC4/PWM_Left.c **** 
 491:Generated_Source\PSoC4/PWM_Left.c **** #if (PWM_Left_UseOneCompareMode)
 492:Generated_Source\PSoC4/PWM_Left.c **** 
 493:Generated_Source\PSoC4/PWM_Left.c **** 
 494:Generated_Source\PSoC4/PWM_Left.c ****     /*******************************************************************************
 495:Generated_Source\PSoC4/PWM_Left.c ****     * Function Name: PWM_Left_WriteCompare
 496:Generated_Source\PSoC4/PWM_Left.c ****     ********************************************************************************
 497:Generated_Source\PSoC4/PWM_Left.c ****     *
 498:Generated_Source\PSoC4/PWM_Left.c ****     * Summary:
 499:Generated_Source\PSoC4/PWM_Left.c ****     *  This funtion is used to change the compare1 value when the PWM is in Dither
 500:Generated_Source\PSoC4/PWM_Left.c ****     *  mode. The compare output will reflect the new value on the next UDB clock.
 501:Generated_Source\PSoC4/PWM_Left.c ****     *  The compare output will be driven high when the present counter value is
 502:Generated_Source\PSoC4/PWM_Left.c ****     *  compared to the compare value based on the compare mode defined in
 503:Generated_Source\PSoC4/PWM_Left.c ****     *  Dither Mode.
ARM GAS  C:\Users\jagumiel\AppData\Local\Temp\cc6m0Vht.s 			page 17


 504:Generated_Source\PSoC4/PWM_Left.c ****     *
 505:Generated_Source\PSoC4/PWM_Left.c ****     * Parameters:
 506:Generated_Source\PSoC4/PWM_Left.c ****     *  compare:  New compare value.
 507:Generated_Source\PSoC4/PWM_Left.c ****     *
 508:Generated_Source\PSoC4/PWM_Left.c ****     * Return:
 509:Generated_Source\PSoC4/PWM_Left.c ****     *  None
 510:Generated_Source\PSoC4/PWM_Left.c ****     *
 511:Generated_Source\PSoC4/PWM_Left.c ****     * Side Effects:
 512:Generated_Source\PSoC4/PWM_Left.c ****     *  This function is only available if the PWM mode parameter is set to
 513:Generated_Source\PSoC4/PWM_Left.c ****     *  Dither Mode, Center Aligned Mode or One Output Mode
 514:Generated_Source\PSoC4/PWM_Left.c ****     *
 515:Generated_Source\PSoC4/PWM_Left.c ****     *******************************************************************************/
 516:Generated_Source\PSoC4/PWM_Left.c ****     void PWM_Left_WriteCompare(uint8 compare) \
 517:Generated_Source\PSoC4/PWM_Left.c ****                                        
 518:Generated_Source\PSoC4/PWM_Left.c ****     {
 409              		.loc 1 518 0
 410              		.cfi_startproc
 411              		@ args = 0, pretend = 0, frame = 8
 412              		@ frame_needed = 1, uses_anonymous_args = 0
 413 0000 80B5     		push	{r7, lr}
 414              		.cfi_def_cfa_offset 8
 415              		.cfi_offset 7, -8
 416              		.cfi_offset 14, -4
 417 0002 82B0     		sub	sp, sp, #8
 418              		.cfi_def_cfa_offset 16
 419 0004 00AF     		add	r7, sp, #0
 420              		.cfi_def_cfa_register 7
 421 0006 0200     		movs	r2, r0
 422 0008 FB1D     		adds	r3, r7, #7
 423 000a 1A70     		strb	r2, [r3]
 519:Generated_Source\PSoC4/PWM_Left.c ****         #if(PWM_Left_UsingFixedFunction)
 520:Generated_Source\PSoC4/PWM_Left.c ****             CY_SET_REG16(PWM_Left_COMPARE1_LSB_PTR, (uint16)compare);
 521:Generated_Source\PSoC4/PWM_Left.c ****         #else
 522:Generated_Source\PSoC4/PWM_Left.c ****             CY_SET_REG8(PWM_Left_COMPARE1_LSB_PTR, compare);
 424              		.loc 1 522 0
 425 000c 034A     		ldr	r2, .L28
 426 000e FB1D     		adds	r3, r7, #7
 427 0010 1B78     		ldrb	r3, [r3]
 428 0012 1370     		strb	r3, [r2]
 523:Generated_Source\PSoC4/PWM_Left.c ****         #endif /* (PWM_Left_UsingFixedFunction) */
 524:Generated_Source\PSoC4/PWM_Left.c **** 
 525:Generated_Source\PSoC4/PWM_Left.c ****         #if (PWM_Left_PWMMode == PWM_Left__B_PWM__DITHER)
 526:Generated_Source\PSoC4/PWM_Left.c ****             #if(PWM_Left_UsingFixedFunction)
 527:Generated_Source\PSoC4/PWM_Left.c ****                 CY_SET_REG16(PWM_Left_COMPARE2_LSB_PTR, (uint16)(compare + 1u));
 528:Generated_Source\PSoC4/PWM_Left.c ****             #else
 529:Generated_Source\PSoC4/PWM_Left.c ****                 CY_SET_REG8(PWM_Left_COMPARE2_LSB_PTR, (compare + 1u));
 530:Generated_Source\PSoC4/PWM_Left.c ****             #endif /* (PWM_Left_UsingFixedFunction) */
 531:Generated_Source\PSoC4/PWM_Left.c ****         #endif /* (PWM_Left_PWMMode == PWM_Left__B_PWM__DITHER) */
 532:Generated_Source\PSoC4/PWM_Left.c ****     }
 429              		.loc 1 532 0
 430 0014 C046     		nop
 431 0016 BD46     		mov	sp, r7
 432 0018 02B0     		add	sp, sp, #8
 433              		@ sp needed
 434 001a 80BD     		pop	{r7, pc}
 435              	.L29:
 436              		.align	2
ARM GAS  C:\Users\jagumiel\AppData\Local\Temp\cc6m0Vht.s 			page 18


 437              	.L28:
 438 001c 22000F40 		.word	1074724898
 439              		.cfi_endproc
 440              	.LFE8:
 441              		.size	PWM_Left_WriteCompare, .-PWM_Left_WriteCompare
 442              		.section	.text.PWM_Left_SetInterruptMode,"ax",%progbits
 443              		.align	2
 444              		.global	PWM_Left_SetInterruptMode
 445              		.code	16
 446              		.thumb_func
 447              		.type	PWM_Left_SetInterruptMode, %function
 448              	PWM_Left_SetInterruptMode:
 449              	.LFB9:
 533:Generated_Source\PSoC4/PWM_Left.c **** 
 534:Generated_Source\PSoC4/PWM_Left.c **** 
 535:Generated_Source\PSoC4/PWM_Left.c **** #else
 536:Generated_Source\PSoC4/PWM_Left.c **** 
 537:Generated_Source\PSoC4/PWM_Left.c **** 
 538:Generated_Source\PSoC4/PWM_Left.c ****     /*******************************************************************************
 539:Generated_Source\PSoC4/PWM_Left.c ****     * Function Name: PWM_Left_WriteCompare1
 540:Generated_Source\PSoC4/PWM_Left.c ****     ********************************************************************************
 541:Generated_Source\PSoC4/PWM_Left.c ****     *
 542:Generated_Source\PSoC4/PWM_Left.c ****     * Summary:
 543:Generated_Source\PSoC4/PWM_Left.c ****     *  This funtion is used to change the compare1 value.  The compare output will
 544:Generated_Source\PSoC4/PWM_Left.c ****     *  reflect the new value on the next UDB clock.  The compare output will be
 545:Generated_Source\PSoC4/PWM_Left.c ****     *  driven high when the present counter value is less than or less than or
 546:Generated_Source\PSoC4/PWM_Left.c ****     *  equal to the compare register, depending on the mode.
 547:Generated_Source\PSoC4/PWM_Left.c ****     *
 548:Generated_Source\PSoC4/PWM_Left.c ****     * Parameters:
 549:Generated_Source\PSoC4/PWM_Left.c ****     *  compare:  New compare value.
 550:Generated_Source\PSoC4/PWM_Left.c ****     *
 551:Generated_Source\PSoC4/PWM_Left.c ****     * Return:
 552:Generated_Source\PSoC4/PWM_Left.c ****     *  None
 553:Generated_Source\PSoC4/PWM_Left.c ****     *
 554:Generated_Source\PSoC4/PWM_Left.c ****     *******************************************************************************/
 555:Generated_Source\PSoC4/PWM_Left.c ****     void PWM_Left_WriteCompare1(uint8 compare) \
 556:Generated_Source\PSoC4/PWM_Left.c ****                                         
 557:Generated_Source\PSoC4/PWM_Left.c ****     {
 558:Generated_Source\PSoC4/PWM_Left.c ****         #if(PWM_Left_UsingFixedFunction)
 559:Generated_Source\PSoC4/PWM_Left.c ****             CY_SET_REG16(PWM_Left_COMPARE1_LSB_PTR, (uint16)compare);
 560:Generated_Source\PSoC4/PWM_Left.c ****         #else
 561:Generated_Source\PSoC4/PWM_Left.c ****             CY_SET_REG8(PWM_Left_COMPARE1_LSB_PTR, compare);
 562:Generated_Source\PSoC4/PWM_Left.c ****         #endif /* (PWM_Left_UsingFixedFunction) */
 563:Generated_Source\PSoC4/PWM_Left.c ****     }
 564:Generated_Source\PSoC4/PWM_Left.c **** 
 565:Generated_Source\PSoC4/PWM_Left.c **** 
 566:Generated_Source\PSoC4/PWM_Left.c ****     /*******************************************************************************
 567:Generated_Source\PSoC4/PWM_Left.c ****     * Function Name: PWM_Left_WriteCompare2
 568:Generated_Source\PSoC4/PWM_Left.c ****     ********************************************************************************
 569:Generated_Source\PSoC4/PWM_Left.c ****     *
 570:Generated_Source\PSoC4/PWM_Left.c ****     * Summary:
 571:Generated_Source\PSoC4/PWM_Left.c ****     *  This funtion is used to change the compare value, for compare1 output.
 572:Generated_Source\PSoC4/PWM_Left.c ****     *  The compare output will reflect the new value on the next UDB clock.
 573:Generated_Source\PSoC4/PWM_Left.c ****     *  The compare output will be driven high when the present counter value is
 574:Generated_Source\PSoC4/PWM_Left.c ****     *  less than or less than or equal to the compare register, depending on the
 575:Generated_Source\PSoC4/PWM_Left.c ****     *  mode.
 576:Generated_Source\PSoC4/PWM_Left.c ****     *
ARM GAS  C:\Users\jagumiel\AppData\Local\Temp\cc6m0Vht.s 			page 19


 577:Generated_Source\PSoC4/PWM_Left.c ****     * Parameters:
 578:Generated_Source\PSoC4/PWM_Left.c ****     *  compare:  New compare value.
 579:Generated_Source\PSoC4/PWM_Left.c ****     *
 580:Generated_Source\PSoC4/PWM_Left.c ****     * Return:
 581:Generated_Source\PSoC4/PWM_Left.c ****     *  None
 582:Generated_Source\PSoC4/PWM_Left.c ****     *
 583:Generated_Source\PSoC4/PWM_Left.c ****     *******************************************************************************/
 584:Generated_Source\PSoC4/PWM_Left.c ****     void PWM_Left_WriteCompare2(uint8 compare) \
 585:Generated_Source\PSoC4/PWM_Left.c ****                                         
 586:Generated_Source\PSoC4/PWM_Left.c ****     {
 587:Generated_Source\PSoC4/PWM_Left.c ****         #if(PWM_Left_UsingFixedFunction)
 588:Generated_Source\PSoC4/PWM_Left.c ****             CY_SET_REG16(PWM_Left_COMPARE2_LSB_PTR, compare);
 589:Generated_Source\PSoC4/PWM_Left.c ****         #else
 590:Generated_Source\PSoC4/PWM_Left.c ****             CY_SET_REG8(PWM_Left_COMPARE2_LSB_PTR, compare);
 591:Generated_Source\PSoC4/PWM_Left.c ****         #endif /* (PWM_Left_UsingFixedFunction) */
 592:Generated_Source\PSoC4/PWM_Left.c ****     }
 593:Generated_Source\PSoC4/PWM_Left.c **** #endif /* UseOneCompareMode */
 594:Generated_Source\PSoC4/PWM_Left.c **** 
 595:Generated_Source\PSoC4/PWM_Left.c **** #if (PWM_Left_DeadBandUsed)
 596:Generated_Source\PSoC4/PWM_Left.c **** 
 597:Generated_Source\PSoC4/PWM_Left.c **** 
 598:Generated_Source\PSoC4/PWM_Left.c ****     /*******************************************************************************
 599:Generated_Source\PSoC4/PWM_Left.c ****     * Function Name: PWM_Left_WriteDeadTime
 600:Generated_Source\PSoC4/PWM_Left.c ****     ********************************************************************************
 601:Generated_Source\PSoC4/PWM_Left.c ****     *
 602:Generated_Source\PSoC4/PWM_Left.c ****     * Summary:
 603:Generated_Source\PSoC4/PWM_Left.c ****     *  This function writes the dead-band counts to the corresponding register
 604:Generated_Source\PSoC4/PWM_Left.c ****     *
 605:Generated_Source\PSoC4/PWM_Left.c ****     * Parameters:
 606:Generated_Source\PSoC4/PWM_Left.c ****     *  deadtime:  Number of counts for dead time
 607:Generated_Source\PSoC4/PWM_Left.c ****     *
 608:Generated_Source\PSoC4/PWM_Left.c ****     * Return:
 609:Generated_Source\PSoC4/PWM_Left.c ****     *  None
 610:Generated_Source\PSoC4/PWM_Left.c ****     *
 611:Generated_Source\PSoC4/PWM_Left.c ****     *******************************************************************************/
 612:Generated_Source\PSoC4/PWM_Left.c ****     void PWM_Left_WriteDeadTime(uint8 deadtime) 
 613:Generated_Source\PSoC4/PWM_Left.c ****     {
 614:Generated_Source\PSoC4/PWM_Left.c ****         /* If using the Dead Band 1-255 mode then just write the register */
 615:Generated_Source\PSoC4/PWM_Left.c ****         #if(!PWM_Left_DeadBand2_4)
 616:Generated_Source\PSoC4/PWM_Left.c ****             CY_SET_REG8(PWM_Left_DEADBAND_COUNT_PTR, deadtime);
 617:Generated_Source\PSoC4/PWM_Left.c ****         #else
 618:Generated_Source\PSoC4/PWM_Left.c ****             /* Otherwise the data has to be masked and offset */
 619:Generated_Source\PSoC4/PWM_Left.c ****             /* Clear existing data */
 620:Generated_Source\PSoC4/PWM_Left.c ****             PWM_Left_DEADBAND_COUNT &= ((uint8)(~PWM_Left_DEADBAND_COUNT_MASK));
 621:Generated_Source\PSoC4/PWM_Left.c **** 
 622:Generated_Source\PSoC4/PWM_Left.c ****             /* Set new dead time */
 623:Generated_Source\PSoC4/PWM_Left.c ****             #if(PWM_Left_DEADBAND_COUNT_SHIFT)
 624:Generated_Source\PSoC4/PWM_Left.c ****                 PWM_Left_DEADBAND_COUNT |= ((uint8)((uint8)deadtime << PWM_Left_DEADBAND_COUNT_SHIF
 625:Generated_Source\PSoC4/PWM_Left.c ****                                                     PWM_Left_DEADBAND_COUNT_MASK;
 626:Generated_Source\PSoC4/PWM_Left.c ****             #else
 627:Generated_Source\PSoC4/PWM_Left.c ****                 PWM_Left_DEADBAND_COUNT |= deadtime & PWM_Left_DEADBAND_COUNT_MASK;
 628:Generated_Source\PSoC4/PWM_Left.c ****             #endif /* (PWM_Left_DEADBAND_COUNT_SHIFT) */
 629:Generated_Source\PSoC4/PWM_Left.c **** 
 630:Generated_Source\PSoC4/PWM_Left.c ****         #endif /* (!PWM_Left_DeadBand2_4) */
 631:Generated_Source\PSoC4/PWM_Left.c ****     }
 632:Generated_Source\PSoC4/PWM_Left.c **** 
 633:Generated_Source\PSoC4/PWM_Left.c **** 
ARM GAS  C:\Users\jagumiel\AppData\Local\Temp\cc6m0Vht.s 			page 20


 634:Generated_Source\PSoC4/PWM_Left.c ****     /*******************************************************************************
 635:Generated_Source\PSoC4/PWM_Left.c ****     * Function Name: PWM_Left_ReadDeadTime
 636:Generated_Source\PSoC4/PWM_Left.c ****     ********************************************************************************
 637:Generated_Source\PSoC4/PWM_Left.c ****     *
 638:Generated_Source\PSoC4/PWM_Left.c ****     * Summary:
 639:Generated_Source\PSoC4/PWM_Left.c ****     *  This function reads the dead-band counts from the corresponding register
 640:Generated_Source\PSoC4/PWM_Left.c ****     *
 641:Generated_Source\PSoC4/PWM_Left.c ****     * Parameters:
 642:Generated_Source\PSoC4/PWM_Left.c ****     *  None
 643:Generated_Source\PSoC4/PWM_Left.c ****     *
 644:Generated_Source\PSoC4/PWM_Left.c ****     * Return:
 645:Generated_Source\PSoC4/PWM_Left.c ****     *  Dead Band Counts
 646:Generated_Source\PSoC4/PWM_Left.c ****     *
 647:Generated_Source\PSoC4/PWM_Left.c ****     *******************************************************************************/
 648:Generated_Source\PSoC4/PWM_Left.c ****     uint8 PWM_Left_ReadDeadTime(void) 
 649:Generated_Source\PSoC4/PWM_Left.c ****     {
 650:Generated_Source\PSoC4/PWM_Left.c ****         /* If using the Dead Band 1-255 mode then just read the register */
 651:Generated_Source\PSoC4/PWM_Left.c ****         #if(!PWM_Left_DeadBand2_4)
 652:Generated_Source\PSoC4/PWM_Left.c ****             return (CY_GET_REG8(PWM_Left_DEADBAND_COUNT_PTR));
 653:Generated_Source\PSoC4/PWM_Left.c ****         #else
 654:Generated_Source\PSoC4/PWM_Left.c **** 
 655:Generated_Source\PSoC4/PWM_Left.c ****             /* Otherwise the data has to be masked and offset */
 656:Generated_Source\PSoC4/PWM_Left.c ****             #if(PWM_Left_DEADBAND_COUNT_SHIFT)
 657:Generated_Source\PSoC4/PWM_Left.c ****                 return ((uint8)(((uint8)(PWM_Left_DEADBAND_COUNT & PWM_Left_DEADBAND_COUNT_MASK)) >
 658:Generated_Source\PSoC4/PWM_Left.c ****                                                                            PWM_Left_DEADBAND_COUNT_
 659:Generated_Source\PSoC4/PWM_Left.c ****             #else
 660:Generated_Source\PSoC4/PWM_Left.c ****                 return (PWM_Left_DEADBAND_COUNT & PWM_Left_DEADBAND_COUNT_MASK);
 661:Generated_Source\PSoC4/PWM_Left.c ****             #endif /* (PWM_Left_DEADBAND_COUNT_SHIFT) */
 662:Generated_Source\PSoC4/PWM_Left.c ****         #endif /* (!PWM_Left_DeadBand2_4) */
 663:Generated_Source\PSoC4/PWM_Left.c ****     }
 664:Generated_Source\PSoC4/PWM_Left.c **** #endif /* DeadBandUsed */
 665:Generated_Source\PSoC4/PWM_Left.c **** 
 666:Generated_Source\PSoC4/PWM_Left.c **** #if (PWM_Left_UseStatus || PWM_Left_UsingFixedFunction)
 667:Generated_Source\PSoC4/PWM_Left.c **** 
 668:Generated_Source\PSoC4/PWM_Left.c **** 
 669:Generated_Source\PSoC4/PWM_Left.c ****     /*******************************************************************************
 670:Generated_Source\PSoC4/PWM_Left.c ****     * Function Name: PWM_Left_SetInterruptMode
 671:Generated_Source\PSoC4/PWM_Left.c ****     ********************************************************************************
 672:Generated_Source\PSoC4/PWM_Left.c ****     *
 673:Generated_Source\PSoC4/PWM_Left.c ****     * Summary:
 674:Generated_Source\PSoC4/PWM_Left.c ****     *  This function configures the interrupts mask control of theinterrupt
 675:Generated_Source\PSoC4/PWM_Left.c ****     *  source status register.
 676:Generated_Source\PSoC4/PWM_Left.c ****     *
 677:Generated_Source\PSoC4/PWM_Left.c ****     * Parameters:
 678:Generated_Source\PSoC4/PWM_Left.c ****     *  uint8 interruptMode: Bit field containing the interrupt sources enabled
 679:Generated_Source\PSoC4/PWM_Left.c ****     *
 680:Generated_Source\PSoC4/PWM_Left.c ****     * Return:
 681:Generated_Source\PSoC4/PWM_Left.c ****     *  None
 682:Generated_Source\PSoC4/PWM_Left.c ****     *
 683:Generated_Source\PSoC4/PWM_Left.c ****     *******************************************************************************/
 684:Generated_Source\PSoC4/PWM_Left.c ****     void PWM_Left_SetInterruptMode(uint8 interruptMode) 
 685:Generated_Source\PSoC4/PWM_Left.c ****     {
 450              		.loc 1 685 0
 451              		.cfi_startproc
 452              		@ args = 0, pretend = 0, frame = 8
 453              		@ frame_needed = 1, uses_anonymous_args = 0
 454 0000 80B5     		push	{r7, lr}
ARM GAS  C:\Users\jagumiel\AppData\Local\Temp\cc6m0Vht.s 			page 21


 455              		.cfi_def_cfa_offset 8
 456              		.cfi_offset 7, -8
 457              		.cfi_offset 14, -4
 458 0002 82B0     		sub	sp, sp, #8
 459              		.cfi_def_cfa_offset 16
 460 0004 00AF     		add	r7, sp, #0
 461              		.cfi_def_cfa_register 7
 462 0006 0200     		movs	r2, r0
 463 0008 FB1D     		adds	r3, r7, #7
 464 000a 1A70     		strb	r2, [r3]
 686:Generated_Source\PSoC4/PWM_Left.c ****         CY_SET_REG8(PWM_Left_STATUS_MASK_PTR, interruptMode);
 465              		.loc 1 686 0
 466 000c 034A     		ldr	r2, .L31
 467 000e FB1D     		adds	r3, r7, #7
 468 0010 1B78     		ldrb	r3, [r3]
 469 0012 1370     		strb	r3, [r2]
 687:Generated_Source\PSoC4/PWM_Left.c ****     }
 470              		.loc 1 687 0
 471 0014 C046     		nop
 472 0016 BD46     		mov	sp, r7
 473 0018 02B0     		add	sp, sp, #8
 474              		@ sp needed
 475 001a 80BD     		pop	{r7, pc}
 476              	.L32:
 477              		.align	2
 478              	.L31:
 479 001c 82000F40 		.word	1074724994
 480              		.cfi_endproc
 481              	.LFE9:
 482              		.size	PWM_Left_SetInterruptMode, .-PWM_Left_SetInterruptMode
 483              		.section	.text.PWM_Left_ReadStatusRegister,"ax",%progbits
 484              		.align	2
 485              		.global	PWM_Left_ReadStatusRegister
 486              		.code	16
 487              		.thumb_func
 488              		.type	PWM_Left_ReadStatusRegister, %function
 489              	PWM_Left_ReadStatusRegister:
 490              	.LFB10:
 688:Generated_Source\PSoC4/PWM_Left.c **** 
 689:Generated_Source\PSoC4/PWM_Left.c **** 
 690:Generated_Source\PSoC4/PWM_Left.c ****     /*******************************************************************************
 691:Generated_Source\PSoC4/PWM_Left.c ****     * Function Name: PWM_Left_ReadStatusRegister
 692:Generated_Source\PSoC4/PWM_Left.c ****     ********************************************************************************
 693:Generated_Source\PSoC4/PWM_Left.c ****     *
 694:Generated_Source\PSoC4/PWM_Left.c ****     * Summary:
 695:Generated_Source\PSoC4/PWM_Left.c ****     *  This function returns the current state of the status register.
 696:Generated_Source\PSoC4/PWM_Left.c ****     *
 697:Generated_Source\PSoC4/PWM_Left.c ****     * Parameters:
 698:Generated_Source\PSoC4/PWM_Left.c ****     *  None
 699:Generated_Source\PSoC4/PWM_Left.c ****     *
 700:Generated_Source\PSoC4/PWM_Left.c ****     * Return:
 701:Generated_Source\PSoC4/PWM_Left.c ****     *  uint8 : Current status register value. The status register bits are:
 702:Generated_Source\PSoC4/PWM_Left.c ****     *  [7:6] : Unused(0)
 703:Generated_Source\PSoC4/PWM_Left.c ****     *  [5]   : Kill event output
 704:Generated_Source\PSoC4/PWM_Left.c ****     *  [4]   : FIFO not empty
 705:Generated_Source\PSoC4/PWM_Left.c ****     *  [3]   : FIFO full
 706:Generated_Source\PSoC4/PWM_Left.c ****     *  [2]   : Terminal count
ARM GAS  C:\Users\jagumiel\AppData\Local\Temp\cc6m0Vht.s 			page 22


 707:Generated_Source\PSoC4/PWM_Left.c ****     *  [1]   : Compare output 2
 708:Generated_Source\PSoC4/PWM_Left.c ****     *  [0]   : Compare output 1
 709:Generated_Source\PSoC4/PWM_Left.c ****     *
 710:Generated_Source\PSoC4/PWM_Left.c ****     *******************************************************************************/
 711:Generated_Source\PSoC4/PWM_Left.c ****     uint8 PWM_Left_ReadStatusRegister(void) 
 712:Generated_Source\PSoC4/PWM_Left.c ****     {
 491              		.loc 1 712 0
 492              		.cfi_startproc
 493              		@ args = 0, pretend = 0, frame = 0
 494              		@ frame_needed = 1, uses_anonymous_args = 0
 495 0000 80B5     		push	{r7, lr}
 496              		.cfi_def_cfa_offset 8
 497              		.cfi_offset 7, -8
 498              		.cfi_offset 14, -4
 499 0002 00AF     		add	r7, sp, #0
 500              		.cfi_def_cfa_register 7
 713:Generated_Source\PSoC4/PWM_Left.c ****         return (CY_GET_REG8(PWM_Left_STATUS_PTR));
 501              		.loc 1 713 0
 502 0004 024B     		ldr	r3, .L35
 503 0006 1B78     		ldrb	r3, [r3]
 504 0008 DBB2     		uxtb	r3, r3
 714:Generated_Source\PSoC4/PWM_Left.c ****     }
 505              		.loc 1 714 0
 506 000a 1800     		movs	r0, r3
 507 000c BD46     		mov	sp, r7
 508              		@ sp needed
 509 000e 80BD     		pop	{r7, pc}
 510              	.L36:
 511              		.align	2
 512              	.L35:
 513 0010 62000F40 		.word	1074724962
 514              		.cfi_endproc
 515              	.LFE10:
 516              		.size	PWM_Left_ReadStatusRegister, .-PWM_Left_ReadStatusRegister
 517              		.section	.text.PWM_Left_ReadControlRegister,"ax",%progbits
 518              		.align	2
 519              		.global	PWM_Left_ReadControlRegister
 520              		.code	16
 521              		.thumb_func
 522              		.type	PWM_Left_ReadControlRegister, %function
 523              	PWM_Left_ReadControlRegister:
 524              	.LFB11:
 715:Generated_Source\PSoC4/PWM_Left.c **** 
 716:Generated_Source\PSoC4/PWM_Left.c **** #endif /* (PWM_Left_UseStatus || PWM_Left_UsingFixedFunction) */
 717:Generated_Source\PSoC4/PWM_Left.c **** 
 718:Generated_Source\PSoC4/PWM_Left.c **** 
 719:Generated_Source\PSoC4/PWM_Left.c **** #if (PWM_Left_UseControl)
 720:Generated_Source\PSoC4/PWM_Left.c **** 
 721:Generated_Source\PSoC4/PWM_Left.c **** 
 722:Generated_Source\PSoC4/PWM_Left.c ****     /*******************************************************************************
 723:Generated_Source\PSoC4/PWM_Left.c ****     * Function Name: PWM_Left_ReadControlRegister
 724:Generated_Source\PSoC4/PWM_Left.c ****     ********************************************************************************
 725:Generated_Source\PSoC4/PWM_Left.c ****     *
 726:Generated_Source\PSoC4/PWM_Left.c ****     * Summary:
 727:Generated_Source\PSoC4/PWM_Left.c ****     *  Returns the current state of the control register. This API is available
 728:Generated_Source\PSoC4/PWM_Left.c ****     *  only if the control register is not removed.
 729:Generated_Source\PSoC4/PWM_Left.c ****     *
ARM GAS  C:\Users\jagumiel\AppData\Local\Temp\cc6m0Vht.s 			page 23


 730:Generated_Source\PSoC4/PWM_Left.c ****     * Parameters:
 731:Generated_Source\PSoC4/PWM_Left.c ****     *  None
 732:Generated_Source\PSoC4/PWM_Left.c ****     *
 733:Generated_Source\PSoC4/PWM_Left.c ****     * Return:
 734:Generated_Source\PSoC4/PWM_Left.c ****     *  uint8 : Current control register value
 735:Generated_Source\PSoC4/PWM_Left.c ****     *
 736:Generated_Source\PSoC4/PWM_Left.c ****     *******************************************************************************/
 737:Generated_Source\PSoC4/PWM_Left.c ****     uint8 PWM_Left_ReadControlRegister(void) 
 738:Generated_Source\PSoC4/PWM_Left.c ****     {
 525              		.loc 1 738 0
 526              		.cfi_startproc
 527              		@ args = 0, pretend = 0, frame = 8
 528              		@ frame_needed = 1, uses_anonymous_args = 0
 529 0000 80B5     		push	{r7, lr}
 530              		.cfi_def_cfa_offset 8
 531              		.cfi_offset 7, -8
 532              		.cfi_offset 14, -4
 533 0002 82B0     		sub	sp, sp, #8
 534              		.cfi_def_cfa_offset 16
 535 0004 00AF     		add	r7, sp, #0
 536              		.cfi_def_cfa_register 7
 739:Generated_Source\PSoC4/PWM_Left.c ****         uint8 result;
 740:Generated_Source\PSoC4/PWM_Left.c **** 
 741:Generated_Source\PSoC4/PWM_Left.c ****         result = CY_GET_REG8(PWM_Left_CONTROL_PTR);
 537              		.loc 1 741 0
 538 0006 054A     		ldr	r2, .L39
 539 0008 FB1D     		adds	r3, r7, #7
 540 000a 1278     		ldrb	r2, [r2]
 541 000c 1A70     		strb	r2, [r3]
 742:Generated_Source\PSoC4/PWM_Left.c ****         return (result);
 542              		.loc 1 742 0
 543 000e FB1D     		adds	r3, r7, #7
 544 0010 1B78     		ldrb	r3, [r3]
 743:Generated_Source\PSoC4/PWM_Left.c ****     }
 545              		.loc 1 743 0
 546 0012 1800     		movs	r0, r3
 547 0014 BD46     		mov	sp, r7
 548 0016 02B0     		add	sp, sp, #8
 549              		@ sp needed
 550 0018 80BD     		pop	{r7, pc}
 551              	.L40:
 552 001a C046     		.align	2
 553              	.L39:
 554 001c 72000F40 		.word	1074724978
 555              		.cfi_endproc
 556              	.LFE11:
 557              		.size	PWM_Left_ReadControlRegister, .-PWM_Left_ReadControlRegister
 558              		.section	.text.PWM_Left_WriteControlRegister,"ax",%progbits
 559              		.align	2
 560              		.global	PWM_Left_WriteControlRegister
 561              		.code	16
 562              		.thumb_func
 563              		.type	PWM_Left_WriteControlRegister, %function
 564              	PWM_Left_WriteControlRegister:
 565              	.LFB12:
 744:Generated_Source\PSoC4/PWM_Left.c **** 
 745:Generated_Source\PSoC4/PWM_Left.c **** 
ARM GAS  C:\Users\jagumiel\AppData\Local\Temp\cc6m0Vht.s 			page 24


 746:Generated_Source\PSoC4/PWM_Left.c ****     /*******************************************************************************
 747:Generated_Source\PSoC4/PWM_Left.c ****     * Function Name: PWM_Left_WriteControlRegister
 748:Generated_Source\PSoC4/PWM_Left.c ****     ********************************************************************************
 749:Generated_Source\PSoC4/PWM_Left.c ****     *
 750:Generated_Source\PSoC4/PWM_Left.c ****     * Summary:
 751:Generated_Source\PSoC4/PWM_Left.c ****     *  Sets the bit field of the control register. This API is available only if
 752:Generated_Source\PSoC4/PWM_Left.c ****     *  the control register is not removed.
 753:Generated_Source\PSoC4/PWM_Left.c ****     *
 754:Generated_Source\PSoC4/PWM_Left.c ****     * Parameters:
 755:Generated_Source\PSoC4/PWM_Left.c ****     *  uint8 control: Control register bit field, The status register bits are:
 756:Generated_Source\PSoC4/PWM_Left.c ****     *  [7]   : PWM Enable
 757:Generated_Source\PSoC4/PWM_Left.c ****     *  [6]   : Reset
 758:Generated_Source\PSoC4/PWM_Left.c ****     *  [5:3] : Compare Mode2
 759:Generated_Source\PSoC4/PWM_Left.c ****     *  [2:0] : Compare Mode2
 760:Generated_Source\PSoC4/PWM_Left.c ****     *
 761:Generated_Source\PSoC4/PWM_Left.c ****     * Return:
 762:Generated_Source\PSoC4/PWM_Left.c ****     *  None
 763:Generated_Source\PSoC4/PWM_Left.c ****     *
 764:Generated_Source\PSoC4/PWM_Left.c ****     *******************************************************************************/
 765:Generated_Source\PSoC4/PWM_Left.c ****     void PWM_Left_WriteControlRegister(uint8 control) 
 766:Generated_Source\PSoC4/PWM_Left.c ****     {
 566              		.loc 1 766 0
 567              		.cfi_startproc
 568              		@ args = 0, pretend = 0, frame = 8
 569              		@ frame_needed = 1, uses_anonymous_args = 0
 570 0000 80B5     		push	{r7, lr}
 571              		.cfi_def_cfa_offset 8
 572              		.cfi_offset 7, -8
 573              		.cfi_offset 14, -4
 574 0002 82B0     		sub	sp, sp, #8
 575              		.cfi_def_cfa_offset 16
 576 0004 00AF     		add	r7, sp, #0
 577              		.cfi_def_cfa_register 7
 578 0006 0200     		movs	r2, r0
 579 0008 FB1D     		adds	r3, r7, #7
 580 000a 1A70     		strb	r2, [r3]
 767:Generated_Source\PSoC4/PWM_Left.c ****         CY_SET_REG8(PWM_Left_CONTROL_PTR, control);
 581              		.loc 1 767 0
 582 000c 034A     		ldr	r2, .L42
 583 000e FB1D     		adds	r3, r7, #7
 584 0010 1B78     		ldrb	r3, [r3]
 585 0012 1370     		strb	r3, [r2]
 768:Generated_Source\PSoC4/PWM_Left.c ****     }
 586              		.loc 1 768 0
 587 0014 C046     		nop
 588 0016 BD46     		mov	sp, r7
 589 0018 02B0     		add	sp, sp, #8
 590              		@ sp needed
 591 001a 80BD     		pop	{r7, pc}
 592              	.L43:
 593              		.align	2
 594              	.L42:
 595 001c 72000F40 		.word	1074724978
 596              		.cfi_endproc
 597              	.LFE12:
 598              		.size	PWM_Left_WriteControlRegister, .-PWM_Left_WriteControlRegister
 599              		.section	.text.PWM_Left_ReadCapture,"ax",%progbits
ARM GAS  C:\Users\jagumiel\AppData\Local\Temp\cc6m0Vht.s 			page 25


 600              		.align	2
 601              		.global	PWM_Left_ReadCapture
 602              		.code	16
 603              		.thumb_func
 604              		.type	PWM_Left_ReadCapture, %function
 605              	PWM_Left_ReadCapture:
 606              	.LFB13:
 769:Generated_Source\PSoC4/PWM_Left.c **** 
 770:Generated_Source\PSoC4/PWM_Left.c **** #endif /* (PWM_Left_UseControl) */
 771:Generated_Source\PSoC4/PWM_Left.c **** 
 772:Generated_Source\PSoC4/PWM_Left.c **** 
 773:Generated_Source\PSoC4/PWM_Left.c **** #if (!PWM_Left_UsingFixedFunction)
 774:Generated_Source\PSoC4/PWM_Left.c **** 
 775:Generated_Source\PSoC4/PWM_Left.c **** 
 776:Generated_Source\PSoC4/PWM_Left.c ****     /*******************************************************************************
 777:Generated_Source\PSoC4/PWM_Left.c ****     * Function Name: PWM_Left_ReadCapture
 778:Generated_Source\PSoC4/PWM_Left.c ****     ********************************************************************************
 779:Generated_Source\PSoC4/PWM_Left.c ****     *
 780:Generated_Source\PSoC4/PWM_Left.c ****     * Summary:
 781:Generated_Source\PSoC4/PWM_Left.c ****     *  Reads the capture value from the capture FIFO.
 782:Generated_Source\PSoC4/PWM_Left.c ****     *
 783:Generated_Source\PSoC4/PWM_Left.c ****     * Parameters:
 784:Generated_Source\PSoC4/PWM_Left.c ****     *  None
 785:Generated_Source\PSoC4/PWM_Left.c ****     *
 786:Generated_Source\PSoC4/PWM_Left.c ****     * Return:
 787:Generated_Source\PSoC4/PWM_Left.c ****     *  uint8/uint16: The current capture value
 788:Generated_Source\PSoC4/PWM_Left.c ****     *
 789:Generated_Source\PSoC4/PWM_Left.c ****     *******************************************************************************/
 790:Generated_Source\PSoC4/PWM_Left.c ****     uint8 PWM_Left_ReadCapture(void) 
 791:Generated_Source\PSoC4/PWM_Left.c ****     {
 607              		.loc 1 791 0
 608              		.cfi_startproc
 609              		@ args = 0, pretend = 0, frame = 0
 610              		@ frame_needed = 1, uses_anonymous_args = 0
 611 0000 80B5     		push	{r7, lr}
 612              		.cfi_def_cfa_offset 8
 613              		.cfi_offset 7, -8
 614              		.cfi_offset 14, -4
 615 0002 00AF     		add	r7, sp, #0
 616              		.cfi_def_cfa_register 7
 792:Generated_Source\PSoC4/PWM_Left.c ****         return (CY_GET_REG8(PWM_Left_CAPTURE_LSB_PTR));
 617              		.loc 1 792 0
 618 0004 024B     		ldr	r3, .L46
 619 0006 1B78     		ldrb	r3, [r3]
 620 0008 DBB2     		uxtb	r3, r3
 793:Generated_Source\PSoC4/PWM_Left.c ****     }
 621              		.loc 1 793 0
 622 000a 1800     		movs	r0, r3
 623 000c BD46     		mov	sp, r7
 624              		@ sp needed
 625 000e 80BD     		pop	{r7, pc}
 626              	.L47:
 627              		.align	2
 628              	.L46:
 629 0010 52000F40 		.word	1074724946
 630              		.cfi_endproc
 631              	.LFE13:
ARM GAS  C:\Users\jagumiel\AppData\Local\Temp\cc6m0Vht.s 			page 26


 632              		.size	PWM_Left_ReadCapture, .-PWM_Left_ReadCapture
 633              		.section	.text.PWM_Left_ReadCompare,"ax",%progbits
 634              		.align	2
 635              		.global	PWM_Left_ReadCompare
 636              		.code	16
 637              		.thumb_func
 638              		.type	PWM_Left_ReadCompare, %function
 639              	PWM_Left_ReadCompare:
 640              	.LFB14:
 794:Generated_Source\PSoC4/PWM_Left.c **** 
 795:Generated_Source\PSoC4/PWM_Left.c **** #endif /* (!PWM_Left_UsingFixedFunction) */
 796:Generated_Source\PSoC4/PWM_Left.c **** 
 797:Generated_Source\PSoC4/PWM_Left.c **** 
 798:Generated_Source\PSoC4/PWM_Left.c **** #if (PWM_Left_UseOneCompareMode)
 799:Generated_Source\PSoC4/PWM_Left.c **** 
 800:Generated_Source\PSoC4/PWM_Left.c **** 
 801:Generated_Source\PSoC4/PWM_Left.c ****     /*******************************************************************************
 802:Generated_Source\PSoC4/PWM_Left.c ****     * Function Name: PWM_Left_ReadCompare
 803:Generated_Source\PSoC4/PWM_Left.c ****     ********************************************************************************
 804:Generated_Source\PSoC4/PWM_Left.c ****     *
 805:Generated_Source\PSoC4/PWM_Left.c ****     * Summary:
 806:Generated_Source\PSoC4/PWM_Left.c ****     *  Reads the compare value for the compare output when the PWM Mode parameter is
 807:Generated_Source\PSoC4/PWM_Left.c ****     *  set to Dither mode, Center Aligned mode, or One Output mode.
 808:Generated_Source\PSoC4/PWM_Left.c ****     *
 809:Generated_Source\PSoC4/PWM_Left.c ****     * Parameters:
 810:Generated_Source\PSoC4/PWM_Left.c ****     *  None
 811:Generated_Source\PSoC4/PWM_Left.c ****     *
 812:Generated_Source\PSoC4/PWM_Left.c ****     * Return:
 813:Generated_Source\PSoC4/PWM_Left.c ****     *  uint8/uint16: Current compare value
 814:Generated_Source\PSoC4/PWM_Left.c ****     *
 815:Generated_Source\PSoC4/PWM_Left.c ****     *******************************************************************************/
 816:Generated_Source\PSoC4/PWM_Left.c ****     uint8 PWM_Left_ReadCompare(void) 
 817:Generated_Source\PSoC4/PWM_Left.c ****     {
 641              		.loc 1 817 0
 642              		.cfi_startproc
 643              		@ args = 0, pretend = 0, frame = 0
 644              		@ frame_needed = 1, uses_anonymous_args = 0
 645 0000 80B5     		push	{r7, lr}
 646              		.cfi_def_cfa_offset 8
 647              		.cfi_offset 7, -8
 648              		.cfi_offset 14, -4
 649 0002 00AF     		add	r7, sp, #0
 650              		.cfi_def_cfa_register 7
 818:Generated_Source\PSoC4/PWM_Left.c ****         #if(PWM_Left_UsingFixedFunction)
 819:Generated_Source\PSoC4/PWM_Left.c ****             return ((uint8)CY_GET_REG16(PWM_Left_COMPARE1_LSB_PTR));
 820:Generated_Source\PSoC4/PWM_Left.c ****         #else
 821:Generated_Source\PSoC4/PWM_Left.c ****             return (CY_GET_REG8(PWM_Left_COMPARE1_LSB_PTR));
 651              		.loc 1 821 0
 652 0004 024B     		ldr	r3, .L50
 653 0006 1B78     		ldrb	r3, [r3]
 654 0008 DBB2     		uxtb	r3, r3
 822:Generated_Source\PSoC4/PWM_Left.c ****         #endif /* (PWM_Left_UsingFixedFunction) */
 823:Generated_Source\PSoC4/PWM_Left.c ****     }
 655              		.loc 1 823 0
 656 000a 1800     		movs	r0, r3
 657 000c BD46     		mov	sp, r7
 658              		@ sp needed
ARM GAS  C:\Users\jagumiel\AppData\Local\Temp\cc6m0Vht.s 			page 27


 659 000e 80BD     		pop	{r7, pc}
 660              	.L51:
 661              		.align	2
 662              	.L50:
 663 0010 22000F40 		.word	1074724898
 664              		.cfi_endproc
 665              	.LFE14:
 666              		.size	PWM_Left_ReadCompare, .-PWM_Left_ReadCompare
 667              		.section	.text.PWM_Left_ReadPeriod,"ax",%progbits
 668              		.align	2
 669              		.global	PWM_Left_ReadPeriod
 670              		.code	16
 671              		.thumb_func
 672              		.type	PWM_Left_ReadPeriod, %function
 673              	PWM_Left_ReadPeriod:
 674              	.LFB15:
 824:Generated_Source\PSoC4/PWM_Left.c **** 
 825:Generated_Source\PSoC4/PWM_Left.c **** #else
 826:Generated_Source\PSoC4/PWM_Left.c **** 
 827:Generated_Source\PSoC4/PWM_Left.c **** 
 828:Generated_Source\PSoC4/PWM_Left.c ****     /*******************************************************************************
 829:Generated_Source\PSoC4/PWM_Left.c ****     * Function Name: PWM_Left_ReadCompare1
 830:Generated_Source\PSoC4/PWM_Left.c ****     ********************************************************************************
 831:Generated_Source\PSoC4/PWM_Left.c ****     *
 832:Generated_Source\PSoC4/PWM_Left.c ****     * Summary:
 833:Generated_Source\PSoC4/PWM_Left.c ****     *  Reads the compare value for the compare1 output.
 834:Generated_Source\PSoC4/PWM_Left.c ****     *
 835:Generated_Source\PSoC4/PWM_Left.c ****     * Parameters:
 836:Generated_Source\PSoC4/PWM_Left.c ****     *  None
 837:Generated_Source\PSoC4/PWM_Left.c ****     *
 838:Generated_Source\PSoC4/PWM_Left.c ****     * Return:
 839:Generated_Source\PSoC4/PWM_Left.c ****     *  uint8/uint16: Current compare value.
 840:Generated_Source\PSoC4/PWM_Left.c ****     *
 841:Generated_Source\PSoC4/PWM_Left.c ****     *******************************************************************************/
 842:Generated_Source\PSoC4/PWM_Left.c ****     uint8 PWM_Left_ReadCompare1(void) 
 843:Generated_Source\PSoC4/PWM_Left.c ****     {
 844:Generated_Source\PSoC4/PWM_Left.c ****         return (CY_GET_REG8(PWM_Left_COMPARE1_LSB_PTR));
 845:Generated_Source\PSoC4/PWM_Left.c ****     }
 846:Generated_Source\PSoC4/PWM_Left.c **** 
 847:Generated_Source\PSoC4/PWM_Left.c **** 
 848:Generated_Source\PSoC4/PWM_Left.c ****     /*******************************************************************************
 849:Generated_Source\PSoC4/PWM_Left.c ****     * Function Name: PWM_Left_ReadCompare2
 850:Generated_Source\PSoC4/PWM_Left.c ****     ********************************************************************************
 851:Generated_Source\PSoC4/PWM_Left.c ****     *
 852:Generated_Source\PSoC4/PWM_Left.c ****     * Summary:
 853:Generated_Source\PSoC4/PWM_Left.c ****     *  Reads the compare value for the compare2 output.
 854:Generated_Source\PSoC4/PWM_Left.c ****     *
 855:Generated_Source\PSoC4/PWM_Left.c ****     * Parameters:
 856:Generated_Source\PSoC4/PWM_Left.c ****     *  None
 857:Generated_Source\PSoC4/PWM_Left.c ****     *
 858:Generated_Source\PSoC4/PWM_Left.c ****     * Return:
 859:Generated_Source\PSoC4/PWM_Left.c ****     *  uint8/uint16: Current compare value.
 860:Generated_Source\PSoC4/PWM_Left.c ****     *
 861:Generated_Source\PSoC4/PWM_Left.c ****     *******************************************************************************/
 862:Generated_Source\PSoC4/PWM_Left.c ****     uint8 PWM_Left_ReadCompare2(void) 
 863:Generated_Source\PSoC4/PWM_Left.c ****     {
 864:Generated_Source\PSoC4/PWM_Left.c ****         return (CY_GET_REG8(PWM_Left_COMPARE2_LSB_PTR));
ARM GAS  C:\Users\jagumiel\AppData\Local\Temp\cc6m0Vht.s 			page 28


 865:Generated_Source\PSoC4/PWM_Left.c ****     }
 866:Generated_Source\PSoC4/PWM_Left.c **** 
 867:Generated_Source\PSoC4/PWM_Left.c **** #endif /* (PWM_Left_UseOneCompareMode) */
 868:Generated_Source\PSoC4/PWM_Left.c **** 
 869:Generated_Source\PSoC4/PWM_Left.c **** 
 870:Generated_Source\PSoC4/PWM_Left.c **** /*******************************************************************************
 871:Generated_Source\PSoC4/PWM_Left.c **** * Function Name: PWM_Left_ReadPeriod
 872:Generated_Source\PSoC4/PWM_Left.c **** ********************************************************************************
 873:Generated_Source\PSoC4/PWM_Left.c **** *
 874:Generated_Source\PSoC4/PWM_Left.c **** * Summary:
 875:Generated_Source\PSoC4/PWM_Left.c **** *  Reads the period value used by the PWM hardware.
 876:Generated_Source\PSoC4/PWM_Left.c **** *
 877:Generated_Source\PSoC4/PWM_Left.c **** * Parameters:
 878:Generated_Source\PSoC4/PWM_Left.c **** *  None
 879:Generated_Source\PSoC4/PWM_Left.c **** *
 880:Generated_Source\PSoC4/PWM_Left.c **** * Return:
 881:Generated_Source\PSoC4/PWM_Left.c **** *  uint8/16: Period value
 882:Generated_Source\PSoC4/PWM_Left.c **** *
 883:Generated_Source\PSoC4/PWM_Left.c **** *******************************************************************************/
 884:Generated_Source\PSoC4/PWM_Left.c **** uint8 PWM_Left_ReadPeriod(void) 
 885:Generated_Source\PSoC4/PWM_Left.c **** {
 675              		.loc 1 885 0
 676              		.cfi_startproc
 677              		@ args = 0, pretend = 0, frame = 0
 678              		@ frame_needed = 1, uses_anonymous_args = 0
 679 0000 80B5     		push	{r7, lr}
 680              		.cfi_def_cfa_offset 8
 681              		.cfi_offset 7, -8
 682              		.cfi_offset 14, -4
 683 0002 00AF     		add	r7, sp, #0
 684              		.cfi_def_cfa_register 7
 886:Generated_Source\PSoC4/PWM_Left.c ****     #if(PWM_Left_UsingFixedFunction)
 887:Generated_Source\PSoC4/PWM_Left.c ****         return ((uint8)CY_GET_REG16(PWM_Left_PERIOD_LSB_PTR));
 888:Generated_Source\PSoC4/PWM_Left.c ****     #else
 889:Generated_Source\PSoC4/PWM_Left.c ****         return (CY_GET_REG8(PWM_Left_PERIOD_LSB_PTR));
 685              		.loc 1 889 0
 686 0004 024B     		ldr	r3, .L54
 687 0006 1B78     		ldrb	r3, [r3]
 688 0008 DBB2     		uxtb	r3, r3
 890:Generated_Source\PSoC4/PWM_Left.c ****     #endif /* (PWM_Left_UsingFixedFunction) */
 891:Generated_Source\PSoC4/PWM_Left.c **** }
 689              		.loc 1 891 0
 690 000a 1800     		movs	r0, r3
 691 000c BD46     		mov	sp, r7
 692              		@ sp needed
 693 000e 80BD     		pop	{r7, pc}
 694              	.L55:
 695              		.align	2
 696              	.L54:
 697 0010 42000F40 		.word	1074724930
 698              		.cfi_endproc
 699              	.LFE15:
 700              		.size	PWM_Left_ReadPeriod, .-PWM_Left_ReadPeriod
 701              		.text
 702              	.Letext0:
 703              		.file 2 "Generated_Source\\PSoC4\\cytypes.h"