ARM GAS  C:\Users\jagumiel\AppData\Local\Temp\ccIM9HC2.s 			page 1


   1              		.syntax unified
   2              		.cpu cortex-m0
   3              		.fpu softvfp
   4              		.eabi_attribute 20, 1
   5              		.eabi_attribute 21, 1
   6              		.eabi_attribute 23, 3
   7              		.eabi_attribute 24, 1
   8              		.eabi_attribute 25, 1
   9              		.eabi_attribute 26, 1
  10              		.eabi_attribute 30, 6
  11              		.eabi_attribute 34, 0
  12              		.eabi_attribute 18, 4
  13              		.thumb
  14              		.syntax unified
  15              		.file	"PWM_Left_PM.c"
  16              		.text
  17              	.Ltext0:
  18              		.cfi_sections	.debug_frame
  19              		.bss
  20              		.align	2
  21              	PWM_Left_backup:
  22 0000 00000000 		.space	5
  22      00
  23              		.section	.text.PWM_Left_SaveConfig,"ax",%progbits
  24              		.align	2
  25              		.global	PWM_Left_SaveConfig
  26              		.code	16
  27              		.thumb_func
  28              		.type	PWM_Left_SaveConfig, %function
  29              	PWM_Left_SaveConfig:
  30              	.LFB0:
  31              		.file 1 "Generated_Source\\PSoC4\\PWM_Left_PM.c"
   1:Generated_Source\PSoC4/PWM_Left_PM.c **** /*******************************************************************************
   2:Generated_Source\PSoC4/PWM_Left_PM.c **** * File Name: PWM_Left_PM.c
   3:Generated_Source\PSoC4/PWM_Left_PM.c **** * Version 3.30
   4:Generated_Source\PSoC4/PWM_Left_PM.c **** *
   5:Generated_Source\PSoC4/PWM_Left_PM.c **** * Description:
   6:Generated_Source\PSoC4/PWM_Left_PM.c **** *  This file provides the power management source code to API for the
   7:Generated_Source\PSoC4/PWM_Left_PM.c **** *  PWM.
   8:Generated_Source\PSoC4/PWM_Left_PM.c **** *
   9:Generated_Source\PSoC4/PWM_Left_PM.c **** * Note:
  10:Generated_Source\PSoC4/PWM_Left_PM.c **** *
  11:Generated_Source\PSoC4/PWM_Left_PM.c **** ********************************************************************************
  12:Generated_Source\PSoC4/PWM_Left_PM.c **** * Copyright 2008-2014, Cypress Semiconductor Corporation.  All rights reserved.
  13:Generated_Source\PSoC4/PWM_Left_PM.c **** * You may use this file only in accordance with the license, terms, conditions,
  14:Generated_Source\PSoC4/PWM_Left_PM.c **** * disclaimers, and limitations in the end user license agreement accompanying
  15:Generated_Source\PSoC4/PWM_Left_PM.c **** * the software package with which this file was provided.
  16:Generated_Source\PSoC4/PWM_Left_PM.c **** *******************************************************************************/
  17:Generated_Source\PSoC4/PWM_Left_PM.c **** 
  18:Generated_Source\PSoC4/PWM_Left_PM.c **** #include "PWM_Left.h"
  19:Generated_Source\PSoC4/PWM_Left_PM.c **** 
  20:Generated_Source\PSoC4/PWM_Left_PM.c **** static PWM_Left_backupStruct PWM_Left_backup;
  21:Generated_Source\PSoC4/PWM_Left_PM.c **** 
  22:Generated_Source\PSoC4/PWM_Left_PM.c **** 
  23:Generated_Source\PSoC4/PWM_Left_PM.c **** /*******************************************************************************
  24:Generated_Source\PSoC4/PWM_Left_PM.c **** * Function Name: PWM_Left_SaveConfig
  25:Generated_Source\PSoC4/PWM_Left_PM.c **** ********************************************************************************
ARM GAS  C:\Users\jagumiel\AppData\Local\Temp\ccIM9HC2.s 			page 2


  26:Generated_Source\PSoC4/PWM_Left_PM.c **** *
  27:Generated_Source\PSoC4/PWM_Left_PM.c **** * Summary:
  28:Generated_Source\PSoC4/PWM_Left_PM.c **** *  Saves the current user configuration of the component.
  29:Generated_Source\PSoC4/PWM_Left_PM.c **** *
  30:Generated_Source\PSoC4/PWM_Left_PM.c **** * Parameters:
  31:Generated_Source\PSoC4/PWM_Left_PM.c **** *  None
  32:Generated_Source\PSoC4/PWM_Left_PM.c **** *
  33:Generated_Source\PSoC4/PWM_Left_PM.c **** * Return:
  34:Generated_Source\PSoC4/PWM_Left_PM.c **** *  None
  35:Generated_Source\PSoC4/PWM_Left_PM.c **** *
  36:Generated_Source\PSoC4/PWM_Left_PM.c **** * Global variables:
  37:Generated_Source\PSoC4/PWM_Left_PM.c **** *  PWM_Left_backup:  Variables of this global structure are modified to
  38:Generated_Source\PSoC4/PWM_Left_PM.c **** *  store the values of non retention configuration registers when Sleep() API is
  39:Generated_Source\PSoC4/PWM_Left_PM.c **** *  called.
  40:Generated_Source\PSoC4/PWM_Left_PM.c **** *
  41:Generated_Source\PSoC4/PWM_Left_PM.c **** *******************************************************************************/
  42:Generated_Source\PSoC4/PWM_Left_PM.c **** void PWM_Left_SaveConfig(void) 
  43:Generated_Source\PSoC4/PWM_Left_PM.c **** {
  32              		.loc 1 43 0
  33              		.cfi_startproc
  34              		@ args = 0, pretend = 0, frame = 0
  35              		@ frame_needed = 1, uses_anonymous_args = 0
  36 0000 80B5     		push	{r7, lr}
  37              		.cfi_def_cfa_offset 8
  38              		.cfi_offset 7, -8
  39              		.cfi_offset 14, -4
  40 0002 00AF     		add	r7, sp, #0
  41              		.cfi_def_cfa_register 7
  44:Generated_Source\PSoC4/PWM_Left_PM.c **** 
  45:Generated_Source\PSoC4/PWM_Left_PM.c ****     #if(!PWM_Left_UsingFixedFunction)
  46:Generated_Source\PSoC4/PWM_Left_PM.c ****         #if(!PWM_Left_PWMModeIsCenterAligned)
  47:Generated_Source\PSoC4/PWM_Left_PM.c ****             PWM_Left_backup.PWMPeriod = PWM_Left_ReadPeriod();
  42              		.loc 1 47 0
  43 0004 FFF7FEFF 		bl	PWM_Left_ReadPeriod
  44 0008 0300     		movs	r3, r0
  45 000a 1A00     		movs	r2, r3
  46 000c 0A4B     		ldr	r3, .L2
  47 000e 9A70     		strb	r2, [r3, #2]
  48:Generated_Source\PSoC4/PWM_Left_PM.c ****         #endif /* (!PWM_Left_PWMModeIsCenterAligned) */
  49:Generated_Source\PSoC4/PWM_Left_PM.c ****         PWM_Left_backup.PWMUdb = PWM_Left_ReadCounter();
  48              		.loc 1 49 0
  49 0010 FFF7FEFF 		bl	PWM_Left_ReadCounter
  50 0014 0300     		movs	r3, r0
  51 0016 1A00     		movs	r2, r3
  52 0018 074B     		ldr	r3, .L2
  53 001a 5A70     		strb	r2, [r3, #1]
  50:Generated_Source\PSoC4/PWM_Left_PM.c ****         #if (PWM_Left_UseStatus)
  51:Generated_Source\PSoC4/PWM_Left_PM.c ****             PWM_Left_backup.InterruptMaskValue = PWM_Left_STATUS_MASK;
  54              		.loc 1 51 0
  55 001c 074B     		ldr	r3, .L2+4
  56 001e 1B78     		ldrb	r3, [r3]
  57 0020 DAB2     		uxtb	r2, r3
  58 0022 054B     		ldr	r3, .L2
  59 0024 DA70     		strb	r2, [r3, #3]
  52:Generated_Source\PSoC4/PWM_Left_PM.c ****         #endif /* (PWM_Left_UseStatus) */
  53:Generated_Source\PSoC4/PWM_Left_PM.c **** 
  54:Generated_Source\PSoC4/PWM_Left_PM.c ****         #if(PWM_Left_DeadBandMode == PWM_Left__B_PWM__DBM_256_CLOCKS || \
ARM GAS  C:\Users\jagumiel\AppData\Local\Temp\ccIM9HC2.s 			page 3


  55:Generated_Source\PSoC4/PWM_Left_PM.c ****             PWM_Left_DeadBandMode == PWM_Left__B_PWM__DBM_2_4_CLOCKS)
  56:Generated_Source\PSoC4/PWM_Left_PM.c ****             PWM_Left_backup.PWMdeadBandValue = PWM_Left_ReadDeadTime();
  57:Generated_Source\PSoC4/PWM_Left_PM.c ****         #endif /*  deadband count is either 2-4 clocks or 256 clocks */
  58:Generated_Source\PSoC4/PWM_Left_PM.c **** 
  59:Generated_Source\PSoC4/PWM_Left_PM.c ****         #if(PWM_Left_KillModeMinTime)
  60:Generated_Source\PSoC4/PWM_Left_PM.c ****              PWM_Left_backup.PWMKillCounterPeriod = PWM_Left_ReadKillTime();
  61:Generated_Source\PSoC4/PWM_Left_PM.c ****         #endif /* (PWM_Left_KillModeMinTime) */
  62:Generated_Source\PSoC4/PWM_Left_PM.c **** 
  63:Generated_Source\PSoC4/PWM_Left_PM.c ****         #if(PWM_Left_UseControl)
  64:Generated_Source\PSoC4/PWM_Left_PM.c ****             PWM_Left_backup.PWMControlRegister = PWM_Left_ReadControlRegister();
  60              		.loc 1 64 0
  61 0026 FFF7FEFF 		bl	PWM_Left_ReadControlRegister
  62 002a 0300     		movs	r3, r0
  63 002c 1A00     		movs	r2, r3
  64 002e 024B     		ldr	r3, .L2
  65 0030 1A71     		strb	r2, [r3, #4]
  65:Generated_Source\PSoC4/PWM_Left_PM.c ****         #endif /* (PWM_Left_UseControl) */
  66:Generated_Source\PSoC4/PWM_Left_PM.c ****     #endif  /* (!PWM_Left_UsingFixedFunction) */
  67:Generated_Source\PSoC4/PWM_Left_PM.c **** }
  66              		.loc 1 67 0
  67 0032 C046     		nop
  68 0034 BD46     		mov	sp, r7
  69              		@ sp needed
  70 0036 80BD     		pop	{r7, pc}
  71              	.L3:
  72              		.align	2
  73              	.L2:
  74 0038 00000000 		.word	PWM_Left_backup
  75 003c 82000F40 		.word	1074724994
  76              		.cfi_endproc
  77              	.LFE0:
  78              		.size	PWM_Left_SaveConfig, .-PWM_Left_SaveConfig
  79              		.section	.text.PWM_Left_RestoreConfig,"ax",%progbits
  80              		.align	2
  81              		.global	PWM_Left_RestoreConfig
  82              		.code	16
  83              		.thumb_func
  84              		.type	PWM_Left_RestoreConfig, %function
  85              	PWM_Left_RestoreConfig:
  86              	.LFB1:
  68:Generated_Source\PSoC4/PWM_Left_PM.c **** 
  69:Generated_Source\PSoC4/PWM_Left_PM.c **** 
  70:Generated_Source\PSoC4/PWM_Left_PM.c **** /*******************************************************************************
  71:Generated_Source\PSoC4/PWM_Left_PM.c **** * Function Name: PWM_Left_RestoreConfig
  72:Generated_Source\PSoC4/PWM_Left_PM.c **** ********************************************************************************
  73:Generated_Source\PSoC4/PWM_Left_PM.c **** *
  74:Generated_Source\PSoC4/PWM_Left_PM.c **** * Summary:
  75:Generated_Source\PSoC4/PWM_Left_PM.c **** *  Restores the current user configuration of the component.
  76:Generated_Source\PSoC4/PWM_Left_PM.c **** *
  77:Generated_Source\PSoC4/PWM_Left_PM.c **** * Parameters:
  78:Generated_Source\PSoC4/PWM_Left_PM.c **** *  None
  79:Generated_Source\PSoC4/PWM_Left_PM.c **** *
  80:Generated_Source\PSoC4/PWM_Left_PM.c **** * Return:
  81:Generated_Source\PSoC4/PWM_Left_PM.c **** *  None
  82:Generated_Source\PSoC4/PWM_Left_PM.c **** *
  83:Generated_Source\PSoC4/PWM_Left_PM.c **** * Global variables:
  84:Generated_Source\PSoC4/PWM_Left_PM.c **** *  PWM_Left_backup:  Variables of this global structure are used to
ARM GAS  C:\Users\jagumiel\AppData\Local\Temp\ccIM9HC2.s 			page 4


  85:Generated_Source\PSoC4/PWM_Left_PM.c **** *  restore the values of non retention registers on wakeup from sleep mode.
  86:Generated_Source\PSoC4/PWM_Left_PM.c **** *
  87:Generated_Source\PSoC4/PWM_Left_PM.c **** *******************************************************************************/
  88:Generated_Source\PSoC4/PWM_Left_PM.c **** void PWM_Left_RestoreConfig(void) 
  89:Generated_Source\PSoC4/PWM_Left_PM.c **** {
  87              		.loc 1 89 0
  88              		.cfi_startproc
  89              		@ args = 0, pretend = 0, frame = 0
  90              		@ frame_needed = 1, uses_anonymous_args = 0
  91 0000 80B5     		push	{r7, lr}
  92              		.cfi_def_cfa_offset 8
  93              		.cfi_offset 7, -8
  94              		.cfi_offset 14, -4
  95 0002 00AF     		add	r7, sp, #0
  96              		.cfi_def_cfa_register 7
  90:Generated_Source\PSoC4/PWM_Left_PM.c ****         #if(!PWM_Left_UsingFixedFunction)
  91:Generated_Source\PSoC4/PWM_Left_PM.c ****             #if(!PWM_Left_PWMModeIsCenterAligned)
  92:Generated_Source\PSoC4/PWM_Left_PM.c ****                 PWM_Left_WritePeriod(PWM_Left_backup.PWMPeriod);
  97              		.loc 1 92 0
  98 0004 0A4B     		ldr	r3, .L5
  99 0006 9B78     		ldrb	r3, [r3, #2]
 100 0008 1800     		movs	r0, r3
 101 000a FFF7FEFF 		bl	PWM_Left_WritePeriod
  93:Generated_Source\PSoC4/PWM_Left_PM.c ****             #endif /* (!PWM_Left_PWMModeIsCenterAligned) */
  94:Generated_Source\PSoC4/PWM_Left_PM.c **** 
  95:Generated_Source\PSoC4/PWM_Left_PM.c ****             PWM_Left_WriteCounter(PWM_Left_backup.PWMUdb);
 102              		.loc 1 95 0
 103 000e 084B     		ldr	r3, .L5
 104 0010 5B78     		ldrb	r3, [r3, #1]
 105 0012 1800     		movs	r0, r3
 106 0014 FFF7FEFF 		bl	PWM_Left_WriteCounter
  96:Generated_Source\PSoC4/PWM_Left_PM.c **** 
  97:Generated_Source\PSoC4/PWM_Left_PM.c ****             #if (PWM_Left_UseStatus)
  98:Generated_Source\PSoC4/PWM_Left_PM.c ****                 PWM_Left_STATUS_MASK = PWM_Left_backup.InterruptMaskValue;
 107              		.loc 1 98 0
 108 0018 064A     		ldr	r2, .L5+4
 109 001a 054B     		ldr	r3, .L5
 110 001c DB78     		ldrb	r3, [r3, #3]
 111 001e 1370     		strb	r3, [r2]
  99:Generated_Source\PSoC4/PWM_Left_PM.c ****             #endif /* (PWM_Left_UseStatus) */
 100:Generated_Source\PSoC4/PWM_Left_PM.c **** 
 101:Generated_Source\PSoC4/PWM_Left_PM.c ****             #if(PWM_Left_DeadBandMode == PWM_Left__B_PWM__DBM_256_CLOCKS || \
 102:Generated_Source\PSoC4/PWM_Left_PM.c ****                 PWM_Left_DeadBandMode == PWM_Left__B_PWM__DBM_2_4_CLOCKS)
 103:Generated_Source\PSoC4/PWM_Left_PM.c ****                 PWM_Left_WriteDeadTime(PWM_Left_backup.PWMdeadBandValue);
 104:Generated_Source\PSoC4/PWM_Left_PM.c ****             #endif /* deadband count is either 2-4 clocks or 256 clocks */
 105:Generated_Source\PSoC4/PWM_Left_PM.c **** 
 106:Generated_Source\PSoC4/PWM_Left_PM.c ****             #if(PWM_Left_KillModeMinTime)
 107:Generated_Source\PSoC4/PWM_Left_PM.c ****                 PWM_Left_WriteKillTime(PWM_Left_backup.PWMKillCounterPeriod);
 108:Generated_Source\PSoC4/PWM_Left_PM.c ****             #endif /* (PWM_Left_KillModeMinTime) */
 109:Generated_Source\PSoC4/PWM_Left_PM.c **** 
 110:Generated_Source\PSoC4/PWM_Left_PM.c ****             #if(PWM_Left_UseControl)
 111:Generated_Source\PSoC4/PWM_Left_PM.c ****                 PWM_Left_WriteControlRegister(PWM_Left_backup.PWMControlRegister);
 112              		.loc 1 111 0
 113 0020 034B     		ldr	r3, .L5
 114 0022 1B79     		ldrb	r3, [r3, #4]
 115 0024 1800     		movs	r0, r3
 116 0026 FFF7FEFF 		bl	PWM_Left_WriteControlRegister
ARM GAS  C:\Users\jagumiel\AppData\Local\Temp\ccIM9HC2.s 			page 5


 112:Generated_Source\PSoC4/PWM_Left_PM.c ****             #endif /* (PWM_Left_UseControl) */
 113:Generated_Source\PSoC4/PWM_Left_PM.c ****         #endif  /* (!PWM_Left_UsingFixedFunction) */
 114:Generated_Source\PSoC4/PWM_Left_PM.c ****     }
 117              		.loc 1 114 0
 118 002a C046     		nop
 119 002c BD46     		mov	sp, r7
 120              		@ sp needed
 121 002e 80BD     		pop	{r7, pc}
 122              	.L6:
 123              		.align	2
 124              	.L5:
 125 0030 00000000 		.word	PWM_Left_backup
 126 0034 82000F40 		.word	1074724994
 127              		.cfi_endproc
 128              	.LFE1:
 129              		.size	PWM_Left_RestoreConfig, .-PWM_Left_RestoreConfig
 130              		.section	.text.PWM_Left_Sleep,"ax",%progbits
 131              		.align	2
 132              		.global	PWM_Left_Sleep
 133              		.code	16
 134              		.thumb_func
 135              		.type	PWM_Left_Sleep, %function
 136              	PWM_Left_Sleep:
 137              	.LFB2:
 115:Generated_Source\PSoC4/PWM_Left_PM.c **** 
 116:Generated_Source\PSoC4/PWM_Left_PM.c **** 
 117:Generated_Source\PSoC4/PWM_Left_PM.c **** /*******************************************************************************
 118:Generated_Source\PSoC4/PWM_Left_PM.c **** * Function Name: PWM_Left_Sleep
 119:Generated_Source\PSoC4/PWM_Left_PM.c **** ********************************************************************************
 120:Generated_Source\PSoC4/PWM_Left_PM.c **** *
 121:Generated_Source\PSoC4/PWM_Left_PM.c **** * Summary:
 122:Generated_Source\PSoC4/PWM_Left_PM.c **** *  Disables block's operation and saves the user configuration. Should be called
 123:Generated_Source\PSoC4/PWM_Left_PM.c **** *  just prior to entering sleep.
 124:Generated_Source\PSoC4/PWM_Left_PM.c **** *
 125:Generated_Source\PSoC4/PWM_Left_PM.c **** * Parameters:
 126:Generated_Source\PSoC4/PWM_Left_PM.c **** *  None
 127:Generated_Source\PSoC4/PWM_Left_PM.c **** *
 128:Generated_Source\PSoC4/PWM_Left_PM.c **** * Return:
 129:Generated_Source\PSoC4/PWM_Left_PM.c **** *  None
 130:Generated_Source\PSoC4/PWM_Left_PM.c **** *
 131:Generated_Source\PSoC4/PWM_Left_PM.c **** * Global variables:
 132:Generated_Source\PSoC4/PWM_Left_PM.c **** *  PWM_Left_backup.PWMEnableState:  Is modified depending on the enable
 133:Generated_Source\PSoC4/PWM_Left_PM.c **** *  state of the block before entering sleep mode.
 134:Generated_Source\PSoC4/PWM_Left_PM.c **** *
 135:Generated_Source\PSoC4/PWM_Left_PM.c **** *******************************************************************************/
 136:Generated_Source\PSoC4/PWM_Left_PM.c **** void PWM_Left_Sleep(void) 
 137:Generated_Source\PSoC4/PWM_Left_PM.c **** {
 138              		.loc 1 137 0
 139              		.cfi_startproc
 140              		@ args = 0, pretend = 0, frame = 0
 141              		@ frame_needed = 1, uses_anonymous_args = 0
 142 0000 80B5     		push	{r7, lr}
 143              		.cfi_def_cfa_offset 8
 144              		.cfi_offset 7, -8
 145              		.cfi_offset 14, -4
 146 0002 00AF     		add	r7, sp, #0
 147              		.cfi_def_cfa_register 7
ARM GAS  C:\Users\jagumiel\AppData\Local\Temp\ccIM9HC2.s 			page 6


 138:Generated_Source\PSoC4/PWM_Left_PM.c ****     #if(PWM_Left_UseControl)
 139:Generated_Source\PSoC4/PWM_Left_PM.c ****         if(PWM_Left_CTRL_ENABLE == (PWM_Left_CONTROL & PWM_Left_CTRL_ENABLE))
 148              		.loc 1 139 0
 149 0004 094B     		ldr	r3, .L10
 150 0006 1B78     		ldrb	r3, [r3]
 151 0008 DBB2     		uxtb	r3, r3
 152 000a 5BB2     		sxtb	r3, r3
 153 000c 002B     		cmp	r3, #0
 154 000e 03DA     		bge	.L8
 140:Generated_Source\PSoC4/PWM_Left_PM.c ****         {
 141:Generated_Source\PSoC4/PWM_Left_PM.c ****             /*Component is enabled */
 142:Generated_Source\PSoC4/PWM_Left_PM.c ****             PWM_Left_backup.PWMEnableState = 1u;
 155              		.loc 1 142 0
 156 0010 074B     		ldr	r3, .L10+4
 157 0012 0122     		movs	r2, #1
 158 0014 1A70     		strb	r2, [r3]
 159 0016 02E0     		b	.L9
 160              	.L8:
 143:Generated_Source\PSoC4/PWM_Left_PM.c ****         }
 144:Generated_Source\PSoC4/PWM_Left_PM.c ****         else
 145:Generated_Source\PSoC4/PWM_Left_PM.c ****         {
 146:Generated_Source\PSoC4/PWM_Left_PM.c ****             /* Component is disabled */
 147:Generated_Source\PSoC4/PWM_Left_PM.c ****             PWM_Left_backup.PWMEnableState = 0u;
 161              		.loc 1 147 0
 162 0018 054B     		ldr	r3, .L10+4
 163 001a 0022     		movs	r2, #0
 164 001c 1A70     		strb	r2, [r3]
 165              	.L9:
 148:Generated_Source\PSoC4/PWM_Left_PM.c ****         }
 149:Generated_Source\PSoC4/PWM_Left_PM.c ****     #endif /* (PWM_Left_UseControl) */
 150:Generated_Source\PSoC4/PWM_Left_PM.c **** 
 151:Generated_Source\PSoC4/PWM_Left_PM.c ****     /* Stop component */
 152:Generated_Source\PSoC4/PWM_Left_PM.c ****     PWM_Left_Stop();
 166              		.loc 1 152 0
 167 001e FFF7FEFF 		bl	PWM_Left_Stop
 153:Generated_Source\PSoC4/PWM_Left_PM.c **** 
 154:Generated_Source\PSoC4/PWM_Left_PM.c ****     /* Save registers configuration */
 155:Generated_Source\PSoC4/PWM_Left_PM.c ****     PWM_Left_SaveConfig();
 168              		.loc 1 155 0
 169 0022 FFF7FEFF 		bl	PWM_Left_SaveConfig
 156:Generated_Source\PSoC4/PWM_Left_PM.c **** }
 170              		.loc 1 156 0
 171 0026 C046     		nop
 172 0028 BD46     		mov	sp, r7
 173              		@ sp needed
 174 002a 80BD     		pop	{r7, pc}
 175              	.L11:
 176              		.align	2
 177              	.L10:
 178 002c 72000F40 		.word	1074724978
 179 0030 00000000 		.word	PWM_Left_backup
 180              		.cfi_endproc
 181              	.LFE2:
 182              		.size	PWM_Left_Sleep, .-PWM_Left_Sleep
 183              		.section	.text.PWM_Left_Wakeup,"ax",%progbits
 184              		.align	2
 185              		.global	PWM_Left_Wakeup
ARM GAS  C:\Users\jagumiel\AppData\Local\Temp\ccIM9HC2.s 			page 7


 186              		.code	16
 187              		.thumb_func
 188              		.type	PWM_Left_Wakeup, %function
 189              	PWM_Left_Wakeup:
 190              	.LFB3:
 157:Generated_Source\PSoC4/PWM_Left_PM.c **** 
 158:Generated_Source\PSoC4/PWM_Left_PM.c **** 
 159:Generated_Source\PSoC4/PWM_Left_PM.c **** /*******************************************************************************
 160:Generated_Source\PSoC4/PWM_Left_PM.c **** * Function Name: PWM_Left_Wakeup
 161:Generated_Source\PSoC4/PWM_Left_PM.c **** ********************************************************************************
 162:Generated_Source\PSoC4/PWM_Left_PM.c **** *
 163:Generated_Source\PSoC4/PWM_Left_PM.c **** * Summary:
 164:Generated_Source\PSoC4/PWM_Left_PM.c **** *  Restores and enables the user configuration. Should be called just after
 165:Generated_Source\PSoC4/PWM_Left_PM.c **** *  awaking from sleep.
 166:Generated_Source\PSoC4/PWM_Left_PM.c **** *
 167:Generated_Source\PSoC4/PWM_Left_PM.c **** * Parameters:
 168:Generated_Source\PSoC4/PWM_Left_PM.c **** *  None
 169:Generated_Source\PSoC4/PWM_Left_PM.c **** *
 170:Generated_Source\PSoC4/PWM_Left_PM.c **** * Return:
 171:Generated_Source\PSoC4/PWM_Left_PM.c **** *  None
 172:Generated_Source\PSoC4/PWM_Left_PM.c **** *
 173:Generated_Source\PSoC4/PWM_Left_PM.c **** * Global variables:
 174:Generated_Source\PSoC4/PWM_Left_PM.c **** *  PWM_Left_backup.pwmEnable:  Is used to restore the enable state of
 175:Generated_Source\PSoC4/PWM_Left_PM.c **** *  block on wakeup from sleep mode.
 176:Generated_Source\PSoC4/PWM_Left_PM.c **** *
 177:Generated_Source\PSoC4/PWM_Left_PM.c **** *******************************************************************************/
 178:Generated_Source\PSoC4/PWM_Left_PM.c **** void PWM_Left_Wakeup(void) 
 179:Generated_Source\PSoC4/PWM_Left_PM.c **** {
 191              		.loc 1 179 0
 192              		.cfi_startproc
 193              		@ args = 0, pretend = 0, frame = 0
 194              		@ frame_needed = 1, uses_anonymous_args = 0
 195 0000 80B5     		push	{r7, lr}
 196              		.cfi_def_cfa_offset 8
 197              		.cfi_offset 7, -8
 198              		.cfi_offset 14, -4
 199 0002 00AF     		add	r7, sp, #0
 200              		.cfi_def_cfa_register 7
 180:Generated_Source\PSoC4/PWM_Left_PM.c ****      /* Restore registers values */
 181:Generated_Source\PSoC4/PWM_Left_PM.c ****     PWM_Left_RestoreConfig();
 201              		.loc 1 181 0
 202 0004 FFF7FEFF 		bl	PWM_Left_RestoreConfig
 182:Generated_Source\PSoC4/PWM_Left_PM.c **** 
 183:Generated_Source\PSoC4/PWM_Left_PM.c ****     if(PWM_Left_backup.PWMEnableState != 0u)
 203              		.loc 1 183 0
 204 0008 044B     		ldr	r3, .L15
 205 000a 1B78     		ldrb	r3, [r3]
 206 000c 002B     		cmp	r3, #0
 207 000e 01D0     		beq	.L14
 184:Generated_Source\PSoC4/PWM_Left_PM.c ****     {
 185:Generated_Source\PSoC4/PWM_Left_PM.c ****         /* Enable component's operation */
 186:Generated_Source\PSoC4/PWM_Left_PM.c ****         PWM_Left_Enable();
 208              		.loc 1 186 0
 209 0010 FFF7FEFF 		bl	PWM_Left_Enable
 210              	.L14:
 187:Generated_Source\PSoC4/PWM_Left_PM.c ****     } /* Do nothing if component's block was disabled before */
 188:Generated_Source\PSoC4/PWM_Left_PM.c **** 
ARM GAS  C:\Users\jagumiel\AppData\Local\Temp\ccIM9HC2.s 			page 8


 189:Generated_Source\PSoC4/PWM_Left_PM.c **** }
 211              		.loc 1 189 0
 212 0014 C046     		nop
 213 0016 BD46     		mov	sp, r7
 214              		@ sp needed
 215 0018 80BD     		pop	{r7, pc}
 216              	.L16:
 217 001a C046     		.align	2
 218              	.L15:
 219 001c 00000000 		.word	PWM_Left_backup
 220              		.cfi_endproc
 221              	.LFE3:
 222              		.size	PWM_Left_Wakeup, .-PWM_Left_Wakeup
 223              		.text
 224              	.Letext0:
 225              		.file 2 "Generated_Source\\PSoC4\\cytypes.h"
 226              		.file 3 "Generated_Source\\PSoC4\\PWM_Left.h"